---
triple:          'arm64-apple-darwin'
binary-path:     '/Users/pai/code/CU Grader/output/Sky-Train'
relocations:
  - { offsetInCU: 0x1EA82, offset: 0x1EA82, size: 0x8, addend: 0x0, symName: __ZStL8__ioinit, symObjAddr: 0xA19A8, symBinAddr: 0x10000C000, symSize: 0x0 }
  - { offsetInCU: 0x1EFCE, offset: 0x1EFCE, size: 0x8, addend: 0x0, symName: __Z2stB5cxx11, symObjAddr: 0xA19B0, symBinAddr: 0x10000C008, symSize: 0x0 }
  - { offsetInCU: 0x1F152, offset: 0x1F152, size: 0x8, addend: 0x0, symName: __Z3ansB5cxx11, symObjAddr: 0xA19E0, symBinAddr: 0x10000C038, symSize: 0x0 }
  - { offsetInCU: 0x1F630, offset: 0x1F630, size: 0x8, addend: 0x0, symName: __ZNSt3mapINSt7__cxx1112basic_stringIcSt11char_traitsIcESaIcEEESt3setIS5_St4lessIS5_ESaIS5_EES8_SaISt4pairIKS5_SA_EEED1Ev, symObjAddr: 0x2718, symBinAddr: 0x100005414, symSize: 0x20 }
  - { offsetInCU: 0x1F5DD, offset: 0x1F5DD, size: 0x8, addend: 0x0, symName: __ZNSt10_Head_baseILm0ERKNSt7__cxx1112basic_stringIcSt11char_traitsIcESaIcEEELb0EE7_M_headERS8_, symObjAddr: 0x2700, symBinAddr: 0x1000053FC, symSize: 0x18 }
  - { offsetInCU: 0x1F606, offset: 0x1F606, size: 0x8, addend: 0x0, symName: __ZNSt11_Tuple_implILm0EJRKNSt7__cxx1112basic_stringIcSt11char_traitsIcESaIcEEEEE7_M_headERS8_, symObjAddr: 0x26E4, symBinAddr: 0x1000053E0, symSize: 0x1C }
  - { offsetInCU: 0x1F630, offset: 0x1F630, size: 0x8, addend: 0x0, symName: __ZSt12__get_helperILm0ERKNSt7__cxx1112basic_stringIcSt11char_traitsIcESaIcEEEJEERT0_RSt11_Tuple_implIXT_EJS8_DpT1_EE, symObjAddr: 0x26C8, symBinAddr: 0x1000053C4, symSize: 0x1C }
  - { offsetInCU: 0x1F672, offset: 0x1F672, size: 0x8, addend: 0x0, symName: __ZSt3getILm0EJRKNSt7__cxx1112basic_stringIcSt11char_traitsIcESaIcEEEEERNSt13tuple_elementIXT_ESt5tupleIJDpT0_EEE4typeERSC_, symObjAddr: 0x26AC, symBinAddr: 0x1000053A8, symSize: 0x1C }
  - { offsetInCU: 0x1F7D6, offset: 0x1F7D6, size: 0x8, addend: 0x0, symName: __ZNSt4pairIKNSt7__cxx1112basic_stringIcSt11char_traitsIcESaIcEEESt3setIS5_St4lessIS5_ESaIS5_EEEC1IJRS6_EJLm0EEJEJEEERSt5tupleIJDpT_EERSF_IJDpT1_EESt12_Index_tupleIJXspT0_EEESO_IJXspT2_EEE, symObjAddr: 0x2640, symBinAddr: 0x10000533C, symSize: 0x6C }
  - { offsetInCU: 0x1F7D3, offset: 0x1F7D3, size: 0x8, addend: 0x0, symName: __ZNSt15__new_allocatorISt13_Rb_tree_nodeINSt7__cxx1112basic_stringIcSt11char_traitsIcESaIcEEEEE8allocateEmPKv, symObjAddr: 0x25C4, symBinAddr: 0x1000052C0, symSize: 0x7C }
  - { offsetInCU: 0x1F948, offset: 0x1F948, size: 0x8, addend: 0x0, symName: __ZNSt4pairIKNSt7__cxx1112basic_stringIcSt11char_traitsIcESaIcEEESt3setIS5_St4lessIS5_ESaIS5_EEEC1IJRS6_EJEEESt21piecewise_construct_tSt5tupleIJDpT_EESG_IJDpT0_EE, symObjAddr: 0x2588, symBinAddr: 0x100005284, symSize: 0x3C }
  - { offsetInCU: 0x1F978, offset: 0x1F978, size: 0x8, addend: 0x0, symName: __ZNSt11_Tuple_implILm0EJRKNSt7__cxx1112basic_stringIcSt11char_traitsIcESaIcEEEEEC2EOS8_, symObjAddr: 0x2560, symBinAddr: 0x10000525C, symSize: 0x28 }
  - { offsetInCU: 0x1F9C0, offset: 0x1F9C0, size: 0x8, addend: 0x0, symName: __ZNK9__gnu_cxx16__aligned_membufISt4pairIKNSt7__cxx1112basic_stringIcSt11char_traitsIcESaIcEEESt3setIS7_St4lessIS7_ESaIS7_EEEE7_M_addrEv, symObjAddr: 0x254C, symBinAddr: 0x100005248, symSize: 0x14 }
  - { offsetInCU: 0x1FAB5, offset: 0x1FAB5, size: 0x8, addend: 0x0, symName: __ZNSt5tupleIJRKNSt7__cxx1112basic_stringIcSt11char_traitsIcESaIcEEEEEC1EOS8_, symObjAddr: 0x2524, symBinAddr: 0x100005220, symSize: 0x28 }
  - { offsetInCU: 0x1FA9B, offset: 0x1FA9B, size: 0x8, addend: 0x0, symName: __ZNSt15__new_allocatorISt13_Rb_tree_nodeISt4pairIKNSt7__cxx1112basic_stringIcSt11char_traitsIcESaIcEEESt3setIS7_St4lessIS7_ESaIS7_EEEEE8allocateEmPKv, symObjAddr: 0x248C, symBinAddr: 0x100005188, symSize: 0x98 }
  - { offsetInCU: 0x1FB2C, offset: 0x1FB2C, size: 0x8, addend: 0x0, symName: __ZN9__gnu_cxx16__aligned_membufINSt7__cxx1112basic_stringIcSt11char_traitsIcESaIcEEEE7_M_addrEv, symObjAddr: 0x2478, symBinAddr: 0x100005174, symSize: 0x14 }
  - { offsetInCU: 0x1FB55, offset: 0x1FB55, size: 0x8, addend: 0x0, symName: __ZNSt8_Rb_treeINSt7__cxx1112basic_stringIcSt11char_traitsIcESaIcEEES5_St9_IdentityIS5_ESt4lessIS5_ESaIS5_EE17_M_construct_nodeIJRKS5_EEEvPSt13_Rb_tree_nodeIS5_EDpOT_, symObjAddr: 0x2374, symBinAddr: 0x100005070, symSize: 0x104 }
  - { offsetInCU: 0x1FC10, offset: 0x1FC10, size: 0x8, addend: 0x0, symName: __ZNSt8_Rb_treeINSt7__cxx1112basic_stringIcSt11char_traitsIcESaIcEEES5_St9_IdentityIS5_ESt4lessIS5_ESaIS5_EE11_M_get_nodeEv, symObjAddr: 0x2338, symBinAddr: 0x100005034, symSize: 0x3C }
  - { offsetInCU: 0x1FC67, offset: 0x1FC67, size: 0x8, addend: 0x0, symName: __ZNK9__gnu_cxx16__aligned_membufISt4pairIKNSt7__cxx1112basic_stringIcSt11char_traitsIcESaIcEEESt3setIS7_St4lessIS7_ESaIS7_EEEE6_M_ptrEv, symObjAddr: 0x231C, symBinAddr: 0x100005018, symSize: 0x1C }
  - { offsetInCU: 0x1FC9B, offset: 0x1FC9B, size: 0x8, addend: 0x0, symName: __ZSt7forwardIRPSt13_Rb_tree_nodeISt4pairIKNSt7__cxx1112basic_stringIcSt11char_traitsIcESaIcEEESt3setIS7_St4lessIS7_ESaIS7_EEEEEOT_RNSt16remove_referenceISI_E4typeE, symObjAddr: 0x2308, symBinAddr: 0x100005004, symSize: 0x14 }
  - { offsetInCU: 0x1FD4D, offset: 0x1FD4D, size: 0x8, addend: 0x0, symName: __ZNSt15__new_allocatorISt13_Rb_tree_nodeINSt7__cxx1112basic_stringIcSt11char_traitsIcESaIcEEEEE10deallocateEPS7_m, symObjAddr: 0x22D8, symBinAddr: 0x100004FD4, symSize: 0x30 }
  - { offsetInCU: 0x1FDC3, offset: 0x1FDC3, size: 0x8, addend: 0x0, symName: __ZN9__gnu_cxx16__aligned_membufINSt7__cxx1112basic_stringIcSt11char_traitsIcESaIcEEEE6_M_ptrEv, symObjAddr: 0x22BC, symBinAddr: 0x100004FB8, symSize: 0x1C }
  - { offsetInCU: 0x1FDED, offset: 0x1FDED, size: 0x8, addend: 0x0, symName: __ZNSt15__new_allocatorISt13_Rb_tree_nodeISt4pairIKNSt7__cxx1112basic_stringIcSt11char_traitsIcESaIcEEESt3setIS7_St4lessIS7_ESaIS7_EEEEE10deallocateEPSF_m, symObjAddr: 0x2280, symBinAddr: 0x100004F7C, symSize: 0x3C }
  - { offsetInCU: 0x1FEEB, offset: 0x1FEEB, size: 0x8, addend: 0x0, symName: __ZNSt4pairIKNSt7__cxx1112basic_stringIcSt11char_traitsIcESaIcEEESt3setIS5_St4lessIS5_ESaIS5_EEED1Ev, symObjAddr: 0x2254, symBinAddr: 0x100004F50, symSize: 0x2C }
  - { offsetInCU: 0x1FF28, offset: 0x1FF28, size: 0x8, addend: 0x0, symName: __ZNSt3setINSt7__cxx1112basic_stringIcSt11char_traitsIcESaIcEEESt4lessIS5_ESaIS5_EED1Ev, symObjAddr: 0x2234, symBinAddr: 0x100004F30, symSize: 0x20 }
  - { offsetInCU: 0x1FEFB, offset: 0x1FEFB, size: 0x8, addend: 0x0, symName: __ZNSt8_Rb_treeINSt7__cxx1112basic_stringIcSt11char_traitsIcESaIcEEES5_St9_IdentityIS5_ESt4lessIS5_ESaIS5_EE14_M_create_nodeIJRKS5_EEEPSt13_Rb_tree_nodeIS5_EDpOT_, symObjAddr: 0x21F4, symBinAddr: 0x100004EF0, symSize: 0x40 }
  - { offsetInCU: 0x1FF5B, offset: 0x1FF5B, size: 0x8, addend: 0x0, symName: __ZSt7forwardIRPSt13_Rb_tree_nodeINSt7__cxx1112basic_stringIcSt11char_traitsIcESaIcEEEEEOT_RNSt16remove_referenceISA_E4typeE, symObjAddr: 0x21E0, symBinAddr: 0x100004EDC, symSize: 0x14 }
  - { offsetInCU: 0x1FF91, offset: 0x1FF91, size: 0x8, addend: 0x0, symName: __ZNKSt10_Select1stISt4pairIKNSt7__cxx1112basic_stringIcSt11char_traitsIcESaIcEEESt3setIS6_St4lessIS6_ESaIS6_EEEEclERKSD_, symObjAddr: 0x21C8, symBinAddr: 0x100004EC4, symSize: 0x18 }
  - { offsetInCU: 0x1FFCC, offset: 0x1FFCC, size: 0x8, addend: 0x0, symName: __ZNKSt13_Rb_tree_nodeISt4pairIKNSt7__cxx1112basic_stringIcSt11char_traitsIcESaIcEEESt3setIS6_St4lessIS6_ESaIS6_EEEE9_M_valptrEv, symObjAddr: 0x21A8, symBinAddr: 0x100004EA4, symSize: 0x20 }
  - { offsetInCU: 0x1FFF9, offset: 0x1FFF9, size: 0x8, addend: 0x0, symName: __ZSt7forwardIRPSt18_Rb_tree_node_baseEOT_RNSt16remove_referenceIS3_E4typeE, symObjAddr: 0x2194, symBinAddr: 0x100004E90, symSize: 0x14 }
  - { offsetInCU: 0x2011A, offset: 0x2011A, size: 0x8, addend: 0x0, symName: __ZNSt4pairIPSt18_Rb_tree_node_baseS1_EC1IRPSt13_Rb_tree_nodeIS_IKNSt7__cxx1112basic_stringIcSt11char_traitsIcESaIcEEESt3setISA_St4lessISA_ESaISA_EEEERS1_Lb1EEEOT_OT0_, symObjAddr: 0x214C, symBinAddr: 0x100004E48, symSize: 0x48 }
  - { offsetInCU: 0x200C1, offset: 0x200C1, size: 0x8, addend: 0x0, symName: __ZNSt8_Rb_treeINSt7__cxx1112basic_stringIcSt11char_traitsIcESaIcEEESt4pairIKS5_St3setIS5_St4lessIS5_ESaIS5_EEESt10_Select1stISD_ESA_SaISD_EE5beginEv, symObjAddr: 0x2124, symBinAddr: 0x100004E20, symSize: 0x28 }
  - { offsetInCU: 0x200EB, offset: 0x200EB, size: 0x8, addend: 0x0, symName: __ZNSt8_Rb_treeINSt7__cxx1112basic_stringIcSt11char_traitsIcESaIcEEESt4pairIKS5_St3setIS5_St4lessIS5_ESaIS5_EEESt10_Select1stISD_ESA_SaISD_EE17_M_construct_nodeIJRKSt21piecewise_construct_tSt5tupleIJRS7_EESM_IJEEEEEvPSt13_Rb_tree_nodeISD_EDpOT_, symObjAddr: 0x1FA8, symBinAddr: 0x100004CA4, symSize: 0x17C }
  - { offsetInCU: 0x201EC, offset: 0x201EC, size: 0x8, addend: 0x0, symName: __ZNSt8_Rb_treeINSt7__cxx1112basic_stringIcSt11char_traitsIcESaIcEEESt4pairIKS5_St3setIS5_St4lessIS5_ESaIS5_EEESt10_Select1stISD_ESA_SaISD_EE11_M_get_nodeEv, symObjAddr: 0x1F6C, symBinAddr: 0x100004C68, symSize: 0x3C }
  - { offsetInCU: 0x20248, offset: 0x20248, size: 0x8, addend: 0x0, symName: __ZN9__gnu_cxx16__aligned_membufISt4pairIKNSt7__cxx1112basic_stringIcSt11char_traitsIcESaIcEEESt3setIS7_St4lessIS7_ESaIS7_EEEE7_M_addrEv, symObjAddr: 0x1F58, symBinAddr: 0x100004C54, symSize: 0x14 }
  - { offsetInCU: 0x202D0, offset: 0x202D0, size: 0x8, addend: 0x0, symName: __ZNSt13_Rb_tree_nodeINSt7__cxx1112basic_stringIcSt11char_traitsIcESaIcEEEE9_M_valptrEv, symObjAddr: 0x1F38, symBinAddr: 0x100004C34, symSize: 0x20 }
  - { offsetInCU: 0x202FA, offset: 0x202FA, size: 0x8, addend: 0x0, symName: __ZNSt8_Rb_treeINSt7__cxx1112basic_stringIcSt11char_traitsIcESaIcEEES5_St9_IdentityIS5_ESt4lessIS5_ESaIS5_EE21_M_get_Node_allocatorEv, symObjAddr: 0x1F24, symBinAddr: 0x100004C20, symSize: 0x14 }
  - { offsetInCU: 0x20383, offset: 0x20383, size: 0x8, addend: 0x0, symName: __ZNSt8_Rb_treeINSt7__cxx1112basic_stringIcSt11char_traitsIcESaIcEEESt4pairIKS5_St3setIS5_St4lessIS5_ESaIS5_EEESt10_Select1stISD_ESA_SaISD_EE21_M_get_Node_allocatorEv, symObjAddr: 0x1F10, symBinAddr: 0x100004C0C, symSize: 0x14 }
  - { offsetInCU: 0x203B2, offset: 0x203B2, size: 0x8, addend: 0x0, symName: __ZNK9__gnu_cxx16__aligned_membufINSt7__cxx1112basic_stringIcSt11char_traitsIcESaIcEEEE7_M_addrEv, symObjAddr: 0x1EFC, symBinAddr: 0x100004BF8, symSize: 0x14 }
  - { offsetInCU: 0x203DE, offset: 0x203DE, size: 0x8, addend: 0x0, symName: __ZSt7forwardISt17_Rb_tree_iteratorINSt7__cxx1112basic_stringIcSt11char_traitsIcESaIcEEEEEOT_RNSt16remove_referenceIS8_E4typeE, symObjAddr: 0x1EE8, symBinAddr: 0x100004BE4, symSize: 0x14 }
  - { offsetInCU: 0x2041F, offset: 0x2041F, size: 0x8, addend: 0x0, symName: __ZNKSt8_Rb_treeINSt7__cxx1112basic_stringIcSt11char_traitsIcESaIcEEES5_St9_IdentityIS5_ESt4lessIS5_ESaIS5_EE11_Alloc_nodeclIRKS5_EEPSt13_Rb_tree_nodeIS5_EOT_, symObjAddr: 0x1EAC, symBinAddr: 0x100004BA8, symSize: 0x3C }
  - { offsetInCU: 0x2045F, offset: 0x2045F, size: 0x8, addend: 0x0, symName: __ZNSt8_Rb_treeINSt7__cxx1112basic_stringIcSt11char_traitsIcESaIcEEES5_St9_IdentityIS5_ESt4lessIS5_ESaIS5_EE6_S_keyEPKSt18_Rb_tree_node_base, symObjAddr: 0x1E90, symBinAddr: 0x100004B8C, symSize: 0x1C }
  - { offsetInCU: 0x2048D, offset: 0x2048D, size: 0x8, addend: 0x0, symName: __ZNSt17_Rb_tree_iteratorINSt7__cxx1112basic_stringIcSt11char_traitsIcESaIcEEEEmmEv, symObjAddr: 0x1E60, symBinAddr: 0x100004B5C, symSize: 0x30 }
  - { offsetInCU: 0x2057F, offset: 0x2057F, size: 0x8, addend: 0x0, symName: __ZNSt4pairIPSt18_Rb_tree_node_baseS1_EC1IRPSt13_Rb_tree_nodeINSt7__cxx1112basic_stringIcSt11char_traitsIcESaIcEEEERS1_Lb1EEEOT_OT0_, symObjAddr: 0x1E18, symBinAddr: 0x100004B14, symSize: 0x48 }
  - { offsetInCU: 0x2054C, offset: 0x2054C, size: 0x8, addend: 0x0, symName: __ZSteqRKSt17_Rb_tree_iteratorINSt7__cxx1112basic_stringIcSt11char_traitsIcESaIcEEEES8_, symObjAddr: 0x1DE8, symBinAddr: 0x100004AE4, symSize: 0x30 }
  - { offsetInCU: 0x2058B, offset: 0x2058B, size: 0x8, addend: 0x0, symName: __ZNSt8_Rb_treeINSt7__cxx1112basic_stringIcSt11char_traitsIcESaIcEEES5_St9_IdentityIS5_ESt4lessIS5_ESaIS5_EE5beginEv, symObjAddr: 0x1DC0, symBinAddr: 0x100004ABC, symSize: 0x28 }
  - { offsetInCU: 0x205B1, offset: 0x205B1, size: 0x8, addend: 0x0, symName: __ZNSt8_Rb_treeINSt7__cxx1112basic_stringIcSt11char_traitsIcESaIcEEES5_St9_IdentityIS5_ESt4lessIS5_ESaIS5_EE6_S_keyEPKSt13_Rb_tree_nodeIS5_E, symObjAddr: 0x1D98, symBinAddr: 0x100004A94, symSize: 0x28 }
  - { offsetInCU: 0x205DF, offset: 0x205DF, size: 0x8, addend: 0x0, symName: __ZNSt8_Rb_treeINSt7__cxx1112basic_stringIcSt11char_traitsIcESaIcEEES5_St9_IdentityIS5_ESt4lessIS5_ESaIS5_EE6_M_endEv, symObjAddr: 0x1D80, symBinAddr: 0x100004A7C, symSize: 0x18 }
  - { offsetInCU: 0x20609, offset: 0x20609, size: 0x8, addend: 0x0, symName: __ZNSt8_Rb_treeINSt7__cxx1112basic_stringIcSt11char_traitsIcESaIcEEESt4pairIKS5_St3setIS5_St4lessIS5_ESaIS5_EEESt10_Select1stISD_ESA_SaISD_EE14_M_insert_nodeEPSt18_Rb_tree_node_baseSJ_PSt13_Rb_tree_nodeISD_E, symObjAddr: 0x1CB0, symBinAddr: 0x1000049AC, symSize: 0xD0 }
  - { offsetInCU: 0x20673, offset: 0x20673, size: 0x8, addend: 0x0, symName: __ZNSt8_Rb_treeINSt7__cxx1112basic_stringIcSt11char_traitsIcESaIcEEESt4pairIKS5_St3setIS5_St4lessIS5_ESaIS5_EEESt10_Select1stISD_ESA_SaISD_EE6_S_keyEPKSt13_Rb_tree_nodeISD_E, symObjAddr: 0x1C88, symBinAddr: 0x100004984, symSize: 0x28 }
  - { offsetInCU: 0x206A1, offset: 0x206A1, size: 0x8, addend: 0x0, symName: __ZNSt17_Rb_tree_iteratorISt4pairIKNSt7__cxx1112basic_stringIcSt11char_traitsIcESaIcEEESt3setIS6_St4lessIS6_ESaIS6_EEEEppEv, symObjAddr: 0x1C58, symBinAddr: 0x100004954, symSize: 0x30 }
  - { offsetInCU: 0x206CB, offset: 0x206CB, size: 0x8, addend: 0x0, symName: __ZNSt17_Rb_tree_iteratorISt4pairIKNSt7__cxx1112basic_stringIcSt11char_traitsIcESaIcEEESt3setIS6_St4lessIS6_ESaIS6_EEEEmmEv, symObjAddr: 0x1C28, symBinAddr: 0x100004924, symSize: 0x30 }
  - { offsetInCU: 0x20777, offset: 0x20777, size: 0x8, addend: 0x0, symName: __ZNSt4pairIPSt18_Rb_tree_node_baseS1_EC1IRS1_S4_Lb1EEEOT_OT0_, symObjAddr: 0x1BE0, symBinAddr: 0x1000048DC, symSize: 0x48 }
  - { offsetInCU: 0x20787, offset: 0x20787, size: 0x8, addend: 0x0, symName: __ZNSt8_Rb_treeINSt7__cxx1112basic_stringIcSt11char_traitsIcESaIcEEESt4pairIKS5_St3setIS5_St4lessIS5_ESaIS5_EEESt10_Select1stISD_ESA_SaISD_EE11_M_leftmostEv, symObjAddr: 0x1BC8, symBinAddr: 0x1000048C4, symSize: 0x18 }
  - { offsetInCU: 0x207B1, offset: 0x207B1, size: 0x8, addend: 0x0, symName: __ZNSt8_Rb_treeINSt7__cxx1112basic_stringIcSt11char_traitsIcESaIcEEESt4pairIKS5_St3setIS5_St4lessIS5_ESaIS5_EEESt10_Select1stISD_ESA_SaISD_EE24_M_get_insert_unique_posERS7_, symObjAddr: 0x1A70, symBinAddr: 0x10000476C, symSize: 0x158 }
  - { offsetInCU: 0x208B7, offset: 0x208B7, size: 0x8, addend: 0x0, symName: __ZNSt4pairIPSt18_Rb_tree_node_baseS1_EC1IS1_S1_Lb1EEERKS1_S5_, symObjAddr: 0x1A34, symBinAddr: 0x100004730, symSize: 0x3C }
  - { offsetInCU: 0x208C3, offset: 0x208C3, size: 0x8, addend: 0x0, symName: __ZNSt8_Rb_treeINSt7__cxx1112basic_stringIcSt11char_traitsIcESaIcEEESt4pairIKS5_St3setIS5_St4lessIS5_ESaIS5_EEESt10_Select1stISD_ESA_SaISD_EE6_S_keyEPKSt18_Rb_tree_node_base, symObjAddr: 0x1A18, symBinAddr: 0x100004714, symSize: 0x1C }
  - { offsetInCU: 0x208F1, offset: 0x208F1, size: 0x8, addend: 0x0, symName: __ZNSt8_Rb_treeINSt7__cxx1112basic_stringIcSt11char_traitsIcESaIcEEESt4pairIKS5_St3setIS5_St4lessIS5_ESaIS5_EEESt10_Select1stISD_ESA_SaISD_EE12_M_rightmostEv, symObjAddr: 0x1A00, symBinAddr: 0x1000046FC, symSize: 0x18 }
  - { offsetInCU: 0x2091B, offset: 0x2091B, size: 0x8, addend: 0x0, symName: __ZNKSt8_Rb_treeINSt7__cxx1112basic_stringIcSt11char_traitsIcESaIcEEESt4pairIKS5_St3setIS5_St4lessIS5_ESaIS5_EEESt10_Select1stISD_ESA_SaISD_EE4sizeEv, symObjAddr: 0x19E8, symBinAddr: 0x1000046E4, symSize: 0x18 }
  - { offsetInCU: 0x20945, offset: 0x20945, size: 0x8, addend: 0x0, symName: __ZNKSt23_Rb_tree_const_iteratorISt4pairIKNSt7__cxx1112basic_stringIcSt11char_traitsIcESaIcEEESt3setIS6_St4lessIS6_ESaIS6_EEEE13_M_const_castEv, symObjAddr: 0x19C0, symBinAddr: 0x1000046BC, symSize: 0x28 }
  - { offsetInCU: 0x2096F, offset: 0x2096F, size: 0x8, addend: 0x0, symName: __ZNSt8_Rb_treeINSt7__cxx1112basic_stringIcSt11char_traitsIcESaIcEEESt4pairIKS5_St3setIS5_St4lessIS5_ESaIS5_EEESt10_Select1stISD_ESA_SaISD_EE14_M_create_nodeIJRKSt21piecewise_construct_tSt5tupleIJRS7_EESM_IJEEEEEPSt13_Rb_tree_nodeISD_EDpOT_, symObjAddr: 0x1950, symBinAddr: 0x10000464C, symSize: 0x70 }
  - { offsetInCU: 0x20A5C, offset: 0x20A5C, size: 0x8, addend: 0x0, symName: __ZNSt10_Head_baseILm0ERKNSt7__cxx1112basic_stringIcSt11char_traitsIcESaIcEEELb0EEC2ES7_, symObjAddr: 0x192C, symBinAddr: 0x100004628, symSize: 0x24 }
  - { offsetInCU: 0x20A37, offset: 0x20A37, size: 0x8, addend: 0x0, symName: __ZN9__gnu_cxx16__aligned_membufISt4pairIKNSt7__cxx1112basic_stringIcSt11char_traitsIcESaIcEEESt3setIS7_St4lessIS7_ESaIS7_EEEE6_M_ptrEv, symObjAddr: 0x1910, symBinAddr: 0x10000460C, symSize: 0x1C }
  - { offsetInCU: 0x20A61, offset: 0x20A61, size: 0x8, addend: 0x0, symName: __ZNSt8_Rb_treeINSt7__cxx1112basic_stringIcSt11char_traitsIcESaIcEEESt4pairIKS5_St3setIS5_St4lessIS5_ESaIS5_EEESt10_Select1stISD_ESA_SaISD_EE14_M_lower_boundEPSt13_Rb_tree_nodeISD_EPSt18_Rb_tree_node_baseRS7_, symObjAddr: 0x1874, symBinAddr: 0x100004570, symSize: 0x9C }
  - { offsetInCU: 0x20ABE, offset: 0x20ABE, size: 0x8, addend: 0x0, symName: __ZNSt8_Rb_treeINSt7__cxx1112basic_stringIcSt11char_traitsIcESaIcEEESt4pairIKS5_St3setIS5_St4lessIS5_ESaIS5_EEESt10_Select1stISD_ESA_SaISD_EE6_M_endEv, symObjAddr: 0x185C, symBinAddr: 0x100004558, symSize: 0x18 }
  - { offsetInCU: 0x20AE8, offset: 0x20AE8, size: 0x8, addend: 0x0, symName: __ZNSt8_Rb_treeINSt7__cxx1112basic_stringIcSt11char_traitsIcESaIcEEES5_St9_IdentityIS5_ESt4lessIS5_ESaIS5_EE11_M_put_nodeEPSt13_Rb_tree_nodeIS5_E, symObjAddr: 0x1810, symBinAddr: 0x10000450C, symSize: 0x4C }
  - { offsetInCU: 0x20B59, offset: 0x20B59, size: 0x8, addend: 0x0, symName: __ZNSt8_Rb_treeINSt7__cxx1112basic_stringIcSt11char_traitsIcESaIcEEES5_St9_IdentityIS5_ESt4lessIS5_ESaIS5_EE15_M_destroy_nodeEPSt13_Rb_tree_nodeIS5_E, symObjAddr: 0x17B0, symBinAddr: 0x1000044AC, symSize: 0x60 }
  - { offsetInCU: 0x20BEE, offset: 0x20BEE, size: 0x8, addend: 0x0, symName: __ZNSt8_Rb_treeINSt7__cxx1112basic_stringIcSt11char_traitsIcESaIcEEESt4pairIKS5_St3setIS5_St4lessIS5_ESaIS5_EEESt10_Select1stISD_ESA_SaISD_EE11_M_put_nodeEPSt13_Rb_tree_nodeISD_E, symObjAddr: 0x1764, symBinAddr: 0x100004460, symSize: 0x4C }
  - { offsetInCU: 0x20C5F, offset: 0x20C5F, size: 0x8, addend: 0x0, symName: __ZNSt8_Rb_treeINSt7__cxx1112basic_stringIcSt11char_traitsIcESaIcEEESt4pairIKS5_St3setIS5_St4lessIS5_ESaIS5_EEESt10_Select1stISD_ESA_SaISD_EE15_M_destroy_nodeEPSt13_Rb_tree_nodeISD_E, symObjAddr: 0x1704, symBinAddr: 0x100004400, symSize: 0x60 }
  - { offsetInCU: 0x20CF4, offset: 0x20CF4, size: 0x8, addend: 0x0, symName: __ZNK9__gnu_cxx16__aligned_membufINSt7__cxx1112basic_stringIcSt11char_traitsIcESaIcEEEE6_M_ptrEv, symObjAddr: 0x16E8, symBinAddr: 0x1000043E4, symSize: 0x1C }
  - { offsetInCU: 0x20DB2, offset: 0x20DB2, size: 0x8, addend: 0x0, symName: __ZNSt23_Rb_tree_const_iteratorINSt7__cxx1112basic_stringIcSt11char_traitsIcESaIcEEEEC1EPKSt18_Rb_tree_node_base, symObjAddr: 0x16C4, symBinAddr: 0x1000043C0, symSize: 0x24 }
  - { offsetInCU: 0x20E0D, offset: 0x20E0D, size: 0x8, addend: 0x0, symName: __ZNSt23_Rb_tree_const_iteratorINSt7__cxx1112basic_stringIcSt11char_traitsIcESaIcEEEEC1ERKSt17_Rb_tree_iteratorIS5_E, symObjAddr: 0x169C, symBinAddr: 0x100004398, symSize: 0x28 }
  - { offsetInCU: 0x20DCF, offset: 0x20DCF, size: 0x8, addend: 0x0, symName: __ZSt7forwardIRbEOT_RNSt16remove_referenceIS1_E4typeE, symObjAddr: 0x1688, symBinAddr: 0x100004384, symSize: 0x14 }
  - { offsetInCU: 0x20E08, offset: 0x20E08, size: 0x8, addend: 0x0, symName: __ZSt7forwardIRSt17_Rb_tree_iteratorINSt7__cxx1112basic_stringIcSt11char_traitsIcESaIcEEEEEOT_RNSt16remove_referenceIS9_E4typeE, symObjAddr: 0x1674, symBinAddr: 0x100004370, symSize: 0x14 }
  - { offsetInCU: 0x20ECB, offset: 0x20ECB, size: 0x8, addend: 0x0, symName: __ZNSt17_Rb_tree_iteratorINSt7__cxx1112basic_stringIcSt11char_traitsIcESaIcEEEEC1EPSt18_Rb_tree_node_base, symObjAddr: 0x1650, symBinAddr: 0x10000434C, symSize: 0x24 }
  - { offsetInCU: 0x20F46, offset: 0x20F46, size: 0x8, addend: 0x0, symName: __ZNSt4pairISt17_Rb_tree_iteratorINSt7__cxx1112basic_stringIcSt11char_traitsIcESaIcEEEEbEC1IS7_bLb1EEEOT_OT0_, symObjAddr: 0x1604, symBinAddr: 0x100004300, symSize: 0x4C }
  - { offsetInCU: 0x20F2E, offset: 0x20F2E, size: 0x8, addend: 0x0, symName: __ZNSt8_Rb_treeINSt7__cxx1112basic_stringIcSt11char_traitsIcESaIcEEES5_St9_IdentityIS5_ESt4lessIS5_ESaIS5_EE10_M_insert_IRKS5_NSB_11_Alloc_nodeEEESt17_Rb_tree_iteratorIS5_EPSt18_Rb_tree_node_baseSJ_OT_RT0_, symObjAddr: 0x1514, symBinAddr: 0x100004210, symSize: 0xF0 }
  - { offsetInCU: 0x20FD4, offset: 0x20FD4, size: 0x8, addend: 0x0, symName: __ZSt7forwardIRKNSt7__cxx1112basic_stringIcSt11char_traitsIcESaIcEEEEOT_RNSt16remove_referenceIS8_E4typeE, symObjAddr: 0x1500, symBinAddr: 0x1000041FC, symSize: 0x14 }
  - { offsetInCU: 0x210AE, offset: 0x210AE, size: 0x8, addend: 0x0, symName: __ZNSt8_Rb_treeINSt7__cxx1112basic_stringIcSt11char_traitsIcESaIcEEES5_St9_IdentityIS5_ESt4lessIS5_ESaIS5_EE11_Alloc_nodeC1ERSB_, symObjAddr: 0x14DC, symBinAddr: 0x1000041D8, symSize: 0x24 }
  - { offsetInCU: 0x21061, offset: 0x21061, size: 0x8, addend: 0x0, symName: __ZNKSt9_IdentityINSt7__cxx1112basic_stringIcSt11char_traitsIcESaIcEEEEclERKS5_, symObjAddr: 0x14C4, symBinAddr: 0x1000041C0, symSize: 0x18 }
  - { offsetInCU: 0x2109C, offset: 0x2109C, size: 0x8, addend: 0x0, symName: __ZNSt8_Rb_treeINSt7__cxx1112basic_stringIcSt11char_traitsIcESaIcEEES5_St9_IdentityIS5_ESt4lessIS5_ESaIS5_EE24_M_get_insert_unique_posERKS5_, symObjAddr: 0x136C, symBinAddr: 0x100004068, symSize: 0x158 }
  - { offsetInCU: 0x211D5, offset: 0x211D5, size: 0x8, addend: 0x0, symName: __ZNSt17_Rb_tree_iteratorISt4pairIKNSt7__cxx1112basic_stringIcSt11char_traitsIcESaIcEEESt3setIS6_St4lessIS6_ESaIS6_EEEEC1EPSt18_Rb_tree_node_base, symObjAddr: 0x1348, symBinAddr: 0x100004044, symSize: 0x24 }
  - { offsetInCU: 0x21177, offset: 0x21177, size: 0x8, addend: 0x0, symName: __ZNSt8_Rb_treeINSt7__cxx1112basic_stringIcSt11char_traitsIcESaIcEEESt4pairIKS5_St3setIS5_St4lessIS5_ESaIS5_EEESt10_Select1stISD_ESA_SaISD_EE10_Auto_node9_M_insertES6_IPSt18_Rb_tree_node_baseSK_E, symObjAddr: 0x12FC, symBinAddr: 0x100003FF8, symSize: 0x4C }
  - { offsetInCU: 0x211C3, offset: 0x211C3, size: 0x8, addend: 0x0, symName: __ZNKSt8_Rb_treeINSt7__cxx1112basic_stringIcSt11char_traitsIcESaIcEEESt4pairIKS5_St3setIS5_St4lessIS5_ESaIS5_EEESt10_Select1stISD_ESA_SaISD_EE10_Auto_node6_M_keyEv, symObjAddr: 0x12DC, symBinAddr: 0x100003FD8, symSize: 0x20 }
  - { offsetInCU: 0x211ED, offset: 0x211ED, size: 0x8, addend: 0x0, symName: __ZNSt8_Rb_treeINSt7__cxx1112basic_stringIcSt11char_traitsIcESaIcEEESt4pairIKS5_St3setIS5_St4lessIS5_ESaIS5_EEESt10_Select1stISD_ESA_SaISD_EE29_M_get_insert_hint_unique_posESt23_Rb_tree_const_iteratorISD_ERS7_, symObjAddr: 0xFB8, symBinAddr: 0x100003CB4, symSize: 0x324 }
  - { offsetInCU: 0x21355, offset: 0x21355, size: 0x8, addend: 0x0, symName: __ZNSt8_Rb_treeINSt7__cxx1112basic_stringIcSt11char_traitsIcESaIcEEESt4pairIKS5_St3setIS5_St4lessIS5_ESaIS5_EEESt10_Select1stISD_ESA_SaISD_EE10_Auto_nodeD1Ev, symObjAddr: 0xF74, symBinAddr: 0x100003C70, symSize: 0x44 }
  - { offsetInCU: 0x2140C, offset: 0x2140C, size: 0x8, addend: 0x0, symName: __ZNSt8_Rb_treeINSt7__cxx1112basic_stringIcSt11char_traitsIcESaIcEEESt4pairIKS5_St3setIS5_St4lessIS5_ESaIS5_EEESt10_Select1stISD_ESA_SaISD_EE10_Auto_nodeC1IJRKSt21piecewise_construct_tSt5tupleIJRS7_EESN_IJEEEEERSH_DpOT_, symObjAddr: 0xEF8, symBinAddr: 0x100003BF4, symSize: 0x7C }
  - { offsetInCU: 0x2139E, offset: 0x2139E, size: 0x8, addend: 0x0, symName: __ZSt7forwardISt5tupleIJEEEOT_RNSt16remove_referenceIS2_E4typeE, symObjAddr: 0xEE4, symBinAddr: 0x100003BE0, symSize: 0x14 }
  - { offsetInCU: 0x213D7, offset: 0x213D7, size: 0x8, addend: 0x0, symName: __ZSt7forwardISt5tupleIJRKNSt7__cxx1112basic_stringIcSt11char_traitsIcESaIcEEEEEEOT_RNSt16remove_referenceISA_E4typeE, symObjAddr: 0xED0, symBinAddr: 0x100003BCC, symSize: 0x14 }
  - { offsetInCU: 0x21410, offset: 0x21410, size: 0x8, addend: 0x0, symName: __ZSt7forwardIRKSt21piecewise_construct_tEOT_RNSt16remove_referenceIS3_E4typeE, symObjAddr: 0xEBC, symBinAddr: 0x100003BB8, symSize: 0x14 }
  - { offsetInCU: 0x214C1, offset: 0x214C1, size: 0x8, addend: 0x0, symName: __ZNSt11_Tuple_implILm0EJRKNSt7__cxx1112basic_stringIcSt11char_traitsIcESaIcEEEEEC2ES7_, symObjAddr: 0xE94, symBinAddr: 0x100003B90, symSize: 0x28 }
  - { offsetInCU: 0x21499, offset: 0x21499, size: 0x8, addend: 0x0, symName: __ZStltIcSt11char_traitsIcESaIcEEbRKNSt7__cxx1112basic_stringIT_T0_T1_EESA_, symObjAddr: 0xE68, symBinAddr: 0x100003B64, symSize: 0x2C }
  - { offsetInCU: 0x214F3, offset: 0x214F3, size: 0x8, addend: 0x0, symName: __ZNSt13_Rb_tree_nodeISt4pairIKNSt7__cxx1112basic_stringIcSt11char_traitsIcESaIcEEESt3setIS6_St4lessIS6_ESaIS6_EEEE9_M_valptrEv, symObjAddr: 0xE48, symBinAddr: 0x100003B44, symSize: 0x20 }
  - { offsetInCU: 0x2151D, offset: 0x2151D, size: 0x8, addend: 0x0, symName: __ZNKSt8_Rb_treeINSt7__cxx1112basic_stringIcSt11char_traitsIcESaIcEEESt4pairIKS5_St3setIS5_St4lessIS5_ESaIS5_EEESt10_Select1stISD_ESA_SaISD_EE8key_compEv, symObjAddr: 0xE30, symBinAddr: 0x100003B2C, symSize: 0x18 }
  - { offsetInCU: 0x21547, offset: 0x21547, size: 0x8, addend: 0x0, symName: __ZNSt8_Rb_treeINSt7__cxx1112basic_stringIcSt11char_traitsIcESaIcEEESt4pairIKS5_St3setIS5_St4lessIS5_ESaIS5_EEESt10_Select1stISD_ESA_SaISD_EE3endEv, symObjAddr: 0xE08, symBinAddr: 0x100003B04, symSize: 0x28 }
  - { offsetInCU: 0x21571, offset: 0x21571, size: 0x8, addend: 0x0, symName: __ZNSt8_Rb_treeINSt7__cxx1112basic_stringIcSt11char_traitsIcESaIcEEESt4pairIKS5_St3setIS5_St4lessIS5_ESaIS5_EEESt10_Select1stISD_ESA_SaISD_EE11lower_boundERS7_, symObjAddr: 0xDC0, symBinAddr: 0x100003ABC, symSize: 0x48 }
  - { offsetInCU: 0x215AC, offset: 0x215AC, size: 0x8, addend: 0x0, symName: __ZNKSt8_Rb_treeINSt7__cxx1112basic_stringIcSt11char_traitsIcESaIcEEES5_St9_IdentityIS5_ESt4lessIS5_ESaIS5_EE9_M_mbeginEv, symObjAddr: 0xDA8, symBinAddr: 0x100003AA4, symSize: 0x18 }
  - { offsetInCU: 0x215D6, offset: 0x215D6, size: 0x8, addend: 0x0, symName: __ZNSt8_Rb_treeINSt7__cxx1112basic_stringIcSt11char_traitsIcESaIcEEES5_St9_IdentityIS5_ESt4lessIS5_ESaIS5_EE12_M_drop_nodeEPSt13_Rb_tree_nodeIS5_E, symObjAddr: 0xD74, symBinAddr: 0x100003A70, symSize: 0x34 }
  - { offsetInCU: 0x2160D, offset: 0x2160D, size: 0x8, addend: 0x0, symName: __ZNSt8_Rb_treeINSt7__cxx1112basic_stringIcSt11char_traitsIcESaIcEEES5_St9_IdentityIS5_ESt4lessIS5_ESaIS5_EE7_S_leftEPSt18_Rb_tree_node_base, symObjAddr: 0xD5C, symBinAddr: 0x100003A58, symSize: 0x18 }
  - { offsetInCU: 0x21637, offset: 0x21637, size: 0x8, addend: 0x0, symName: __ZNSt8_Rb_treeINSt7__cxx1112basic_stringIcSt11char_traitsIcESaIcEEES5_St9_IdentityIS5_ESt4lessIS5_ESaIS5_EE8_S_rightEPSt18_Rb_tree_node_base, symObjAddr: 0xD44, symBinAddr: 0x100003A40, symSize: 0x18 }
  - { offsetInCU: 0x2167B, offset: 0x2167B, size: 0x8, addend: 0x0, symName: __ZNKSt8_Rb_treeINSt7__cxx1112basic_stringIcSt11char_traitsIcESaIcEEESt4pairIKS5_St3setIS5_St4lessIS5_ESaIS5_EEESt10_Select1stISD_ESA_SaISD_EE9_M_mbeginEv, symObjAddr: 0xD2C, symBinAddr: 0x100003A28, symSize: 0x18 }
  - { offsetInCU: 0x216A5, offset: 0x216A5, size: 0x8, addend: 0x0, symName: __ZNSt8_Rb_treeINSt7__cxx1112basic_stringIcSt11char_traitsIcESaIcEEESt4pairIKS5_St3setIS5_St4lessIS5_ESaIS5_EEESt10_Select1stISD_ESA_SaISD_EE12_M_drop_nodeEPSt13_Rb_tree_nodeISD_E, symObjAddr: 0xCF8, symBinAddr: 0x1000039F4, symSize: 0x34 }
  - { offsetInCU: 0x216DC, offset: 0x216DC, size: 0x8, addend: 0x0, symName: __ZNSt8_Rb_treeINSt7__cxx1112basic_stringIcSt11char_traitsIcESaIcEEESt4pairIKS5_St3setIS5_St4lessIS5_ESaIS5_EEESt10_Select1stISD_ESA_SaISD_EE7_S_leftEPSt18_Rb_tree_node_base, symObjAddr: 0xCE0, symBinAddr: 0x1000039DC, symSize: 0x18 }
  - { offsetInCU: 0x21706, offset: 0x21706, size: 0x8, addend: 0x0, symName: __ZNSt8_Rb_treeINSt7__cxx1112basic_stringIcSt11char_traitsIcESaIcEEESt4pairIKS5_St3setIS5_St4lessIS5_ESaIS5_EEESt10_Select1stISD_ESA_SaISD_EE8_S_rightEPSt18_Rb_tree_node_base, symObjAddr: 0xCC8, symBinAddr: 0x1000039C4, symSize: 0x18 }
  - { offsetInCU: 0x2174A, offset: 0x2174A, size: 0x8, addend: 0x0, symName: __ZNKSt13_Rb_tree_nodeINSt7__cxx1112basic_stringIcSt11char_traitsIcESaIcEEEE9_M_valptrEv, symObjAddr: 0xCA8, symBinAddr: 0x1000039A4, symSize: 0x20 }
  - { offsetInCU: 0x21774, offset: 0x21774, size: 0x8, addend: 0x0, symName: __ZNKSt8_Rb_treeINSt7__cxx1112basic_stringIcSt11char_traitsIcESaIcEEES5_St9_IdentityIS5_ESt4lessIS5_ESaIS5_EE3endEv, symObjAddr: 0xC80, symBinAddr: 0x10000397C, symSize: 0x28 }
  - { offsetInCU: 0x2179E, offset: 0x2179E, size: 0x8, addend: 0x0, symName: __ZNKSt8_Rb_treeINSt7__cxx1112basic_stringIcSt11char_traitsIcESaIcEEES5_St9_IdentityIS5_ESt4lessIS5_ESaIS5_EE5beginEv, symObjAddr: 0xC58, symBinAddr: 0x100003954, symSize: 0x28 }
  - { offsetInCU: 0x21898, offset: 0x21898, size: 0x8, addend: 0x0, symName: __ZNSt4pairISt23_Rb_tree_const_iteratorINSt7__cxx1112basic_stringIcSt11char_traitsIcESaIcEEEEbEC1IRSt17_Rb_tree_iteratorIS6_ERbLb1EEEOT_OT0_, symObjAddr: 0xC04, symBinAddr: 0x100003900, symSize: 0x54 }
  - { offsetInCU: 0x2185A, offset: 0x2185A, size: 0x8, addend: 0x0, symName: __ZNSt8_Rb_treeINSt7__cxx1112basic_stringIcSt11char_traitsIcESaIcEEES5_St9_IdentityIS5_ESt4lessIS5_ESaIS5_EE16_M_insert_uniqueIRKS5_EESt4pairISt17_Rb_tree_iteratorIS5_EbEOT_, symObjAddr: 0xB38, symBinAddr: 0x100003834, symSize: 0xCC }
  - { offsetInCU: 0x218D7, offset: 0x218D7, size: 0x8, addend: 0x0, symName: __ZNSt8_Rb_treeINSt7__cxx1112basic_stringIcSt11char_traitsIcESaIcEEESt4pairIKS5_St3setIS5_St4lessIS5_ESaIS5_EEESt10_Select1stISD_ESA_SaISD_EE22_M_emplace_hint_uniqueIJRKSt21piecewise_construct_tSt5tupleIJRS7_EESM_IJEEEEESt17_Rb_tree_iteratorISD_ESt23_Rb_tree_const_iteratorISD_EDpOT_, symObjAddr: 0xA60, symBinAddr: 0x10000375C, symSize: 0xD8 }
  - { offsetInCU: 0x21A2E, offset: 0x21A2E, size: 0x8, addend: 0x0, symName: __ZNSt23_Rb_tree_const_iteratorISt4pairIKNSt7__cxx1112basic_stringIcSt11char_traitsIcESaIcEEESt3setIS6_St4lessIS6_ESaIS6_EEEEC1ERKSt17_Rb_tree_iteratorISD_E, symObjAddr: 0xA38, symBinAddr: 0x100003734, symSize: 0x28 }
  - { offsetInCU: 0x21A49, offset: 0x21A49, size: 0x8, addend: 0x0, symName: __ZNSt5tupleIJRKNSt7__cxx1112basic_stringIcSt11char_traitsIcESaIcEEEEEC1ILb1ELb1EEES7_, symObjAddr: 0xA10, symBinAddr: 0x10000370C, symSize: 0x28 }
  - { offsetInCU: 0x21A30, offset: 0x21A30, size: 0x8, addend: 0x0, symName: __ZNKSt4lessINSt7__cxx1112basic_stringIcSt11char_traitsIcESaIcEEEEclERKS5_S8_, symObjAddr: 0x9E8, symBinAddr: 0x1000036E4, symSize: 0x28 }
  - { offsetInCU: 0x21A7C, offset: 0x21A7C, size: 0x8, addend: 0x0, symName: __ZNKSt17_Rb_tree_iteratorISt4pairIKNSt7__cxx1112basic_stringIcSt11char_traitsIcESaIcEEESt3setIS6_St4lessIS6_ESaIS6_EEEEdeEv, symObjAddr: 0x9C8, symBinAddr: 0x1000036C4, symSize: 0x20 }
  - { offsetInCU: 0x21AA6, offset: 0x21AA6, size: 0x8, addend: 0x0, symName: __ZNKSt3mapINSt7__cxx1112basic_stringIcSt11char_traitsIcESaIcEEESt3setIS5_St4lessIS5_ESaIS5_EES8_SaISt4pairIKS5_SA_EEE8key_compEv, symObjAddr: 0x99C, symBinAddr: 0x100003698, symSize: 0x2C }
  - { offsetInCU: 0x21AD3, offset: 0x21AD3, size: 0x8, addend: 0x0, symName: __ZSteqRKSt17_Rb_tree_iteratorISt4pairIKNSt7__cxx1112basic_stringIcSt11char_traitsIcESaIcEEESt3setIS6_St4lessIS6_ESaIS6_EEEESG_, symObjAddr: 0x96C, symBinAddr: 0x100003668, symSize: 0x30 }
  - { offsetInCU: 0x21B12, offset: 0x21B12, size: 0x8, addend: 0x0, symName: __ZNSt3mapINSt7__cxx1112basic_stringIcSt11char_traitsIcESaIcEEESt3setIS5_St4lessIS5_ESaIS5_EES8_SaISt4pairIKS5_SA_EEE3endEv, symObjAddr: 0x950, symBinAddr: 0x10000364C, symSize: 0x1C }
  - { offsetInCU: 0x21B3C, offset: 0x21B3C, size: 0x8, addend: 0x0, symName: __ZNSt3mapINSt7__cxx1112basic_stringIcSt11char_traitsIcESaIcEEESt3setIS5_St4lessIS5_ESaIS5_EES8_SaISt4pairIKS5_SA_EEE11lower_boundERSC_, symObjAddr: 0x92C, symBinAddr: 0x100003628, symSize: 0x24 }
  - { offsetInCU: 0x21B77, offset: 0x21B77, size: 0x8, addend: 0x0, symName: __ZNSt8_Rb_treeINSt7__cxx1112basic_stringIcSt11char_traitsIcESaIcEEES5_St9_IdentityIS5_ESt4lessIS5_ESaIS5_EE8_M_beginEv, symObjAddr: 0x910, symBinAddr: 0x10000360C, symSize: 0x1C }
  - { offsetInCU: 0x21BA1, offset: 0x21BA1, size: 0x8, addend: 0x0, symName: __ZNSt8_Rb_treeINSt7__cxx1112basic_stringIcSt11char_traitsIcESaIcEEES5_St9_IdentityIS5_ESt4lessIS5_ESaIS5_EE8_M_eraseEPSt13_Rb_tree_nodeIS5_E, symObjAddr: 0x8AC, symBinAddr: 0x1000035A8, symSize: 0x64 }
  - { offsetInCU: 0x21C84, offset: 0x21C84, size: 0x8, addend: 0x0, symName: __ZNSt15__new_allocatorISt13_Rb_tree_nodeINSt7__cxx1112basic_stringIcSt11char_traitsIcESaIcEEEEED2Ev, symObjAddr: 0x898, symBinAddr: 0x100003594, symSize: 0x14 }
  - { offsetInCU: 0x21C60, offset: 0x21C60, size: 0x8, addend: 0x0, symName: __ZNSt8_Rb_treeINSt7__cxx1112basic_stringIcSt11char_traitsIcESaIcEEESt4pairIKS5_St3setIS5_St4lessIS5_ESaIS5_EEESt10_Select1stISD_ESA_SaISD_EE8_M_beginEv, symObjAddr: 0x87C, symBinAddr: 0x100003578, symSize: 0x1C }
  - { offsetInCU: 0x21C8A, offset: 0x21C8A, size: 0x8, addend: 0x0, symName: __ZNSt8_Rb_treeINSt7__cxx1112basic_stringIcSt11char_traitsIcESaIcEEESt4pairIKS5_St3setIS5_St4lessIS5_ESaIS5_EEESt10_Select1stISD_ESA_SaISD_EE8_M_eraseEPSt13_Rb_tree_nodeISD_E, symObjAddr: 0x818, symBinAddr: 0x100003514, symSize: 0x64 }
  - { offsetInCU: 0x21D95, offset: 0x21D95, size: 0x8, addend: 0x0, symName: __ZNSt15__new_allocatorISt13_Rb_tree_nodeISt4pairIKNSt7__cxx1112basic_stringIcSt11char_traitsIcESaIcEEESt3setIS7_St4lessIS7_ESaIS7_EEEEED2Ev, symObjAddr: 0x804, symBinAddr: 0x100003500, symSize: 0x14 }
  - { offsetInCU: 0x21DA8, offset: 0x21DA8, size: 0x8, addend: 0x0, symName: __ZNSt20_Rb_tree_key_compareISt4lessINSt7__cxx1112basic_stringIcSt11char_traitsIcESaIcEEEEEC2Ev, symObjAddr: 0x7F0, symBinAddr: 0x1000034EC, symSize: 0x14 }
  - { offsetInCU: 0x21D8C, offset: 0x21D8C, size: 0x8, addend: 0x0, symName: __ZSt7forwardIbEOT_RNSt16remove_referenceIS0_E4typeE, symObjAddr: 0x7DC, symBinAddr: 0x1000034D8, symSize: 0x14 }
  - { offsetInCU: 0x21DC2, offset: 0x21DC2, size: 0x8, addend: 0x0, symName: __ZNKSt23_Rb_tree_const_iteratorINSt7__cxx1112basic_stringIcSt11char_traitsIcESaIcEEEEdeEv, symObjAddr: 0x7BC, symBinAddr: 0x1000034B8, symSize: 0x20 }
  - { offsetInCU: 0x21DEC, offset: 0x21DEC, size: 0x8, addend: 0x0, symName: __ZNSt23_Rb_tree_const_iteratorINSt7__cxx1112basic_stringIcSt11char_traitsIcESaIcEEEEppEv, symObjAddr: 0x78C, symBinAddr: 0x100003488, symSize: 0x30 }
  - { offsetInCU: 0x21E19, offset: 0x21E19, size: 0x8, addend: 0x0, symName: __ZStneRKSt23_Rb_tree_const_iteratorINSt7__cxx1112basic_stringIcSt11char_traitsIcESaIcEEEES8_, symObjAddr: 0x75C, symBinAddr: 0x100003458, symSize: 0x30 }
  - { offsetInCU: 0x21E58, offset: 0x21E58, size: 0x8, addend: 0x0, symName: __ZNKSt3setINSt7__cxx1112basic_stringIcSt11char_traitsIcESaIcEEESt4lessIS5_ESaIS5_EE3endEv, symObjAddr: 0x740, symBinAddr: 0x10000343C, symSize: 0x1C }
  - { offsetInCU: 0x21E82, offset: 0x21E82, size: 0x8, addend: 0x0, symName: __ZNKSt3setINSt7__cxx1112basic_stringIcSt11char_traitsIcESaIcEEESt4lessIS5_ESaIS5_EE5beginEv, symObjAddr: 0x724, symBinAddr: 0x100003420, symSize: 0x1C }
  - { offsetInCU: 0x21EAC, offset: 0x21EAC, size: 0x8, addend: 0x0, symName: __ZNSt3setINSt7__cxx1112basic_stringIcSt11char_traitsIcESaIcEEESt4lessIS5_ESaIS5_EE6insertERKS5_, symObjAddr: 0x6E4, symBinAddr: 0x1000033E0, symSize: 0x40 }
  - { offsetInCU: 0x21EF8, offset: 0x21EF8, size: 0x8, addend: 0x0, symName: __ZNSt3mapINSt7__cxx1112basic_stringIcSt11char_traitsIcESaIcEEESt3setIS5_St4lessIS5_ESaIS5_EES8_SaISt4pairIKS5_SA_EEEixERSC_, symObjAddr: 0x5F8, symBinAddr: 0x1000032F4, symSize: 0xEC }
  - { offsetInCU: 0x21FD4, offset: 0x21FD4, size: 0x8, addend: 0x0, symName: __ZNSt8_Rb_treeINSt7__cxx1112basic_stringIcSt11char_traitsIcESaIcEEES5_St9_IdentityIS5_ESt4lessIS5_ESaIS5_EED1Ev, symObjAddr: 0x5C4, symBinAddr: 0x1000032C0, symSize: 0x34 }
  - { offsetInCU: 0x2204C, offset: 0x2204C, size: 0x8, addend: 0x0, symName: __ZNSt8_Rb_treeINSt7__cxx1112basic_stringIcSt11char_traitsIcESaIcEEES5_St9_IdentityIS5_ESt4lessIS5_ESaIS5_EE13_Rb_tree_implIS9_Lb1EEC1Ev, symObjAddr: 0x580, symBinAddr: 0x10000327C, symSize: 0x44 }
  - { offsetInCU: 0x220E6, offset: 0x220E6, size: 0x8, addend: 0x0, symName: __ZNSt8_Rb_treeINSt7__cxx1112basic_stringIcSt11char_traitsIcESaIcEEESt4pairIKS5_St3setIS5_St4lessIS5_ESaIS5_EEESt10_Select1stISD_ESA_SaISD_EED1Ev, symObjAddr: 0x54C, symBinAddr: 0x100003248, symSize: 0x34 }
  - { offsetInCU: 0x2215E, offset: 0x2215E, size: 0x8, addend: 0x0, symName: __ZNSt8_Rb_treeINSt7__cxx1112basic_stringIcSt11char_traitsIcESaIcEEESt4pairIKS5_St3setIS5_St4lessIS5_ESaIS5_EEESt10_Select1stISD_ESA_SaISD_EE13_Rb_tree_implISA_Lb1EEC1Ev, symObjAddr: 0x508, symBinAddr: 0x100003204, symSize: 0x44 }
  - { offsetInCU: 0x2212B, offset: 0x2212B, size: 0x8, addend: 0x0, symName: _main, symObjAddr: 0x16C, symBinAddr: 0x100002E68, symSize: 0x39C }
  - { offsetInCU: 0x222A9, offset: 0x222A9, size: 0x8, addend: 0x0, symName: __ZNSt3setINSt7__cxx1112basic_stringIcSt11char_traitsIcESaIcEEESt4lessIS5_ESaIS5_EEC1Ev, symObjAddr: 0x14C, symBinAddr: 0x100002E48, symSize: 0x20 }
  - { offsetInCU: 0x22302, offset: 0x22302, size: 0x8, addend: 0x0, symName: __ZNSt8_Rb_treeINSt7__cxx1112basic_stringIcSt11char_traitsIcESaIcEEES5_St9_IdentityIS5_ESt4lessIS5_ESaIS5_EEC1Ev, symObjAddr: 0x12C, symBinAddr: 0x100002E28, symSize: 0x20 }
  - { offsetInCU: 0x22368, offset: 0x22368, size: 0x8, addend: 0x0, symName: __ZNSt8_Rb_treeINSt7__cxx1112basic_stringIcSt11char_traitsIcESaIcEEES5_St9_IdentityIS5_ESt4lessIS5_ESaIS5_EE13_Rb_tree_implIS9_Lb1EED1Ev, symObjAddr: 0x100, symBinAddr: 0x100002DFC, symSize: 0x2C }
  - { offsetInCU: 0x223BD, offset: 0x223BD, size: 0x8, addend: 0x0, symName: __ZNSt3mapINSt7__cxx1112basic_stringIcSt11char_traitsIcESaIcEEESt3setIS5_St4lessIS5_ESaIS5_EES8_SaISt4pairIKS5_SA_EEEC1Ev, symObjAddr: 0xE0, symBinAddr: 0x100002DDC, symSize: 0x20 }
  - { offsetInCU: 0x22415, offset: 0x22415, size: 0x8, addend: 0x0, symName: __ZNSt8_Rb_treeINSt7__cxx1112basic_stringIcSt11char_traitsIcESaIcEEESt4pairIKS5_St3setIS5_St4lessIS5_ESaIS5_EEESt10_Select1stISD_ESA_SaISD_EEC1Ev, symObjAddr: 0xC0, symBinAddr: 0x100002DBC, symSize: 0x20 }
  - { offsetInCU: 0x2247B, offset: 0x2247B, size: 0x8, addend: 0x0, symName: __ZNSt8_Rb_treeINSt7__cxx1112basic_stringIcSt11char_traitsIcESaIcEEESt4pairIKS5_St3setIS5_St4lessIS5_ESaIS5_EEESt10_Select1stISD_ESA_SaISD_EE13_Rb_tree_implISA_Lb1EED1Ev, symObjAddr: 0x94, symBinAddr: 0x100002D90, symSize: 0x2C }
  - { offsetInCU: 0x22420, offset: 0x22420, size: 0x8, addend: 0x0, symName: __ZNSt15_Rb_tree_header8_M_resetEv, symObjAddr: 0x58, symBinAddr: 0x100002D54, symSize: 0x3C }
  - { offsetInCU: 0x2247B, offset: 0x2247B, size: 0x8, addend: 0x0, symName: __ZNSt15_Rb_tree_headerC2Ev, symObjAddr: 0x30, symBinAddr: 0x100002D2C, symSize: 0x28 }
  - { offsetInCU: 0x22493, offset: 0x22493, size: 0x8, addend: 0x0, symName: __ZdlPvS_, symObjAddr: 0x18, symBinAddr: 0x100002D14, symSize: 0x18 }
  - { offsetInCU: 0x224C8, offset: 0x224C8, size: 0x8, addend: 0x0, symName: __ZnwmPv, symObjAddr: 0x0, symBinAddr: 0x100002CFC, symSize: 0x18 }
...
