---
triple:          'arm64-apple-darwin'
binary-path:     '/Users/pai/code/CU Grader/output/WhoSingThisSong'
relocations:
  - { offsetInCU: 0x1D9E3, offset: 0x1D9E3, size: 0x8, addend: 0x0, symName: __ZStL8__ioinit, symObjAddr: 0x99710, symBinAddr: 0x10000C000, symSize: 0x0 }
  - { offsetInCU: 0x1DECB, offset: 0x1DECB, size: 0x8, addend: 0x0, symName: __Z3lstB5cxx11, symObjAddr: 0x99718, symBinAddr: 0x10000C008, symSize: 0x0 }
  - { offsetInCU: 0x1E351, offset: 0x1E351, size: 0x8, addend: 0x0, symName: __ZNSt3mapINSt7__cxx1112basic_stringIcSt11char_traitsIcESaIcEEESt6vectorIS5_SaIS5_EESt4lessIS5_ESaISt4pairIKS5_S8_EEED1Ev, symObjAddr: 0x2B54, symBinAddr: 0x100005320, symSize: 0x20 }
  - { offsetInCU: 0x1E2FE, offset: 0x1E2FE, size: 0x8, addend: 0x0, symName: __ZNSt10_Head_baseILm0ERKNSt7__cxx1112basic_stringIcSt11char_traitsIcESaIcEEELb0EE7_M_headERS8_, symObjAddr: 0x2B3C, symBinAddr: 0x100005308, symSize: 0x18 }
  - { offsetInCU: 0x1E33D, offset: 0x1E33D, size: 0x8, addend: 0x0, symName: __ZNSt11_Tuple_implILm0EJRKNSt7__cxx1112basic_stringIcSt11char_traitsIcESaIcEEEEE7_M_headERS8_, symObjAddr: 0x2B20, symBinAddr: 0x1000052EC, symSize: 0x1C }
  - { offsetInCU: 0x1E3E9, offset: 0x1E3E9, size: 0x8, addend: 0x0, symName: __ZNSt12_Vector_baseINSt7__cxx1112basic_stringIcSt11char_traitsIcESaIcEEESaIS5_EE17_Vector_impl_dataC2Ev, symObjAddr: 0x2AF4, symBinAddr: 0x1000052C0, symSize: 0x2C }
  - { offsetInCU: 0x1E3BD, offset: 0x1E3BD, size: 0x8, addend: 0x0, symName: __ZSt12__get_helperILm0ERKNSt7__cxx1112basic_stringIcSt11char_traitsIcESaIcEEEJEERT0_RSt11_Tuple_implIXT_EJS8_DpT1_EE, symObjAddr: 0x2AD8, symBinAddr: 0x1000052A4, symSize: 0x1C }
  - { offsetInCU: 0x1E3FF, offset: 0x1E3FF, size: 0x8, addend: 0x0, symName: __ZSt8_DestroyINSt7__cxx1112basic_stringIcSt11char_traitsIcESaIcEEEEvPT_, symObjAddr: 0x2AB8, symBinAddr: 0x100005284, symSize: 0x20 }
  - { offsetInCU: 0x1E4AE, offset: 0x1E4AE, size: 0x8, addend: 0x0, symName: __ZNSt12_Vector_baseINSt7__cxx1112basic_stringIcSt11char_traitsIcESaIcEEESaIS5_EE12_Vector_implC1Ev, symObjAddr: 0x2A80, symBinAddr: 0x10000524C, symSize: 0x38 }
  - { offsetInCU: 0x1E4B7, offset: 0x1E4B7, size: 0x8, addend: 0x0, symName: __ZSt3getILm0EJRKNSt7__cxx1112basic_stringIcSt11char_traitsIcESaIcEEEEERNSt13tuple_elementIXT_ESt5tupleIJDpT0_EEE4typeERSC_, symObjAddr: 0x2A64, symBinAddr: 0x100005230, symSize: 0x1C }
  - { offsetInCU: 0x1E4F6, offset: 0x1E4F6, size: 0x8, addend: 0x0, symName: __ZNSt12_Destroy_auxILb0EE9__destroyIPNSt7__cxx1112basic_stringIcSt11char_traitsIcESaIcEEEEEvT_S9_, symObjAddr: 0x2A18, symBinAddr: 0x1000051E4, symSize: 0x4C }
  - { offsetInCU: 0x1E5AD, offset: 0x1E5AD, size: 0x8, addend: 0x0, symName: __ZNSt15__new_allocatorINSt7__cxx1112basic_stringIcSt11char_traitsIcESaIcEEEED2Ev, symObjAddr: 0x2A04, symBinAddr: 0x1000051D0, symSize: 0x14 }
  - { offsetInCU: 0x1E69E, offset: 0x1E69E, size: 0x8, addend: 0x0, symName: __ZNSt4pairIKNSt7__cxx1112basic_stringIcSt11char_traitsIcESaIcEEESt6vectorIS5_SaIS5_EEEC1IJRS6_EJLm0EEJEJEEERSt5tupleIJDpT_EERSD_IJDpT1_EESt12_Index_tupleIJXspT0_EEESM_IJXspT2_EEE, symObjAddr: 0x299C, symBinAddr: 0x100005168, symSize: 0x68 }
  - { offsetInCU: 0x1E6C6, offset: 0x1E6C6, size: 0x8, addend: 0x0, symName: __ZNSt6vectorINSt7__cxx1112basic_stringIcSt11char_traitsIcESaIcEEESaIS5_EEC1Ev, symObjAddr: 0x297C, symBinAddr: 0x100005148, symSize: 0x20 }
  - { offsetInCU: 0x1E70D, offset: 0x1E70D, size: 0x8, addend: 0x0, symName: __ZNSt12_Vector_baseINSt7__cxx1112basic_stringIcSt11char_traitsIcESaIcEEESaIS5_EEC2Ev, symObjAddr: 0x295C, symBinAddr: 0x100005128, symSize: 0x20 }
  - { offsetInCU: 0x1E6DE, offset: 0x1E6DE, size: 0x8, addend: 0x0, symName: __ZSt8_DestroyIPNSt7__cxx1112basic_stringIcSt11char_traitsIcESaIcEEEEvT_S7_, symObjAddr: 0x2934, symBinAddr: 0x100005100, symSize: 0x28 }
  - { offsetInCU: 0x1E724, offset: 0x1E724, size: 0x8, addend: 0x0, symName: __ZNSt12_Vector_baseINSt7__cxx1112basic_stringIcSt11char_traitsIcESaIcEEESaIS5_EE13_M_deallocateEPS5_m, symObjAddr: 0x28DC, symBinAddr: 0x1000050A8, symSize: 0x58 }
  - { offsetInCU: 0x1E836, offset: 0x1E836, size: 0x8, addend: 0x0, symName: __ZSt7forwardINSt7__cxx1112basic_stringIcSt11char_traitsIcESaIcEEEEOT_RNSt16remove_referenceIS6_E4typeE, symObjAddr: 0x28C8, symBinAddr: 0x100005094, symSize: 0x14 }
  - { offsetInCU: 0x1E94C, offset: 0x1E94C, size: 0x8, addend: 0x0, symName: __ZNSt4pairIKNSt7__cxx1112basic_stringIcSt11char_traitsIcESaIcEEESt6vectorIS5_SaIS5_EEEC1IJRS6_EJEEESt21piecewise_construct_tSt5tupleIJDpT_EESE_IJDpT0_EE, symObjAddr: 0x288C, symBinAddr: 0x100005058, symSize: 0x3C }
  - { offsetInCU: 0x1E985, offset: 0x1E985, size: 0x8, addend: 0x0, symName: __ZNSt11_Tuple_implILm0EJRKNSt7__cxx1112basic_stringIcSt11char_traitsIcESaIcEEEEEC2EOS8_, symObjAddr: 0x2864, symBinAddr: 0x100005030, symSize: 0x28 }
  - { offsetInCU: 0x1EA10, offset: 0x1EA10, size: 0x8, addend: 0x0, symName: __ZNSt12_Vector_baseINSt7__cxx1112basic_stringIcSt11char_traitsIcESaIcEEESaIS5_EED2Ev, symObjAddr: 0x2814, symBinAddr: 0x100004FE0, symSize: 0x50 }
  - { offsetInCU: 0x1EA6B, offset: 0x1EA6B, size: 0x8, addend: 0x0, symName: __ZNSt12_Vector_baseINSt7__cxx1112basic_stringIcSt11char_traitsIcESaIcEEESaIS5_EE12_Vector_implD1Ev, symObjAddr: 0x27E8, symBinAddr: 0x100004FB4, symSize: 0x2C }
  - { offsetInCU: 0x1EBA7, offset: 0x1EBA7, size: 0x8, addend: 0x0, symName: __ZNSt5tupleIJRKNSt7__cxx1112basic_stringIcSt11char_traitsIcESaIcEEEEEC1EOS8_, symObjAddr: 0x27C0, symBinAddr: 0x100004F8C, symSize: 0x28 }
  - { offsetInCU: 0x1EB8D, offset: 0x1EB8D, size: 0x8, addend: 0x0, symName: __ZNSt15__new_allocatorISt13_Rb_tree_nodeISt4pairIKNSt7__cxx1112basic_stringIcSt11char_traitsIcESaIcEEESt6vectorIS7_SaIS7_EEEEE8allocateEmPKv, symObjAddr: 0x271C, symBinAddr: 0x100004EE8, symSize: 0xA4 }
  - { offsetInCU: 0x1EC1E, offset: 0x1EC1E, size: 0x8, addend: 0x0, symName: __ZNK9__gnu_cxx16__aligned_membufISt4pairIKNSt7__cxx1112basic_stringIcSt11char_traitsIcESaIcEEESt6vectorIS7_SaIS7_EEEE7_M_addrEv, symObjAddr: 0x2708, symBinAddr: 0x100004ED4, symSize: 0x14 }
  - { offsetInCU: 0x1ECB5, offset: 0x1ECB5, size: 0x8, addend: 0x0, symName: __ZNSt6vectorINSt7__cxx1112basic_stringIcSt11char_traitsIcESaIcEEESaIS5_EED1Ev, symObjAddr: 0x26AC, symBinAddr: 0x100004E78, symSize: 0x5C }
  - { offsetInCU: 0x1ECC3, offset: 0x1ECC3, size: 0x8, addend: 0x0, symName: __ZSt19__relocate_object_aINSt7__cxx1112basic_stringIcSt11char_traitsIcESaIcEEES5_SaIS5_EEvPT_PT0_RT1_, symObjAddr: 0x25DC, symBinAddr: 0x100004DA8, symSize: 0xD0 }
  - { offsetInCU: 0x1EE17, offset: 0x1EE17, size: 0x8, addend: 0x0, symName: __ZSt7forwardIRPSt13_Rb_tree_nodeISt4pairIKNSt7__cxx1112basic_stringIcSt11char_traitsIcESaIcEEESt6vectorIS7_SaIS7_EEEEEOT_RNSt16remove_referenceISG_E4typeE, symObjAddr: 0x25C8, symBinAddr: 0x100004D94, symSize: 0x14 }
  - { offsetInCU: 0x1EEC9, offset: 0x1EEC9, size: 0x8, addend: 0x0, symName: __ZNK9__gnu_cxx16__aligned_membufISt4pairIKNSt7__cxx1112basic_stringIcSt11char_traitsIcESaIcEEESt6vectorIS7_SaIS7_EEEE6_M_ptrEv, symObjAddr: 0x25AC, symBinAddr: 0x100004D78, symSize: 0x1C }
  - { offsetInCU: 0x1EEF3, offset: 0x1EEF3, size: 0x8, addend: 0x0, symName: __ZNSt15__new_allocatorISt13_Rb_tree_nodeISt4pairIKNSt7__cxx1112basic_stringIcSt11char_traitsIcESaIcEEESt6vectorIS7_SaIS7_EEEEE10deallocateEPSD_m, symObjAddr: 0x2568, symBinAddr: 0x100004D34, symSize: 0x44 }
  - { offsetInCU: 0x1EFE8, offset: 0x1EFE8, size: 0x8, addend: 0x0, symName: __ZNSt4pairIKNSt7__cxx1112basic_stringIcSt11char_traitsIcESaIcEEESt6vectorIS5_SaIS5_EEED1Ev, symObjAddr: 0x253C, symBinAddr: 0x100004D08, symSize: 0x2C }
  - { offsetInCU: 0x1EFB3, offset: 0x1EFB3, size: 0x8, addend: 0x0, symName: __ZSt14__relocate_a_1IPNSt7__cxx1112basic_stringIcSt11char_traitsIcESaIcEEES6_SaIS5_EET0_T_S9_S8_RT1_, symObjAddr: 0x24B8, symBinAddr: 0x100004C84, symSize: 0x84 }
  - { offsetInCU: 0x1F03C, offset: 0x1F03C, size: 0x8, addend: 0x0, symName: __ZSt12__niter_baseIPNSt7__cxx1112basic_stringIcSt11char_traitsIcESaIcEEEET_S7_, symObjAddr: 0x24A4, symBinAddr: 0x100004C70, symSize: 0x14 }
  - { offsetInCU: 0x1F073, offset: 0x1F073, size: 0x8, addend: 0x0, symName: __ZNSt15__new_allocatorINSt7__cxx1112basic_stringIcSt11char_traitsIcESaIcEEEE8allocateEmPKv, symObjAddr: 0x2428, symBinAddr: 0x100004BF4, symSize: 0x7C }
  - { offsetInCU: 0x1F0FF, offset: 0x1F0FF, size: 0x8, addend: 0x0, symName: __ZNKSt12_Vector_baseINSt7__cxx1112basic_stringIcSt11char_traitsIcESaIcEEESaIS5_EE19_M_get_Tp_allocatorEv, symObjAddr: 0x2414, symBinAddr: 0x100004BE0, symSize: 0x14 }
  - { offsetInCU: 0x1F125, offset: 0x1F125, size: 0x8, addend: 0x0, symName: __ZNSt6vectorINSt7__cxx1112basic_stringIcSt11char_traitsIcESaIcEEESaIS5_EE11_S_max_sizeERKS6_, symObjAddr: 0x23C0, symBinAddr: 0x100004B8C, symSize: 0x54 }
  - { offsetInCU: 0x1F1E2, offset: 0x1F1E2, size: 0x8, addend: 0x0, symName: __ZSt7forwardIRPSt18_Rb_tree_node_baseEOT_RNSt16remove_referenceIS3_E4typeE, symObjAddr: 0x23AC, symBinAddr: 0x100004B78, symSize: 0x14 }
  - { offsetInCU: 0x1F2FA, offset: 0x1F2FA, size: 0x8, addend: 0x0, symName: __ZNSt4pairIPSt18_Rb_tree_node_baseS1_EC1IRPSt13_Rb_tree_nodeIS_IKNSt7__cxx1112basic_stringIcSt11char_traitsIcESaIcEEESt6vectorISA_SaISA_EEEERS1_Lb1EEEOT_OT0_, symObjAddr: 0x2364, symBinAddr: 0x100004B30, symSize: 0x48 }
  - { offsetInCU: 0x1F2AA, offset: 0x1F2AA, size: 0x8, addend: 0x0, symName: __ZNSt8_Rb_treeINSt7__cxx1112basic_stringIcSt11char_traitsIcESaIcEEESt4pairIKS5_St6vectorIS5_SaIS5_EEESt10_Select1stISB_ESt4lessIS5_ESaISB_EE5beginEv, symObjAddr: 0x233C, symBinAddr: 0x100004B08, symSize: 0x28 }
  - { offsetInCU: 0x1F2D4, offset: 0x1F2D4, size: 0x8, addend: 0x0, symName: __ZNSt8_Rb_treeINSt7__cxx1112basic_stringIcSt11char_traitsIcESaIcEEESt4pairIKS5_St6vectorIS5_SaIS5_EEESt10_Select1stISB_ESt4lessIS5_ESaISB_EE17_M_construct_nodeIJRKSt21piecewise_construct_tSt5tupleIJRS7_EESM_IJEEEEEvPSt13_Rb_tree_nodeISB_EDpOT_, symObjAddr: 0x21C0, symBinAddr: 0x10000498C, symSize: 0x17C }
  - { offsetInCU: 0x1F3D5, offset: 0x1F3D5, size: 0x8, addend: 0x0, symName: __ZNSt8_Rb_treeINSt7__cxx1112basic_stringIcSt11char_traitsIcESaIcEEESt4pairIKS5_St6vectorIS5_SaIS5_EEESt10_Select1stISB_ESt4lessIS5_ESaISB_EE11_M_get_nodeEv, symObjAddr: 0x2184, symBinAddr: 0x100004950, symSize: 0x3C }
  - { offsetInCU: 0x1F431, offset: 0x1F431, size: 0x8, addend: 0x0, symName: __ZN9__gnu_cxx16__aligned_membufISt4pairIKNSt7__cxx1112basic_stringIcSt11char_traitsIcESaIcEEESt6vectorIS7_SaIS7_EEEE7_M_addrEv, symObjAddr: 0x2170, symBinAddr: 0x10000493C, symSize: 0x14 }
  - { offsetInCU: 0x1F45A, offset: 0x1F45A, size: 0x8, addend: 0x0, symName: __ZNKSt10_Select1stISt4pairIKNSt7__cxx1112basic_stringIcSt11char_traitsIcESaIcEEESt6vectorIS6_SaIS6_EEEEclERKSB_, symObjAddr: 0x2158, symBinAddr: 0x100004924, symSize: 0x18 }
  - { offsetInCU: 0x1F495, offset: 0x1F495, size: 0x8, addend: 0x0, symName: __ZNKSt13_Rb_tree_nodeISt4pairIKNSt7__cxx1112basic_stringIcSt11char_traitsIcESaIcEEESt6vectorIS6_SaIS6_EEEE9_M_valptrEv, symObjAddr: 0x2138, symBinAddr: 0x100004904, symSize: 0x20 }
  - { offsetInCU: 0x1F51E, offset: 0x1F51E, size: 0x8, addend: 0x0, symName: __ZNSt8_Rb_treeINSt7__cxx1112basic_stringIcSt11char_traitsIcESaIcEEESt4pairIKS5_St6vectorIS5_SaIS5_EEESt10_Select1stISB_ESt4lessIS5_ESaISB_EE21_M_get_Node_allocatorEv, symObjAddr: 0x2124, symBinAddr: 0x1000048F0, symSize: 0x14 }
  - { offsetInCU: 0x1F544, offset: 0x1F544, size: 0x8, addend: 0x0, symName: __ZSt12__relocate_aIPNSt7__cxx1112basic_stringIcSt11char_traitsIcESaIcEEES6_SaIS5_EET0_T_S9_S8_RT1_, symObjAddr: 0x20C8, symBinAddr: 0x100004894, symSize: 0x5C }
  - { offsetInCU: 0x1F5C0, offset: 0x1F5C0, size: 0x8, addend: 0x0, symName: __ZNSt15__new_allocatorINSt7__cxx1112basic_stringIcSt11char_traitsIcESaIcEEEE10deallocateEPS5_m, symObjAddr: 0x2098, symBinAddr: 0x100004864, symSize: 0x30 }
  - { offsetInCU: 0x1F62E, offset: 0x1F62E, size: 0x8, addend: 0x0, symName: __ZNKSt6vectorINSt7__cxx1112basic_stringIcSt11char_traitsIcESaIcEEESaIS5_EE4sizeEv, symObjAddr: 0x2070, symBinAddr: 0x10000483C, symSize: 0x28 }
  - { offsetInCU: 0x1F658, offset: 0x1F658, size: 0x8, addend: 0x0, symName: __ZNKSt6vectorINSt7__cxx1112basic_stringIcSt11char_traitsIcESaIcEEESaIS5_EE8max_sizeEv, symObjAddr: 0x2050, symBinAddr: 0x10000481C, symSize: 0x20 }
  - { offsetInCU: 0x1F682, offset: 0x1F682, size: 0x8, addend: 0x0, symName: __ZNSt8_Rb_treeINSt7__cxx1112basic_stringIcSt11char_traitsIcESaIcEEESt4pairIKS5_St6vectorIS5_SaIS5_EEESt10_Select1stISB_ESt4lessIS5_ESaISB_EE14_M_insert_nodeEPSt18_Rb_tree_node_baseSJ_PSt13_Rb_tree_nodeISB_E, symObjAddr: 0x1F80, symBinAddr: 0x10000474C, symSize: 0xD0 }
  - { offsetInCU: 0x1F6F0, offset: 0x1F6F0, size: 0x8, addend: 0x0, symName: __ZNSt17_Rb_tree_iteratorISt4pairIKNSt7__cxx1112basic_stringIcSt11char_traitsIcESaIcEEESt6vectorIS6_SaIS6_EEEEppEv, symObjAddr: 0x1F50, symBinAddr: 0x10000471C, symSize: 0x30 }
  - { offsetInCU: 0x1F71A, offset: 0x1F71A, size: 0x8, addend: 0x0, symName: __ZNSt17_Rb_tree_iteratorISt4pairIKNSt7__cxx1112basic_stringIcSt11char_traitsIcESaIcEEESt6vectorIS6_SaIS6_EEEEmmEv, symObjAddr: 0x1F20, symBinAddr: 0x1000046EC, symSize: 0x30 }
  - { offsetInCU: 0x1F7C6, offset: 0x1F7C6, size: 0x8, addend: 0x0, symName: __ZNSt4pairIPSt18_Rb_tree_node_baseS1_EC1IRS1_S4_Lb1EEEOT_OT0_, symObjAddr: 0x1ED8, symBinAddr: 0x1000046A4, symSize: 0x48 }
  - { offsetInCU: 0x1F7D6, offset: 0x1F7D6, size: 0x8, addend: 0x0, symName: __ZNSt8_Rb_treeINSt7__cxx1112basic_stringIcSt11char_traitsIcESaIcEEESt4pairIKS5_St6vectorIS5_SaIS5_EEESt10_Select1stISB_ESt4lessIS5_ESaISB_EE11_M_leftmostEv, symObjAddr: 0x1EC0, symBinAddr: 0x10000468C, symSize: 0x18 }
  - { offsetInCU: 0x1F800, offset: 0x1F800, size: 0x8, addend: 0x0, symName: __ZNSt8_Rb_treeINSt7__cxx1112basic_stringIcSt11char_traitsIcESaIcEEESt4pairIKS5_St6vectorIS5_SaIS5_EEESt10_Select1stISB_ESt4lessIS5_ESaISB_EE24_M_get_insert_unique_posERS7_, symObjAddr: 0x1D68, symBinAddr: 0x100004534, symSize: 0x158 }
  - { offsetInCU: 0x1F906, offset: 0x1F906, size: 0x8, addend: 0x0, symName: __ZNSt4pairIPSt18_Rb_tree_node_baseS1_EC1IS1_S1_Lb1EEERKS1_S5_, symObjAddr: 0x1D2C, symBinAddr: 0x1000044F8, symSize: 0x3C }
  - { offsetInCU: 0x1F916, offset: 0x1F916, size: 0x8, addend: 0x0, symName: __ZNSt8_Rb_treeINSt7__cxx1112basic_stringIcSt11char_traitsIcESaIcEEESt4pairIKS5_St6vectorIS5_SaIS5_EEESt10_Select1stISB_ESt4lessIS5_ESaISB_EE12_M_rightmostEv, symObjAddr: 0x1D14, symBinAddr: 0x1000044E0, symSize: 0x18 }
  - { offsetInCU: 0x1F940, offset: 0x1F940, size: 0x8, addend: 0x0, symName: __ZNKSt8_Rb_treeINSt7__cxx1112basic_stringIcSt11char_traitsIcESaIcEEESt4pairIKS5_St6vectorIS5_SaIS5_EEESt10_Select1stISB_ESt4lessIS5_ESaISB_EE4sizeEv, symObjAddr: 0x1CFC, symBinAddr: 0x1000044C8, symSize: 0x18 }
  - { offsetInCU: 0x1F96A, offset: 0x1F96A, size: 0x8, addend: 0x0, symName: __ZNKSt23_Rb_tree_const_iteratorISt4pairIKNSt7__cxx1112basic_stringIcSt11char_traitsIcESaIcEEESt6vectorIS6_SaIS6_EEEE13_M_const_castEv, symObjAddr: 0x1CD4, symBinAddr: 0x1000044A0, symSize: 0x28 }
  - { offsetInCU: 0x1F994, offset: 0x1F994, size: 0x8, addend: 0x0, symName: __ZNSt8_Rb_treeINSt7__cxx1112basic_stringIcSt11char_traitsIcESaIcEEESt4pairIKS5_St6vectorIS5_SaIS5_EEESt10_Select1stISB_ESt4lessIS5_ESaISB_EE14_M_create_nodeIJRKSt21piecewise_construct_tSt5tupleIJRS7_EESM_IJEEEEEPSt13_Rb_tree_nodeISB_EDpOT_, symObjAddr: 0x1C64, symBinAddr: 0x100004430, symSize: 0x70 }
  - { offsetInCU: 0x1FA81, offset: 0x1FA81, size: 0x8, addend: 0x0, symName: __ZNSt10_Head_baseILm0ERKNSt7__cxx1112basic_stringIcSt11char_traitsIcESaIcEEELb0EEC2ES7_, symObjAddr: 0x1C40, symBinAddr: 0x10000440C, symSize: 0x24 }
  - { offsetInCU: 0x1FA5C, offset: 0x1FA5C, size: 0x8, addend: 0x0, symName: __ZN9__gnu_cxx16__aligned_membufISt4pairIKNSt7__cxx1112basic_stringIcSt11char_traitsIcESaIcEEESt6vectorIS7_SaIS7_EEEE6_M_ptrEv, symObjAddr: 0x1C24, symBinAddr: 0x1000043F0, symSize: 0x1C }
  - { offsetInCU: 0x1FA82, offset: 0x1FA82, size: 0x8, addend: 0x0, symName: __ZNSt8_Rb_treeINSt7__cxx1112basic_stringIcSt11char_traitsIcESaIcEEESt4pairIKS5_St6vectorIS5_SaIS5_EEESt10_Select1stISB_ESt4lessIS5_ESaISB_EE6_S_keyEPKSt13_Rb_tree_nodeISB_E, symObjAddr: 0x1BFC, symBinAddr: 0x1000043C8, symSize: 0x28 }
  - { offsetInCU: 0x1FAB0, offset: 0x1FAB0, size: 0x8, addend: 0x0, symName: __ZNSt8_Rb_treeINSt7__cxx1112basic_stringIcSt11char_traitsIcESaIcEEESt4pairIKS5_St6vectorIS5_SaIS5_EEESt10_Select1stISB_ESt4lessIS5_ESaISB_EE11_M_put_nodeEPSt13_Rb_tree_nodeISB_E, symObjAddr: 0x1BB0, symBinAddr: 0x10000437C, symSize: 0x4C }
  - { offsetInCU: 0x1FB21, offset: 0x1FB21, size: 0x8, addend: 0x0, symName: __ZNSt8_Rb_treeINSt7__cxx1112basic_stringIcSt11char_traitsIcESaIcEEESt4pairIKS5_St6vectorIS5_SaIS5_EEESt10_Select1stISB_ESt4lessIS5_ESaISB_EE15_M_destroy_nodeEPSt13_Rb_tree_nodeISB_E, symObjAddr: 0x1B50, symBinAddr: 0x10000431C, symSize: 0x60 }
  - { offsetInCU: 0x1FBE6, offset: 0x1FBE6, size: 0x8, addend: 0x0, symName: __ZNSt12_Vector_baseINSt7__cxx1112basic_stringIcSt11char_traitsIcESaIcEEESaIS5_EE19_M_get_Tp_allocatorEv, symObjAddr: 0x1B3C, symBinAddr: 0x100004308, symSize: 0x14 }
  - { offsetInCU: 0x1FC0C, offset: 0x1FC0C, size: 0x8, addend: 0x0, symName: __ZNSt6vectorINSt7__cxx1112basic_stringIcSt11char_traitsIcESaIcEEESaIS5_EE11_S_relocateEPS5_S8_S8_RS6_, symObjAddr: 0x1B08, symBinAddr: 0x1000042D4, symSize: 0x34 }
  - { offsetInCU: 0x1FC69, offset: 0x1FC69, size: 0x8, addend: 0x0, symName: __ZSt12__to_addressINSt7__cxx1112basic_stringIcSt11char_traitsIcESaIcEEEEPT_S7_, symObjAddr: 0x1AF4, symBinAddr: 0x1000042C0, symSize: 0x14 }
  - { offsetInCU: 0x1FCD1, offset: 0x1FCD1, size: 0x8, addend: 0x0, symName: __ZNSt12_Vector_baseINSt7__cxx1112basic_stringIcSt11char_traitsIcESaIcEEESaIS5_EE11_M_allocateEm, symObjAddr: 0x1AA4, symBinAddr: 0x100004270, symSize: 0x50 }
  - { offsetInCU: 0x1FD3B, offset: 0x1FD3B, size: 0x8, addend: 0x0, symName: __ZN9__gnu_cxxmiIPNSt7__cxx1112basic_stringIcSt11char_traitsIcESaIcEEESt6vectorIS6_SaIS6_EEEENS_17__normal_iteratorIT_T0_E15difference_typeERKSE_SH_, symObjAddr: 0x1A64, symBinAddr: 0x100004230, symSize: 0x40 }
  - { offsetInCU: 0x1FD8C, offset: 0x1FD8C, size: 0x8, addend: 0x0, symName: __ZNKSt6vectorINSt7__cxx1112basic_stringIcSt11char_traitsIcESaIcEEESaIS5_EE12_M_check_lenEmPKc, symObjAddr: 0x1994, symBinAddr: 0x100004160, symSize: 0xD0 }
  - { offsetInCU: 0x1FE2D, offset: 0x1FE2D, size: 0x8, addend: 0x0, symName: __ZSt7forwardIRKNSt7__cxx1112basic_stringIcSt11char_traitsIcESaIcEEEEOT_RNSt16remove_referenceIS8_E4typeE, symObjAddr: 0x1980, symBinAddr: 0x10000414C, symSize: 0x14 }
  - { offsetInCU: 0x1FE63, offset: 0x1FE63, size: 0x8, addend: 0x0, symName: __ZNSt8_Rb_treeINSt7__cxx1112basic_stringIcSt11char_traitsIcESaIcEEESt4pairIKS5_St6vectorIS5_SaIS5_EEESt10_Select1stISB_ESt4lessIS5_ESaISB_EE10_Auto_node9_M_insertES6_IPSt18_Rb_tree_node_baseSK_E, symObjAddr: 0x1934, symBinAddr: 0x100004100, symSize: 0x4C }
  - { offsetInCU: 0x1FEAF, offset: 0x1FEAF, size: 0x8, addend: 0x0, symName: __ZNKSt8_Rb_treeINSt7__cxx1112basic_stringIcSt11char_traitsIcESaIcEEESt4pairIKS5_St6vectorIS5_SaIS5_EEESt10_Select1stISB_ESt4lessIS5_ESaISB_EE10_Auto_node6_M_keyEv, symObjAddr: 0x1914, symBinAddr: 0x1000040E0, symSize: 0x20 }
  - { offsetInCU: 0x1FED9, offset: 0x1FED9, size: 0x8, addend: 0x0, symName: __ZNSt8_Rb_treeINSt7__cxx1112basic_stringIcSt11char_traitsIcESaIcEEESt4pairIKS5_St6vectorIS5_SaIS5_EEESt10_Select1stISB_ESt4lessIS5_ESaISB_EE29_M_get_insert_hint_unique_posESt23_Rb_tree_const_iteratorISB_ERS7_, symObjAddr: 0x15F0, symBinAddr: 0x100003DBC, symSize: 0x324 }
  - { offsetInCU: 0x20041, offset: 0x20041, size: 0x8, addend: 0x0, symName: __ZNSt8_Rb_treeINSt7__cxx1112basic_stringIcSt11char_traitsIcESaIcEEESt4pairIKS5_St6vectorIS5_SaIS5_EEESt10_Select1stISB_ESt4lessIS5_ESaISB_EE10_Auto_nodeD1Ev, symObjAddr: 0x15AC, symBinAddr: 0x100003D78, symSize: 0x44 }
  - { offsetInCU: 0x200F8, offset: 0x200F8, size: 0x8, addend: 0x0, symName: __ZNSt8_Rb_treeINSt7__cxx1112basic_stringIcSt11char_traitsIcESaIcEEESt4pairIKS5_St6vectorIS5_SaIS5_EEESt10_Select1stISB_ESt4lessIS5_ESaISB_EE10_Auto_nodeC1IJRKSt21piecewise_construct_tSt5tupleIJRS7_EESN_IJEEEEERSH_DpOT_, symObjAddr: 0x1530, symBinAddr: 0x100003CFC, symSize: 0x7C }
  - { offsetInCU: 0x20089, offset: 0x20089, size: 0x8, addend: 0x0, symName: __ZSt7forwardISt5tupleIJEEEOT_RNSt16remove_referenceIS2_E4typeE, symObjAddr: 0x151C, symBinAddr: 0x100003CE8, symSize: 0x14 }
  - { offsetInCU: 0x200C1, offset: 0x200C1, size: 0x8, addend: 0x0, symName: __ZSt7forwardISt5tupleIJRKNSt7__cxx1112basic_stringIcSt11char_traitsIcESaIcEEEEEEOT_RNSt16remove_referenceISA_E4typeE, symObjAddr: 0x1508, symBinAddr: 0x100003CD4, symSize: 0x14 }
  - { offsetInCU: 0x200F9, offset: 0x200F9, size: 0x8, addend: 0x0, symName: __ZSt7forwardIRKSt21piecewise_construct_tEOT_RNSt16remove_referenceIS3_E4typeE, symObjAddr: 0x14F4, symBinAddr: 0x100003CC0, symSize: 0x14 }
  - { offsetInCU: 0x201AA, offset: 0x201AA, size: 0x8, addend: 0x0, symName: __ZNSt11_Tuple_implILm0EJRKNSt7__cxx1112basic_stringIcSt11char_traitsIcESaIcEEEEEC2ES7_, symObjAddr: 0x14CC, symBinAddr: 0x100003C98, symSize: 0x28 }
  - { offsetInCU: 0x20182, offset: 0x20182, size: 0x8, addend: 0x0, symName: __ZStltIcSt11char_traitsIcESaIcEEbRKNSt7__cxx1112basic_stringIT_T0_T1_EESA_, symObjAddr: 0x14A0, symBinAddr: 0x100003C6C, symSize: 0x2C }
  - { offsetInCU: 0x201DC, offset: 0x201DC, size: 0x8, addend: 0x0, symName: __ZNSt13_Rb_tree_nodeISt4pairIKNSt7__cxx1112basic_stringIcSt11char_traitsIcESaIcEEESt6vectorIS6_SaIS6_EEEE9_M_valptrEv, symObjAddr: 0x1480, symBinAddr: 0x100003C4C, symSize: 0x20 }
  - { offsetInCU: 0x20206, offset: 0x20206, size: 0x8, addend: 0x0, symName: __ZNKSt8_Rb_treeINSt7__cxx1112basic_stringIcSt11char_traitsIcESaIcEEESt4pairIKS5_St6vectorIS5_SaIS5_EEESt10_Select1stISB_ESt4lessIS5_ESaISB_EE8key_compEv, symObjAddr: 0x1468, symBinAddr: 0x100003C34, symSize: 0x18 }
  - { offsetInCU: 0x20230, offset: 0x20230, size: 0x8, addend: 0x0, symName: __ZNSt8_Rb_treeINSt7__cxx1112basic_stringIcSt11char_traitsIcESaIcEEESt4pairIKS5_St6vectorIS5_SaIS5_EEESt10_Select1stISB_ESt4lessIS5_ESaISB_EE11lower_boundERS7_, symObjAddr: 0x1420, symBinAddr: 0x100003BEC, symSize: 0x48 }
  - { offsetInCU: 0x20317, offset: 0x20317, size: 0x8, addend: 0x0, symName: __ZNSt17_Rb_tree_iteratorISt4pairIKNSt7__cxx1112basic_stringIcSt11char_traitsIcESaIcEEESt6vectorIS6_SaIS6_EEEEC1EPSt18_Rb_tree_node_base, symObjAddr: 0x13FC, symBinAddr: 0x100003BC8, symSize: 0x24 }
  - { offsetInCU: 0x202BE, offset: 0x202BE, size: 0x8, addend: 0x0, symName: __ZNSt8_Rb_treeINSt7__cxx1112basic_stringIcSt11char_traitsIcESaIcEEESt4pairIKS5_St6vectorIS5_SaIS5_EEESt10_Select1stISB_ESt4lessIS5_ESaISB_EE6_S_keyEPKSt18_Rb_tree_node_base, symObjAddr: 0x13E0, symBinAddr: 0x100003BAC, symSize: 0x1C }
  - { offsetInCU: 0x202EC, offset: 0x202EC, size: 0x8, addend: 0x0, symName: __ZNSt8_Rb_treeINSt7__cxx1112basic_stringIcSt11char_traitsIcESaIcEEESt4pairIKS5_St6vectorIS5_SaIS5_EEESt10_Select1stISB_ESt4lessIS5_ESaISB_EE14_M_lower_boundEPSt13_Rb_tree_nodeISB_EPSt18_Rb_tree_node_baseRS7_, symObjAddr: 0x1344, symBinAddr: 0x100003B10, symSize: 0x9C }
  - { offsetInCU: 0x20349, offset: 0x20349, size: 0x8, addend: 0x0, symName: __ZNSt8_Rb_treeINSt7__cxx1112basic_stringIcSt11char_traitsIcESaIcEEESt4pairIKS5_St6vectorIS5_SaIS5_EEESt10_Select1stISB_ESt4lessIS5_ESaISB_EE6_M_endEv, symObjAddr: 0x132C, symBinAddr: 0x100003AF8, symSize: 0x18 }
  - { offsetInCU: 0x20373, offset: 0x20373, size: 0x8, addend: 0x0, symName: __ZNKSt8_Rb_treeINSt7__cxx1112basic_stringIcSt11char_traitsIcESaIcEEESt4pairIKS5_St6vectorIS5_SaIS5_EEESt10_Select1stISB_ESt4lessIS5_ESaISB_EE9_M_mbeginEv, symObjAddr: 0x1314, symBinAddr: 0x100003AE0, symSize: 0x18 }
  - { offsetInCU: 0x2039D, offset: 0x2039D, size: 0x8, addend: 0x0, symName: __ZNSt8_Rb_treeINSt7__cxx1112basic_stringIcSt11char_traitsIcESaIcEEESt4pairIKS5_St6vectorIS5_SaIS5_EEESt10_Select1stISB_ESt4lessIS5_ESaISB_EE12_M_drop_nodeEPSt13_Rb_tree_nodeISB_E, symObjAddr: 0x12E0, symBinAddr: 0x100003AAC, symSize: 0x34 }
  - { offsetInCU: 0x203D4, offset: 0x203D4, size: 0x8, addend: 0x0, symName: __ZNSt8_Rb_treeINSt7__cxx1112basic_stringIcSt11char_traitsIcESaIcEEESt4pairIKS5_St6vectorIS5_SaIS5_EEESt10_Select1stISB_ESt4lessIS5_ESaISB_EE7_S_leftEPSt18_Rb_tree_node_base, symObjAddr: 0x12C8, symBinAddr: 0x100003A94, symSize: 0x18 }
  - { offsetInCU: 0x203FE, offset: 0x203FE, size: 0x8, addend: 0x0, symName: __ZNSt8_Rb_treeINSt7__cxx1112basic_stringIcSt11char_traitsIcESaIcEEESt4pairIKS5_St6vectorIS5_SaIS5_EEESt10_Select1stISB_ESt4lessIS5_ESaISB_EE8_S_rightEPSt18_Rb_tree_node_base, symObjAddr: 0x12B0, symBinAddr: 0x100003A7C, symSize: 0x18 }
  - { offsetInCU: 0x2046D, offset: 0x2046D, size: 0x8, addend: 0x0, symName: __ZNSt6vectorINSt7__cxx1112basic_stringIcSt11char_traitsIcESaIcEEESaIS5_EE17_M_realloc_appendIJRKS5_EEEvDpOT_, symObjAddr: 0x10B4, symBinAddr: 0x100003880, symSize: 0x1FC }
  - { offsetInCU: 0x20670, offset: 0x20670, size: 0x8, addend: 0x0, symName: __ZZNSt6vectorINSt7__cxx1112basic_stringIcSt11char_traitsIcESaIcEEESaIS5_EE17_M_realloc_appendIJRKS5_EEEvDpOT_EN6_GuardC1EPS5_mRS6_, symObjAddr: 0x1010, symBinAddr: 0x1000037DC, symSize: 0x44 }
  - { offsetInCU: 0x206AE, offset: 0x206AE, size: 0x8, addend: 0x0, symName: __ZZNSt6vectorINSt7__cxx1112basic_stringIcSt11char_traitsIcESaIcEEESaIS5_EE17_M_realloc_appendIJRKS5_EEEvDpOT_EN6_GuardD1Ev, symObjAddr: 0x1054, symBinAddr: 0x100003820, symSize: 0x60 }
  - { offsetInCU: 0x20769, offset: 0x20769, size: 0x8, addend: 0x0, symName: __ZNK9__gnu_cxx17__normal_iteratorIPNSt7__cxx1112basic_stringIcSt11char_traitsIcESaIcEEESt6vectorIS6_SaIS6_EEE4baseEv, symObjAddr: 0xFFC, symBinAddr: 0x1000037C8, symSize: 0x14 }
  - { offsetInCU: 0x2082C, offset: 0x2082C, size: 0x8, addend: 0x0, symName: __ZN9__gnu_cxx17__normal_iteratorIPNSt7__cxx1112basic_stringIcSt11char_traitsIcESaIcEEESt6vectorIS6_SaIS6_EEEC1ERKS7_, symObjAddr: 0xFD4, symBinAddr: 0x1000037A0, symSize: 0x28 }
  - { offsetInCU: 0x207EA, offset: 0x207EA, size: 0x8, addend: 0x0, symName: __ZNSt8_Rb_treeINSt7__cxx1112basic_stringIcSt11char_traitsIcESaIcEEESt4pairIKS5_St6vectorIS5_SaIS5_EEESt10_Select1stISB_ESt4lessIS5_ESaISB_EE22_M_emplace_hint_uniqueIJRKSt21piecewise_construct_tSt5tupleIJRS7_EESM_IJEEEEESt17_Rb_tree_iteratorISB_ESt23_Rb_tree_const_iteratorISB_EDpOT_, symObjAddr: 0xEFC, symBinAddr: 0x1000036C8, symSize: 0xD8 }
  - { offsetInCU: 0x20938, offset: 0x20938, size: 0x8, addend: 0x0, symName: __ZNSt23_Rb_tree_const_iteratorISt4pairIKNSt7__cxx1112basic_stringIcSt11char_traitsIcESaIcEEESt6vectorIS6_SaIS6_EEEEC1ERKSt17_Rb_tree_iteratorISB_E, symObjAddr: 0xED4, symBinAddr: 0x1000036A0, symSize: 0x28 }
  - { offsetInCU: 0x2095C, offset: 0x2095C, size: 0x8, addend: 0x0, symName: __ZNSt5tupleIJRKNSt7__cxx1112basic_stringIcSt11char_traitsIcESaIcEEEEEC1ILb1ELb1EEES7_, symObjAddr: 0xEAC, symBinAddr: 0x100003678, symSize: 0x28 }
  - { offsetInCU: 0x20943, offset: 0x20943, size: 0x8, addend: 0x0, symName: __ZNKSt4lessINSt7__cxx1112basic_stringIcSt11char_traitsIcESaIcEEEEclERKS5_S8_, symObjAddr: 0xE84, symBinAddr: 0x100003650, symSize: 0x28 }
  - { offsetInCU: 0x2098F, offset: 0x2098F, size: 0x8, addend: 0x0, symName: __ZNKSt17_Rb_tree_iteratorISt4pairIKNSt7__cxx1112basic_stringIcSt11char_traitsIcESaIcEEESt6vectorIS6_SaIS6_EEEEdeEv, symObjAddr: 0xE64, symBinAddr: 0x100003630, symSize: 0x20 }
  - { offsetInCU: 0x209B9, offset: 0x209B9, size: 0x8, addend: 0x0, symName: __ZNKSt3mapINSt7__cxx1112basic_stringIcSt11char_traitsIcESaIcEEESt6vectorIS5_SaIS5_EESt4lessIS5_ESaISt4pairIKS5_S8_EEE8key_compEv, symObjAddr: 0xE38, symBinAddr: 0x100003604, symSize: 0x2C }
  - { offsetInCU: 0x209E3, offset: 0x209E3, size: 0x8, addend: 0x0, symName: __ZNSt3mapINSt7__cxx1112basic_stringIcSt11char_traitsIcESaIcEEESt6vectorIS5_SaIS5_EESt4lessIS5_ESaISt4pairIKS5_S8_EEE11lower_boundERSC_, symObjAddr: 0xE14, symBinAddr: 0x1000035E0, symSize: 0x24 }
  - { offsetInCU: 0x20A1E, offset: 0x20A1E, size: 0x8, addend: 0x0, symName: __ZNSt8_Rb_treeINSt7__cxx1112basic_stringIcSt11char_traitsIcESaIcEEESt4pairIKS5_St6vectorIS5_SaIS5_EEESt10_Select1stISB_ESt4lessIS5_ESaISB_EE3endEv, symObjAddr: 0xDEC, symBinAddr: 0x1000035B8, symSize: 0x28 }
  - { offsetInCU: 0x20A48, offset: 0x20A48, size: 0x8, addend: 0x0, symName: __ZNSt8_Rb_treeINSt7__cxx1112basic_stringIcSt11char_traitsIcESaIcEEESt4pairIKS5_St6vectorIS5_SaIS5_EEESt10_Select1stISB_ESt4lessIS5_ESaISB_EE4findERS7_, symObjAddr: 0xD44, symBinAddr: 0x100003510, symSize: 0xA8 }
  - { offsetInCU: 0x20A94, offset: 0x20A94, size: 0x8, addend: 0x0, symName: __ZNSt8_Rb_treeINSt7__cxx1112basic_stringIcSt11char_traitsIcESaIcEEESt4pairIKS5_St6vectorIS5_SaIS5_EEESt10_Select1stISB_ESt4lessIS5_ESaISB_EE8_M_beginEv, symObjAddr: 0xD28, symBinAddr: 0x1000034F4, symSize: 0x1C }
  - { offsetInCU: 0x20ABE, offset: 0x20ABE, size: 0x8, addend: 0x0, symName: __ZNSt8_Rb_treeINSt7__cxx1112basic_stringIcSt11char_traitsIcESaIcEEESt4pairIKS5_St6vectorIS5_SaIS5_EEESt10_Select1stISB_ESt4lessIS5_ESaISB_EE8_M_eraseEPSt13_Rb_tree_nodeISB_E, symObjAddr: 0xCC4, symBinAddr: 0x100003490, symSize: 0x64 }
  - { offsetInCU: 0x20BC0, offset: 0x20BC0, size: 0x8, addend: 0x0, symName: __ZNSt15__new_allocatorISt13_Rb_tree_nodeISt4pairIKNSt7__cxx1112basic_stringIcSt11char_traitsIcESaIcEEESt6vectorIS7_SaIS7_EEEEED2Ev, symObjAddr: 0xCB0, symBinAddr: 0x10000347C, symSize: 0x14 }
  - { offsetInCU: 0x20BDC, offset: 0x20BDC, size: 0x8, addend: 0x0, symName: __ZNSt20_Rb_tree_key_compareISt4lessINSt7__cxx1112basic_stringIcSt11char_traitsIcESaIcEEEEEC2Ev, symObjAddr: 0xC9C, symBinAddr: 0x100003468, symSize: 0x14 }
  - { offsetInCU: 0x20BBD, offset: 0x20BBD, size: 0x8, addend: 0x0, symName: __ZNSt7__cxx1112basic_stringIcSt11char_traitsIcESaIcEE12_M_constructIPKcEEvT_S8_St20forward_iterator_tag, symObjAddr: 0xB9C, symBinAddr: 0x100003368, symSize: 0x100 }
  - { offsetInCU: 0x20D3A, offset: 0x20D3A, size: 0x8, addend: 0x0, symName: __ZZNSt7__cxx1112basic_stringIcSt11char_traitsIcESaIcEE12_M_constructIPKcEEvT_S8_St20forward_iterator_tagEN6_GuardC1EPS4_, symObjAddr: 0xB44, symBinAddr: 0x100003310, symSize: 0x24 }
  - { offsetInCU: 0x20D6B, offset: 0x20D6B, size: 0x8, addend: 0x0, symName: __ZZNSt7__cxx1112basic_stringIcSt11char_traitsIcESaIcEE12_M_constructIPKcEEvT_S8_St20forward_iterator_tagEN6_GuardD1Ev, symObjAddr: 0xB68, symBinAddr: 0x100003334, symSize: 0x34 }
  - { offsetInCU: 0x20E12, offset: 0x20E12, size: 0x8, addend: 0x0, symName: __ZNSt15__new_allocatorIcED2Ev, symObjAddr: 0xB30, symBinAddr: 0x1000032FC, symSize: 0x14 }
  - { offsetInCU: 0x20E5C, offset: 0x20E5C, size: 0x8, addend: 0x0, symName: __ZN9__gnu_cxx11char_traitsIcE2eqERKcS3_, symObjAddr: 0xB00, symBinAddr: 0x1000032CC, symSize: 0x30 }
  - { offsetInCU: 0x20E99, offset: 0x20E99, size: 0x8, addend: 0x0, symName: __ZNSt6vectorINSt7__cxx1112basic_stringIcSt11char_traitsIcESaIcEEESaIS5_EE9push_backERKS5_, symObjAddr: 0xA04, symBinAddr: 0x1000031D0, symSize: 0xFC }
  - { offsetInCU: 0x20F38, offset: 0x20F38, size: 0x8, addend: 0x0, symName: __ZNK9__gnu_cxx17__normal_iteratorIPNSt7__cxx1112basic_stringIcSt11char_traitsIcESaIcEEESt6vectorIS6_SaIS6_EEEdeEv, symObjAddr: 0x9EC, symBinAddr: 0x1000031B8, symSize: 0x18 }
  - { offsetInCU: 0x20F62, offset: 0x20F62, size: 0x8, addend: 0x0, symName: __ZN9__gnu_cxx17__normal_iteratorIPNSt7__cxx1112basic_stringIcSt11char_traitsIcESaIcEEESt6vectorIS6_SaIS6_EEEppEv, symObjAddr: 0x9C4, symBinAddr: 0x100003190, symSize: 0x28 }
  - { offsetInCU: 0x20F88, offset: 0x20F88, size: 0x8, addend: 0x0, symName: __ZN9__gnu_cxxneIPNSt7__cxx1112basic_stringIcSt11char_traitsIcESaIcEEESt6vectorIS6_SaIS6_EEEEbRKNS_17__normal_iteratorIT_T0_EESG_, symObjAddr: 0x980, symBinAddr: 0x10000314C, symSize: 0x44 }
  - { offsetInCU: 0x20FD9, offset: 0x20FD9, size: 0x8, addend: 0x0, symName: __ZNSt6vectorINSt7__cxx1112basic_stringIcSt11char_traitsIcESaIcEEESaIS5_EE3endEv, symObjAddr: 0x958, symBinAddr: 0x100003124, symSize: 0x28 }
  - { offsetInCU: 0x21003, offset: 0x21003, size: 0x8, addend: 0x0, symName: __ZNSt6vectorINSt7__cxx1112basic_stringIcSt11char_traitsIcESaIcEEESaIS5_EE5beginEv, symObjAddr: 0x934, symBinAddr: 0x100003100, symSize: 0x24 }
  - { offsetInCU: 0x2102D, offset: 0x2102D, size: 0x8, addend: 0x0, symName: __ZNSt3mapINSt7__cxx1112basic_stringIcSt11char_traitsIcESaIcEEESt6vectorIS5_SaIS5_EESt4lessIS5_ESaISt4pairIKS5_S8_EEEixERSC_, symObjAddr: 0x848, symBinAddr: 0x100003014, symSize: 0xEC }
  - { offsetInCU: 0x2107B, offset: 0x2107B, size: 0x8, addend: 0x0, symName: __ZSteqRKSt17_Rb_tree_iteratorISt4pairIKNSt7__cxx1112basic_stringIcSt11char_traitsIcESaIcEEESt6vectorIS6_SaIS6_EEEESE_, symObjAddr: 0x818, symBinAddr: 0x100002FE4, symSize: 0x30 }
  - { offsetInCU: 0x210BA, offset: 0x210BA, size: 0x8, addend: 0x0, symName: __ZNSt3mapINSt7__cxx1112basic_stringIcSt11char_traitsIcESaIcEEESt6vectorIS5_SaIS5_EESt4lessIS5_ESaISt4pairIKS5_S8_EEE3endEv, symObjAddr: 0x7FC, symBinAddr: 0x100002FC8, symSize: 0x1C }
  - { offsetInCU: 0x210E4, offset: 0x210E4, size: 0x8, addend: 0x0, symName: __ZNSt3mapINSt7__cxx1112basic_stringIcSt11char_traitsIcESaIcEEESt6vectorIS5_SaIS5_EESt4lessIS5_ESaISt4pairIKS5_S8_EEE4findERSC_, symObjAddr: 0x7D8, symBinAddr: 0x100002FA4, symSize: 0x24 }
  - { offsetInCU: 0x211D0, offset: 0x211D0, size: 0x8, addend: 0x0, symName: __ZNSt8_Rb_treeINSt7__cxx1112basic_stringIcSt11char_traitsIcESaIcEEESt4pairIKS5_St6vectorIS5_SaIS5_EEESt10_Select1stISB_ESt4lessIS5_ESaISB_EED1Ev, symObjAddr: 0x7A4, symBinAddr: 0x100002F70, symSize: 0x34 }
  - { offsetInCU: 0x21248, offset: 0x21248, size: 0x8, addend: 0x0, symName: __ZNSt8_Rb_treeINSt7__cxx1112basic_stringIcSt11char_traitsIcESaIcEEESt4pairIKS5_St6vectorIS5_SaIS5_EEESt10_Select1stISB_ESt4lessIS5_ESaISB_EE13_Rb_tree_implISF_Lb1EEC1Ev, symObjAddr: 0x760, symBinAddr: 0x100002F2C, symSize: 0x44 }
  - { offsetInCU: 0x2120C, offset: 0x2120C, size: 0x8, addend: 0x0, symName: __ZSt11__addressofINSt7__cxx1112basic_stringIcSt11char_traitsIcESaIcEEEEPT_RS6_, symObjAddr: 0x74C, symBinAddr: 0x100002F18, symSize: 0x14 }
  - { offsetInCU: 0x21245, offset: 0x21245, size: 0x8, addend: 0x0, symName: __ZSt4moveIRNSt7__cxx1112basic_stringIcSt11char_traitsIcESaIcEEEEONSt16remove_referenceIT_E4typeEOS8_, symObjAddr: 0x738, symBinAddr: 0x100002F04, symSize: 0x14 }
  - { offsetInCU: 0x21304, offset: 0x21304, size: 0x8, addend: 0x0, symName: __ZNSt7__cxx1112basic_stringIcSt11char_traitsIcESaIcEEC1IS3_EEPKcRKS3_, symObjAddr: 0x69C, symBinAddr: 0x100002E68, symSize: 0x9C }
  - { offsetInCU: 0x21323, offset: 0x21323, size: 0x8, addend: 0x0, symName: __ZSt3maxImERKT_S2_S2_, symObjAddr: 0x664, symBinAddr: 0x100002E30, symSize: 0x38 }
  - { offsetInCU: 0x2140C, offset: 0x2140C, size: 0x8, addend: 0x0, symName: __ZNSt7__cxx1112basic_stringIcSt11char_traitsIcESaIcEE12_Alloc_hiderD1Ev, symObjAddr: 0x638, symBinAddr: 0x100002E04, symSize: 0x2C }
  - { offsetInCU: 0x2140D, offset: 0x2140D, size: 0x8, addend: 0x0, symName: __ZN9__gnu_cxx11char_traitsIcE6lengthEPKc, symObjAddr: 0x5E0, symBinAddr: 0x100002DAC, symSize: 0x58 }
  - { offsetInCU: 0x2144F, offset: 0x2144F, size: 0x8, addend: 0x0, symName: _main, symObjAddr: 0x2F4, symBinAddr: 0x100002AC0, symSize: 0x2EC }
  - { offsetInCU: 0x215CE, offset: 0x215CE, size: 0x8, addend: 0x0, symName: __Z9print_ansNSt7__cxx1112basic_stringIcSt11char_traitsIcESaIcEEE, symObjAddr: 0x174, symBinAddr: 0x100002940, symSize: 0x180 }
  - { offsetInCU: 0x2169E, offset: 0x2169E, size: 0x8, addend: 0x0, symName: __ZNSt3mapINSt7__cxx1112basic_stringIcSt11char_traitsIcESaIcEEESt6vectorIS5_SaIS5_EESt4lessIS5_ESaISt4pairIKS5_S8_EEEC1Ev, symObjAddr: 0x154, symBinAddr: 0x100002920, symSize: 0x20 }
  - { offsetInCU: 0x216F6, offset: 0x216F6, size: 0x8, addend: 0x0, symName: __ZNSt8_Rb_treeINSt7__cxx1112basic_stringIcSt11char_traitsIcESaIcEEESt4pairIKS5_St6vectorIS5_SaIS5_EEESt10_Select1stISB_ESt4lessIS5_ESaISB_EEC1Ev, symObjAddr: 0x134, symBinAddr: 0x100002900, symSize: 0x20 }
  - { offsetInCU: 0x2175C, offset: 0x2175C, size: 0x8, addend: 0x0, symName: __ZNSt8_Rb_treeINSt7__cxx1112basic_stringIcSt11char_traitsIcESaIcEEESt4pairIKS5_St6vectorIS5_SaIS5_EEESt10_Select1stISB_ESt4lessIS5_ESaISB_EE13_Rb_tree_implISF_Lb1EED1Ev, symObjAddr: 0x108, symBinAddr: 0x1000028D4, symSize: 0x2C }
  - { offsetInCU: 0x21701, offset: 0x21701, size: 0x8, addend: 0x0, symName: __ZNSt15_Rb_tree_header8_M_resetEv, symObjAddr: 0xCC, symBinAddr: 0x100002898, symSize: 0x3C }
  - { offsetInCU: 0x2175C, offset: 0x2175C, size: 0x8, addend: 0x0, symName: __ZNSt15_Rb_tree_headerC2Ev, symObjAddr: 0xA4, symBinAddr: 0x100002870, symSize: 0x28 }
  - { offsetInCU: 0x21767, offset: 0x21767, size: 0x8, addend: 0x0, symName: __ZSt3minImERKT_S2_S2_, symObjAddr: 0x6C, symBinAddr: 0x100002838, symSize: 0x38 }
  - { offsetInCU: 0x217A9, offset: 0x217A9, size: 0x8, addend: 0x0, symName: __ZNSt11char_traitsIcE6lengthEPKc, symObjAddr: 0x30, symBinAddr: 0x1000027FC, symSize: 0x3C }
  - { offsetInCU: 0x217FA, offset: 0x217FA, size: 0x8, addend: 0x0, symName: __ZdlPvS_, symObjAddr: 0x18, symBinAddr: 0x1000027E4, symSize: 0x18 }
  - { offsetInCU: 0x2182F, offset: 0x2182F, size: 0x8, addend: 0x0, symName: __ZnwmPv, symObjAddr: 0x0, symBinAddr: 0x1000027CC, symSize: 0x18 }
...
