---
triple:          'arm64-apple-darwin'
binary-path:     '/Users/pai/code/CU Grader/output/Top3Sales'
relocations:
  - { offsetInCU: 0x1E64C, offset: 0x1E64C, size: 0x8, addend: 0x0, symName: __ZStL8__ioinit, symObjAddr: 0xA2390, symBinAddr: 0x100010000, symSize: 0x0 }
  - { offsetInCU: 0x1EB38, offset: 0x1EB38, size: 0x8, addend: 0x0, symName: __Z5goodsB5cxx11, symObjAddr: 0xA2398, symBinAddr: 0x100010008, symSize: 0x0 }
  - { offsetInCU: 0x1EC6D, offset: 0x1EC6D, size: 0x8, addend: 0x0, symName: __Z1vB5cxx11, symObjAddr: 0xA23C8, symBinAddr: 0x100010038, symSize: 0x0 }
  - { offsetInCU: 0x1EFAB, offset: 0x1EFAB, size: 0x8, addend: 0x0, symName: __ZSt8_DestroyISt4pairIfNSt7__cxx1112basic_stringIcSt11char_traitsIcESaIcEEEEEvPT_, symObjAddr: 0x408C, symBinAddr: 0x100008300, symSize: 0x20 }
  - { offsetInCU: 0x1EFDD, offset: 0x1EFDD, size: 0x8, addend: 0x0, symName: __ZNSt12_Destroy_auxILb0EE9__destroyIPSt4pairIfNSt7__cxx1112basic_stringIcSt11char_traitsIcESaIcEEEEEEvT_SB_, symObjAddr: 0x4040, symBinAddr: 0x1000082B4, symSize: 0x4C }
  - { offsetInCU: 0x1F01F, offset: 0x1F01F, size: 0x8, addend: 0x0, symName: __ZSt8_DestroyIPSt4pairIfNSt7__cxx1112basic_stringIcSt11char_traitsIcESaIcEEEEEvT_S9_, symObjAddr: 0x4018, symBinAddr: 0x10000828C, symSize: 0x28 }
  - { offsetInCU: 0x1F118, offset: 0x1F118, size: 0x8, addend: 0x0, symName: __ZNSt6vectorISt4pairIfNSt7__cxx1112basic_stringIcSt11char_traitsIcESaIcEEEESaIS7_EED1Ev, symObjAddr: 0x3FBC, symBinAddr: 0x100008230, symSize: 0x5C }
  - { offsetInCU: 0x1F1AB, offset: 0x1F1AB, size: 0x8, addend: 0x0, symName: __ZNSt3mapINSt7__cxx1112basic_stringIcSt11char_traitsIcESaIcEEESt4pairIffESt4lessIS5_ESaIS6_IKS5_S7_EEED1Ev, symObjAddr: 0x3F9C, symBinAddr: 0x100008210, symSize: 0x20 }
  - { offsetInCU: 0x1F166, offset: 0x1F166, size: 0x8, addend: 0x0, symName: __ZNSt10_Head_baseILm0ERKNSt7__cxx1112basic_stringIcSt11char_traitsIcESaIcEEELb0EE7_M_headERS8_, symObjAddr: 0x3F84, symBinAddr: 0x1000081F8, symSize: 0x18 }
  - { offsetInCU: 0x1F18F, offset: 0x1F18F, size: 0x8, addend: 0x0, symName: __ZNSt11_Tuple_implILm0EJRKNSt7__cxx1112basic_stringIcSt11char_traitsIcESaIcEEEEE7_M_headERS8_, symObjAddr: 0x3F68, symBinAddr: 0x1000081DC, symSize: 0x1C }
  - { offsetInCU: 0x1F1B9, offset: 0x1F1B9, size: 0x8, addend: 0x0, symName: __ZSt12__get_helperILm0ERKNSt7__cxx1112basic_stringIcSt11char_traitsIcESaIcEEEJEERT0_RSt11_Tuple_implIXT_EJS8_DpT1_EE, symObjAddr: 0x3F4C, symBinAddr: 0x1000081C0, symSize: 0x1C }
  - { offsetInCU: 0x1F242, offset: 0x1F242, size: 0x8, addend: 0x0, symName: __ZNSt4pairIffEC1IffLb1EEEv, symObjAddr: 0x3F28, symBinAddr: 0x10000819C, symSize: 0x24 }
  - { offsetInCU: 0x1F25F, offset: 0x1F25F, size: 0x8, addend: 0x0, symName: __ZSt3getILm0EJRKNSt7__cxx1112basic_stringIcSt11char_traitsIcESaIcEEEEERNSt13tuple_elementIXT_ESt5tupleIJDpT0_EEE4typeERSC_, symObjAddr: 0x3F0C, symBinAddr: 0x100008180, symSize: 0x1C }
  - { offsetInCU: 0x1F29E, offset: 0x1F29E, size: 0x8, addend: 0x0, symName: __ZNSt20__copy_move_backwardILb1ELb0ESt26random_access_iterator_tagE13__copy_move_bIPSt4pairIfNSt7__cxx1112basic_stringIcSt11char_traitsIcESaIcEEEESB_EET0_T_SD_SC_, symObjAddr: 0x3E84, symBinAddr: 0x1000080F8, symSize: 0x88 }
  - { offsetInCU: 0x1F30D, offset: 0x1F30D, size: 0x8, addend: 0x0, symName: __ZSt4swapIcSt11char_traitsIcESaIcEEvRNSt7__cxx1112basic_stringIT_T0_T1_EES9_, symObjAddr: 0x3E5C, symBinAddr: 0x1000080D0, symSize: 0x28 }
  - { offsetInCU: 0x1F363, offset: 0x1F363, size: 0x8, addend: 0x0, symName: __ZSt4swapIfENSt9enable_ifIXsrSt6__and_IJSt6__not_ISt15__is_tuple_likeIT_EESt21is_move_constructibleIS4_ESt18is_move_assignableIS4_EEE5valueEvE4typeERS4_SE_, symObjAddr: 0x3E08, symBinAddr: 0x10000807C, symSize: 0x54 }
  - { offsetInCU: 0x1F3BC, offset: 0x1F3BC, size: 0x8, addend: 0x0, symName: __ZSt4moveIRfEONSt16remove_referenceIT_E4typeEOS2_, symObjAddr: 0x3DF4, symBinAddr: 0x100008068, symSize: 0x14 }
  - { offsetInCU: 0x1F3FD, offset: 0x1F3FD, size: 0x8, addend: 0x0, symName: __ZNK9__gnu_cxx5__ops14_Iter_less_valclINS_17__normal_iteratorIPSt4pairIfNSt7__cxx1112basic_stringIcSt11char_traitsIcESaIcEEEESt6vectorISB_SaISB_EEEESB_EEbT_RT0_, symObjAddr: 0x3DC8, symBinAddr: 0x10000803C, symSize: 0x2C }
  - { offsetInCU: 0x1F58E, offset: 0x1F58E, size: 0x8, addend: 0x0, symName: __ZNSt4pairIKNSt7__cxx1112basic_stringIcSt11char_traitsIcESaIcEEES_IffEEC1IJRS6_EJLm0EEJEJEEERSt5tupleIJDpT_EERSB_IJDpT1_EESt12_Index_tupleIJXspT0_EEESK_IJXspT2_EEE, symObjAddr: 0x3D70, symBinAddr: 0x100007FE4, symSize: 0x58 }
  - { offsetInCU: 0x1F55D, offset: 0x1F55D, size: 0x8, addend: 0x0, symName: __ZSt23__copy_move_backward_a2ILb1EPSt4pairIfNSt7__cxx1112basic_stringIcSt11char_traitsIcESaIcEEEES8_ET1_T0_SA_S9_, symObjAddr: 0x3D44, symBinAddr: 0x100007FB8, symSize: 0x2C }
  - { offsetInCU: 0x1F5C9, offset: 0x1F5C9, size: 0x8, addend: 0x0, symName: __ZNSt4pairIfNSt7__cxx1112basic_stringIcSt11char_traitsIcESaIcEEEE4swapERS6_, symObjAddr: 0x3D00, symBinAddr: 0x100007F74, symSize: 0x44 }
  - { offsetInCU: 0x1F606, offset: 0x1F606, size: 0x8, addend: 0x0, symName: __ZSt11__push_heapIN9__gnu_cxx17__normal_iteratorIPSt4pairIfNSt7__cxx1112basic_stringIcSt11char_traitsIcESaIcEEEESt6vectorIS9_SaIS9_EEEElS9_NS0_5__ops14_Iter_less_valEEvT_T0_SI_T1_RT2_, symObjAddr: 0x3BD8, symBinAddr: 0x100007E4C, symSize: 0x128 }
  - { offsetInCU: 0x1F6B2, offset: 0x1F6B2, size: 0x8, addend: 0x0, symName: __ZSt4moveIRN9__gnu_cxx5__ops15_Iter_less_iterEEONSt16remove_referenceIT_E4typeEOS5_, symObjAddr: 0x3BC4, symBinAddr: 0x100007E38, symSize: 0x14 }
  - { offsetInCU: 0x1F7FC, offset: 0x1F7FC, size: 0x8, addend: 0x0, symName: __ZNSt4pairIKNSt7__cxx1112basic_stringIcSt11char_traitsIcESaIcEEES_IffEEC1IJRS6_EJEEESt21piecewise_construct_tSt5tupleIJDpT_EESC_IJDpT0_EE, symObjAddr: 0x3B88, symBinAddr: 0x100007DFC, symSize: 0x3C }
  - { offsetInCU: 0x1F844, offset: 0x1F844, size: 0x8, addend: 0x0, symName: __ZNSt11_Tuple_implILm0EJRKNSt7__cxx1112basic_stringIcSt11char_traitsIcESaIcEEEEEC2EOS8_, symObjAddr: 0x3B60, symBinAddr: 0x100007DD4, symSize: 0x28 }
  - { offsetInCU: 0x1F81B, offset: 0x1F81B, size: 0x8, addend: 0x0, symName: __ZSt12__niter_wrapIN9__gnu_cxx17__normal_iteratorIPSt4pairIfNSt7__cxx1112basic_stringIcSt11char_traitsIcESaIcEEEESt6vectorIS9_SaIS9_EEEESA_ET_SF_T0_, symObjAddr: 0x3B0C, symBinAddr: 0x100007D80, symSize: 0x54 }
  - { offsetInCU: 0x1F868, offset: 0x1F868, size: 0x8, addend: 0x0, symName: __ZSt23__copy_move_backward_a1ILb1EPSt4pairIfNSt7__cxx1112basic_stringIcSt11char_traitsIcESaIcEEEES8_ET1_T0_SA_S9_, symObjAddr: 0x3AE0, symBinAddr: 0x100007D54, symSize: 0x2C }
  - { offsetInCU: 0x1F8D0, offset: 0x1F8D0, size: 0x8, addend: 0x0, symName: __ZSt12__niter_baseIPSt4pairIfNSt7__cxx1112basic_stringIcSt11char_traitsIcESaIcEEEESt6vectorIS7_SaIS7_EEET_N9__gnu_cxx17__normal_iteratorISC_T0_EE, symObjAddr: 0x3AC0, symBinAddr: 0x100007D34, symSize: 0x20 }
  - { offsetInCU: 0x1F90C, offset: 0x1F90C, size: 0x8, addend: 0x0, symName: __ZSt4swapIfNSt7__cxx1112basic_stringIcSt11char_traitsIcESaIcEEEENSt9enable_ifIXsrSt6__and_IJSt14__is_swappableIT_ES8_IT0_EEE5valueEvE4typeERSt4pairIS9_SB_ESI_, symObjAddr: 0x3A98, symBinAddr: 0x100007D0C, symSize: 0x28 }
  - { offsetInCU: 0x1F959, offset: 0x1F959, size: 0x8, addend: 0x0, symName: __ZSt13__adjust_heapIN9__gnu_cxx17__normal_iteratorIPSt4pairIfNSt7__cxx1112basic_stringIcSt11char_traitsIcESaIcEEEESt6vectorIS9_SaIS9_EEEElS9_NS0_5__ops15_Iter_less_iterEEvT_T0_SI_T1_T2_, symObjAddr: 0x3894, symBinAddr: 0x100007B08, symSize: 0x204 }
  - { offsetInCU: 0x1FA1D, offset: 0x1FA1D, size: 0x8, addend: 0x0, symName: __ZSt19__relocate_object_aISt4pairIfNSt7__cxx1112basic_stringIcSt11char_traitsIcESaIcEEEES7_SaIS7_EEvPT_PT0_RT1_, symObjAddr: 0x37C4, symBinAddr: 0x100007A38, symSize: 0xD0 }
  - { offsetInCU: 0x1FB4F, offset: 0x1FB4F, size: 0x8, addend: 0x0, symName: __ZSt11__addressofISt4pairIfNSt7__cxx1112basic_stringIcSt11char_traitsIcESaIcEEEEEPT_RS8_, symObjAddr: 0x37B0, symBinAddr: 0x100007A24, symSize: 0x14 }
  - { offsetInCU: 0x1FBA0, offset: 0x1FBA0, size: 0x8, addend: 0x0, symName: __ZNK9__gnu_cxx16__aligned_membufISt4pairIKNSt7__cxx1112basic_stringIcSt11char_traitsIcESaIcEEES1_IffEEE7_M_addrEv, symObjAddr: 0x379C, symBinAddr: 0x100007A10, symSize: 0x14 }
  - { offsetInCU: 0x1FC94, offset: 0x1FC94, size: 0x8, addend: 0x0, symName: __ZNSt5tupleIJRKNSt7__cxx1112basic_stringIcSt11char_traitsIcESaIcEEEEEC1EOS8_, symObjAddr: 0x3774, symBinAddr: 0x1000079E8, symSize: 0x28 }
  - { offsetInCU: 0x1FC7A, offset: 0x1FC7A, size: 0x8, addend: 0x0, symName: __ZNSt15__new_allocatorISt13_Rb_tree_nodeISt4pairIKNSt7__cxx1112basic_stringIcSt11char_traitsIcESaIcEEES1_IffEEEE8allocateEmPKv, symObjAddr: 0x36DC, symBinAddr: 0x100007950, symSize: 0x98 }
  - { offsetInCU: 0x1FD11, offset: 0x1FD11, size: 0x8, addend: 0x0, symName: __ZNK9__gnu_cxx5__ops14_Val_less_iterclISt4pairIfNSt7__cxx1112basic_stringIcSt11char_traitsIcESaIcEEEENS_17__normal_iteratorIPSA_St6vectorISA_SaISA_EEEEEEbRT_T0_, symObjAddr: 0x36AC, symBinAddr: 0x100007920, symSize: 0x30 }
  - { offsetInCU: 0x1FD6F, offset: 0x1FD6F, size: 0x8, addend: 0x0, symName: __ZSt7forwardINSt7__cxx1112basic_stringIcSt11char_traitsIcESaIcEEEEOT_RNSt16remove_referenceIS6_E4typeE, symObjAddr: 0x3698, symBinAddr: 0x10000790C, symSize: 0x14 }
  - { offsetInCU: 0x1FDA1, offset: 0x1FDA1, size: 0x8, addend: 0x0, symName: __ZSt22__copy_move_backward_aILb1EN9__gnu_cxx17__normal_iteratorIPSt4pairIfNSt7__cxx1112basic_stringIcSt11char_traitsIcESaIcEEEESt6vectorIS9_SaIS9_EEEESE_ET1_T0_SG_SF_, symObjAddr: 0x3638, symBinAddr: 0x1000078AC, symSize: 0x60 }
  - { offsetInCU: 0x1FE09, offset: 0x1FE09, size: 0x8, addend: 0x0, symName: __ZSt12__miter_baseIN9__gnu_cxx17__normal_iteratorIPSt4pairIfNSt7__cxx1112basic_stringIcSt11char_traitsIcESaIcEEEESt6vectorIS9_SaIS9_EEEEET_SF_, symObjAddr: 0x3624, symBinAddr: 0x100007898, symSize: 0x14 }
  - { offsetInCU: 0x1FE3C, offset: 0x1FE3C, size: 0x8, addend: 0x0, symName: __ZStltIfNSt7__cxx1112basic_stringIcSt11char_traitsIcESaIcEEEEbRKSt4pairIT_T0_ESB_, symObjAddr: 0x3590, symBinAddr: 0x100007804, symSize: 0x94 }
  - { offsetInCU: 0x1FE89, offset: 0x1FE89, size: 0x8, addend: 0x0, symName: __ZSt9iter_swapIN9__gnu_cxx17__normal_iteratorIPSt4pairIfNSt7__cxx1112basic_stringIcSt11char_traitsIcESaIcEEEESt6vectorIS9_SaIS9_EEEESE_EvT_T0_, symObjAddr: 0x354C, symBinAddr: 0x1000077C0, symSize: 0x44 }
  - { offsetInCU: 0x1FED8, offset: 0x1FED8, size: 0x8, addend: 0x0, symName: __ZN9__gnu_cxx17__normal_iteratorIPSt4pairIfNSt7__cxx1112basic_stringIcSt11char_traitsIcESaIcEEEESt6vectorIS8_SaIS8_EEEmmEv, symObjAddr: 0x3524, symBinAddr: 0x100007798, symSize: 0x28 }
  - { offsetInCU: 0x1FEFE, offset: 0x1FEFE, size: 0x8, addend: 0x0, symName: __ZSt10__pop_heapIN9__gnu_cxx17__normal_iteratorIPSt4pairIfNSt7__cxx1112basic_stringIcSt11char_traitsIcESaIcEEEESt6vectorIS9_SaIS9_EEEENS0_5__ops15_Iter_less_iterEEvT_SH_SH_RT0_, symObjAddr: 0x3454, symBinAddr: 0x1000076C8, symSize: 0xD0 }
  - { offsetInCU: 0x1FF9F, offset: 0x1FF9F, size: 0x8, addend: 0x0, symName: __ZN9__gnu_cxxltIPSt4pairIfNSt7__cxx1112basic_stringIcSt11char_traitsIcESaIcEEEESt6vectorIS8_SaIS8_EEEEbRKNS_17__normal_iteratorIT_T0_EESI_, symObjAddr: 0x3410, symBinAddr: 0x100007684, symSize: 0x44 }
  - { offsetInCU: 0x1FFEC, offset: 0x1FFEC, size: 0x8, addend: 0x0, symName: __ZSt11__make_heapIN9__gnu_cxx17__normal_iteratorIPSt4pairIfNSt7__cxx1112basic_stringIcSt11char_traitsIcESaIcEEEESt6vectorIS9_SaIS9_EEEENS0_5__ops15_Iter_less_iterEEvT_SH_RT0_, symObjAddr: 0x32E0, symBinAddr: 0x100007554, symSize: 0x130 }
  - { offsetInCU: 0x200A7, offset: 0x200A7, size: 0x8, addend: 0x0, symName: __ZSt14__relocate_a_1IPSt4pairIfNSt7__cxx1112basic_stringIcSt11char_traitsIcESaIcEEEES8_SaIS7_EET0_T_SB_SA_RT1_, symObjAddr: 0x325C, symBinAddr: 0x1000074D0, symSize: 0x84 }
  - { offsetInCU: 0x20130, offset: 0x20130, size: 0x8, addend: 0x0, symName: __ZSt12__niter_baseIPSt4pairIfNSt7__cxx1112basic_stringIcSt11char_traitsIcESaIcEEEEET_S9_, symObjAddr: 0x3248, symBinAddr: 0x1000074BC, symSize: 0x14 }
  - { offsetInCU: 0x20167, offset: 0x20167, size: 0x8, addend: 0x0, symName: __ZNSt15__new_allocatorISt4pairIfNSt7__cxx1112basic_stringIcSt11char_traitsIcESaIcEEEEE8allocateEmPKv, symObjAddr: 0x31B8, symBinAddr: 0x10000742C, symSize: 0x90 }
  - { offsetInCU: 0x201F3, offset: 0x201F3, size: 0x8, addend: 0x0, symName: __ZNKSt12_Vector_baseISt4pairIfNSt7__cxx1112basic_stringIcSt11char_traitsIcESaIcEEEESaIS7_EE19_M_get_Tp_allocatorEv, symObjAddr: 0x31A4, symBinAddr: 0x100007418, symSize: 0x14 }
  - { offsetInCU: 0x20219, offset: 0x20219, size: 0x8, addend: 0x0, symName: __ZNSt6vectorISt4pairIfNSt7__cxx1112basic_stringIcSt11char_traitsIcESaIcEEEESaIS7_EE11_S_max_sizeERKS8_, symObjAddr: 0x3148, symBinAddr: 0x1000073BC, symSize: 0x5C }
  - { offsetInCU: 0x202D4, offset: 0x202D4, size: 0x8, addend: 0x0, symName: __ZNK9__gnu_cxx16__aligned_membufISt4pairIKNSt7__cxx1112basic_stringIcSt11char_traitsIcESaIcEEES1_IffEEE6_M_ptrEv, symObjAddr: 0x312C, symBinAddr: 0x1000073A0, symSize: 0x1C }
  - { offsetInCU: 0x20306, offset: 0x20306, size: 0x8, addend: 0x0, symName: __ZSt7forwardIRPSt13_Rb_tree_nodeISt4pairIKNSt7__cxx1112basic_stringIcSt11char_traitsIcESaIcEEES1_IffEEEEOT_RNSt16remove_referenceISE_E4typeE, symObjAddr: 0x3118, symBinAddr: 0x10000738C, symSize: 0x14 }
  - { offsetInCU: 0x203B8, offset: 0x203B8, size: 0x8, addend: 0x0, symName: __ZNSt15__new_allocatorISt13_Rb_tree_nodeISt4pairIKNSt7__cxx1112basic_stringIcSt11char_traitsIcESaIcEEES1_IffEEEE10deallocateEPSB_m, symObjAddr: 0x30DC, symBinAddr: 0x100007350, symSize: 0x3C }
  - { offsetInCU: 0x2042A, offset: 0x2042A, size: 0x8, addend: 0x0, symName: __ZSt25__unguarded_linear_insertIN9__gnu_cxx17__normal_iteratorIPSt4pairIfNSt7__cxx1112basic_stringIcSt11char_traitsIcESaIcEEEESt6vectorIS9_SaIS9_EEEENS0_5__ops14_Val_less_iterEEvT_T0_, symObjAddr: 0x3020, symBinAddr: 0x100007294, symSize: 0xBC }
  - { offsetInCU: 0x2049D, offset: 0x2049D, size: 0x8, addend: 0x0, symName: __ZNSt4pairIfNSt7__cxx1112basic_stringIcSt11char_traitsIcESaIcEEEEaSEOS6_, symObjAddr: 0x2FD4, symBinAddr: 0x100007248, symSize: 0x4C }
  - { offsetInCU: 0x204D4, offset: 0x204D4, size: 0x8, addend: 0x0, symName: __ZSt13move_backwardIN9__gnu_cxx17__normal_iteratorIPSt4pairIfNSt7__cxx1112basic_stringIcSt11char_traitsIcESaIcEEEESt6vectorIS9_SaIS9_EEEESE_ET0_T_SG_SF_, symObjAddr: 0x2F8C, symBinAddr: 0x100007200, symSize: 0x48 }
  - { offsetInCU: 0x20541, offset: 0x20541, size: 0x8, addend: 0x0, symName: __ZNK9__gnu_cxx5__ops15_Iter_less_iterclINS_17__normal_iteratorIPSt4pairIfNSt7__cxx1112basic_stringIcSt11char_traitsIcESaIcEEEESt6vectorISB_SaISB_EEEESG_EEbT_T0_, symObjAddr: 0x2F48, symBinAddr: 0x1000071BC, symSize: 0x44 }
  - { offsetInCU: 0x2059D, offset: 0x2059D, size: 0x8, addend: 0x0, symName: __ZN9__gnu_cxx17__normal_iteratorIPSt4pairIfNSt7__cxx1112basic_stringIcSt11char_traitsIcESaIcEEEESt6vectorIS8_SaIS8_EEEppEv, symObjAddr: 0x2F20, symBinAddr: 0x100007194, symSize: 0x28 }
  - { offsetInCU: 0x205C3, offset: 0x205C3, size: 0x8, addend: 0x0, symName: __ZN9__gnu_cxxeqIPSt4pairIfNSt7__cxx1112basic_stringIcSt11char_traitsIcESaIcEEEESt6vectorIS8_SaIS8_EEEEbRKNS_17__normal_iteratorIT_T0_EESI_, symObjAddr: 0x2EDC, symBinAddr: 0x100007150, symSize: 0x44 }
  - { offsetInCU: 0x20610, offset: 0x20610, size: 0x8, addend: 0x0, symName: __ZSt21__unguarded_partitionIN9__gnu_cxx17__normal_iteratorIPSt4pairIfNSt7__cxx1112basic_stringIcSt11char_traitsIcESaIcEEEESt6vectorIS9_SaIS9_EEEENS0_5__ops15_Iter_less_iterEET_SH_SH_SH_T0_, symObjAddr: 0x2E24, symBinAddr: 0x100007098, symSize: 0xB8 }
  - { offsetInCU: 0x2067F, offset: 0x2067F, size: 0x8, addend: 0x0, symName: __ZSt22__move_median_to_firstIN9__gnu_cxx17__normal_iteratorIPSt4pairIfNSt7__cxx1112basic_stringIcSt11char_traitsIcESaIcEEEESt6vectorIS9_SaIS9_EEEENS0_5__ops15_Iter_less_iterEEvT_SH_SH_SH_T0_, symObjAddr: 0x2D14, symBinAddr: 0x100006F88, symSize: 0x110 }
  - { offsetInCU: 0x206FA, offset: 0x206FA, size: 0x8, addend: 0x0, symName: __ZSt11__sort_heapIN9__gnu_cxx17__normal_iteratorIPSt4pairIfNSt7__cxx1112basic_stringIcSt11char_traitsIcESaIcEEEESt6vectorIS9_SaIS9_EEEENS0_5__ops15_Iter_less_iterEEvT_SH_RT0_, symObjAddr: 0x2CAC, symBinAddr: 0x100006F20, symSize: 0x68 }
  - { offsetInCU: 0x20758, offset: 0x20758, size: 0x8, addend: 0x0, symName: __ZSt13__heap_selectIN9__gnu_cxx17__normal_iteratorIPSt4pairIfNSt7__cxx1112basic_stringIcSt11char_traitsIcESaIcEEEESt6vectorIS9_SaIS9_EEEENS0_5__ops15_Iter_less_iterEEvT_SH_SH_T0_, symObjAddr: 0x2C10, symBinAddr: 0x100006E84, symSize: 0x9C }
  - { offsetInCU: 0x207EB, offset: 0x207EB, size: 0x8, addend: 0x0, symName: __ZSt12__relocate_aIPSt4pairIfNSt7__cxx1112basic_stringIcSt11char_traitsIcESaIcEEEES8_SaIS7_EET0_T_SB_SA_RT1_, symObjAddr: 0x2BB4, symBinAddr: 0x100006E28, symSize: 0x5C }
  - { offsetInCU: 0x2088B, offset: 0x2088B, size: 0x8, addend: 0x0, symName: __ZNKSt6vectorISt4pairIfNSt7__cxx1112basic_stringIcSt11char_traitsIcESaIcEEEESaIS7_EE8max_sizeEv, symObjAddr: 0x2B94, symBinAddr: 0x100006E08, symSize: 0x20 }
  - { offsetInCU: 0x208B5, offset: 0x208B5, size: 0x8, addend: 0x0, symName: __ZNKSt10_Select1stISt4pairIKNSt7__cxx1112basic_stringIcSt11char_traitsIcESaIcEEES0_IffEEEclERKS9_, symObjAddr: 0x2B7C, symBinAddr: 0x100006DF0, symSize: 0x18 }
  - { offsetInCU: 0x208F0, offset: 0x208F0, size: 0x8, addend: 0x0, symName: __ZNKSt13_Rb_tree_nodeISt4pairIKNSt7__cxx1112basic_stringIcSt11char_traitsIcESaIcEEES0_IffEEE9_M_valptrEv, symObjAddr: 0x2B5C, symBinAddr: 0x100006DD0, symSize: 0x20 }
  - { offsetInCU: 0x2091C, offset: 0x2091C, size: 0x8, addend: 0x0, symName: __ZSt7forwardIRPSt18_Rb_tree_node_baseEOT_RNSt16remove_referenceIS3_E4typeE, symObjAddr: 0x2B48, symBinAddr: 0x100006DBC, symSize: 0x14 }
  - { offsetInCU: 0x20A25, offset: 0x20A25, size: 0x8, addend: 0x0, symName: __ZNSt4pairIPSt18_Rb_tree_node_baseS1_EC1IRPSt13_Rb_tree_nodeIS_IKNSt7__cxx1112basic_stringIcSt11char_traitsIcESaIcEEES_IffEEERS1_Lb1EEEOT_OT0_, symObjAddr: 0x2B00, symBinAddr: 0x100006D74, symSize: 0x48 }
  - { offsetInCU: 0x209E4, offset: 0x209E4, size: 0x8, addend: 0x0, symName: __ZNSt8_Rb_treeINSt7__cxx1112basic_stringIcSt11char_traitsIcESaIcEEESt4pairIKS5_S6_IffEESt10_Select1stIS9_ESt4lessIS5_ESaIS9_EE17_M_construct_nodeIJRKSt21piecewise_construct_tSt5tupleIJRS7_EESK_IJEEEEEvPSt13_Rb_tree_nodeIS9_EDpOT_, symObjAddr: 0x2984, symBinAddr: 0x100006BF8, symSize: 0x17C }
  - { offsetInCU: 0x20AE5, offset: 0x20AE5, size: 0x8, addend: 0x0, symName: __ZNSt8_Rb_treeINSt7__cxx1112basic_stringIcSt11char_traitsIcESaIcEEESt4pairIKS5_S6_IffEESt10_Select1stIS9_ESt4lessIS5_ESaIS9_EE11_M_get_nodeEv, symObjAddr: 0x2948, symBinAddr: 0x100006BBC, symSize: 0x3C }
  - { offsetInCU: 0x20B9B, offset: 0x20B9B, size: 0x8, addend: 0x0, symName: __ZNSt8_Rb_treeINSt7__cxx1112basic_stringIcSt11char_traitsIcESaIcEEESt4pairIKS5_S6_IffEESt10_Select1stIS9_ESt4lessIS5_ESaIS9_EE21_M_get_Node_allocatorEv, symObjAddr: 0x2934, symBinAddr: 0x100006BA8, symSize: 0x14 }
  - { offsetInCU: 0x20BC1, offset: 0x20BC1, size: 0x8, addend: 0x0, symName: __ZSt26__unguarded_insertion_sortIN9__gnu_cxx17__normal_iteratorIPSt4pairIfNSt7__cxx1112basic_stringIcSt11char_traitsIcESaIcEEEESt6vectorIS9_SaIS9_EEEENS0_5__ops15_Iter_less_iterEEvT_SH_T0_, symObjAddr: 0x28C8, symBinAddr: 0x100006B3C, symSize: 0x6C }
  - { offsetInCU: 0x20C43, offset: 0x20C43, size: 0x8, addend: 0x0, symName: __ZSt16__insertion_sortIN9__gnu_cxx17__normal_iteratorIPSt4pairIfNSt7__cxx1112basic_stringIcSt11char_traitsIcESaIcEEEESt6vectorIS9_SaIS9_EEEENS0_5__ops15_Iter_less_iterEEvT_SH_T0_, symObjAddr: 0x27A8, symBinAddr: 0x100006A1C, symSize: 0x120 }
  - { offsetInCU: 0x20CD6, offset: 0x20CD6, size: 0x8, addend: 0x0, symName: __ZNK9__gnu_cxx17__normal_iteratorIPSt4pairIfNSt7__cxx1112basic_stringIcSt11char_traitsIcESaIcEEEESt6vectorIS8_SaIS8_EEEplEl, symObjAddr: 0x275C, symBinAddr: 0x1000069D0, symSize: 0x4C }
  - { offsetInCU: 0x20D0D, offset: 0x20D0D, size: 0x8, addend: 0x0, symName: __ZSt27__unguarded_partition_pivotIN9__gnu_cxx17__normal_iteratorIPSt4pairIfNSt7__cxx1112basic_stringIcSt11char_traitsIcESaIcEEEESt6vectorIS9_SaIS9_EEEENS0_5__ops15_Iter_less_iterEET_SH_SH_T0_, symObjAddr: 0x26B8, symBinAddr: 0x10000692C, symSize: 0xA4 }
  - { offsetInCU: 0x20D7C, offset: 0x20D7C, size: 0x8, addend: 0x0, symName: __ZSt14__partial_sortIN9__gnu_cxx17__normal_iteratorIPSt4pairIfNSt7__cxx1112basic_stringIcSt11char_traitsIcESaIcEEEESt6vectorIS9_SaIS9_EEEENS0_5__ops15_Iter_less_iterEEvT_SH_SH_T0_, symObjAddr: 0x266C, symBinAddr: 0x1000068E0, symSize: 0x4C }
  - { offsetInCU: 0x20DEF, offset: 0x20DEF, size: 0x8, addend: 0x0, symName: __ZNK9__gnu_cxx17__normal_iteratorIPSt4pairIfNSt7__cxx1112basic_stringIcSt11char_traitsIcESaIcEEEESt6vectorIS8_SaIS8_EEE4baseEv, symObjAddr: 0x2658, symBinAddr: 0x1000068CC, symSize: 0x14 }
  - { offsetInCU: 0x20E19, offset: 0x20E19, size: 0x8, addend: 0x0, symName: __ZNK9__gnu_cxx17__normal_iteratorIPSt4pairIfNSt7__cxx1112basic_stringIcSt11char_traitsIcESaIcEEEESt6vectorIS8_SaIS8_EEEdeEv, symObjAddr: 0x2640, symBinAddr: 0x1000068B4, symSize: 0x18 }
  - { offsetInCU: 0x20E43, offset: 0x20E43, size: 0x8, addend: 0x0, symName: __ZNK9__gnu_cxx17__normal_iteratorIPSt4pairIfNSt7__cxx1112basic_stringIcSt11char_traitsIcESaIcEEEESt6vectorIS8_SaIS8_EEEmiEl, symObjAddr: 0x25F0, symBinAddr: 0x100006864, symSize: 0x50 }
  - { offsetInCU: 0x20E7E, offset: 0x20E7E, size: 0x8, addend: 0x0, symName: __ZNSt12_Vector_baseISt4pairIfNSt7__cxx1112basic_stringIcSt11char_traitsIcESaIcEEEESaIS7_EE19_M_get_Tp_allocatorEv, symObjAddr: 0x25DC, symBinAddr: 0x100006850, symSize: 0x14 }
  - { offsetInCU: 0x20EA4, offset: 0x20EA4, size: 0x8, addend: 0x0, symName: __ZNSt6vectorISt4pairIfNSt7__cxx1112basic_stringIcSt11char_traitsIcESaIcEEEESaIS7_EE11_S_relocateEPS7_SA_SA_RS8_, symObjAddr: 0x25A8, symBinAddr: 0x10000681C, symSize: 0x34 }
  - { offsetInCU: 0x20F01, offset: 0x20F01, size: 0x8, addend: 0x0, symName: __ZSt12__to_addressISt4pairIfNSt7__cxx1112basic_stringIcSt11char_traitsIcESaIcEEEEEPT_S9_, symObjAddr: 0x2594, symBinAddr: 0x100006808, symSize: 0x14 }
  - { offsetInCU: 0x20F37, offset: 0x20F37, size: 0x8, addend: 0x0, symName: __ZNSt12_Vector_baseISt4pairIfNSt7__cxx1112basic_stringIcSt11char_traitsIcESaIcEEEESaIS7_EE11_M_allocateEm, symObjAddr: 0x2544, symBinAddr: 0x1000067B8, symSize: 0x50 }
  - { offsetInCU: 0x20F9F, offset: 0x20F9F, size: 0x8, addend: 0x0, symName: __ZNKSt6vectorISt4pairIfNSt7__cxx1112basic_stringIcSt11char_traitsIcESaIcEEEESaIS7_EE12_M_check_lenEmPKc, symObjAddr: 0x2474, symBinAddr: 0x1000066E8, symSize: 0xD0 }
  - { offsetInCU: 0x210A2, offset: 0x210A2, size: 0x8, addend: 0x0, symName: __ZNSt4pairIfNSt7__cxx1112basic_stringIcSt11char_traitsIcESaIcEEEEC1EOS6_, symObjAddr: 0x242C, symBinAddr: 0x1000066A0, symSize: 0x48 }
  - { offsetInCU: 0x21091, offset: 0x21091, size: 0x8, addend: 0x0, symName: __ZN9__gnu_cxx16__aligned_membufISt4pairIKNSt7__cxx1112basic_stringIcSt11char_traitsIcESaIcEEES1_IffEEE7_M_addrEv, symObjAddr: 0x2418, symBinAddr: 0x10000668C, symSize: 0x14 }
  - { offsetInCU: 0x210BA, offset: 0x210BA, size: 0x8, addend: 0x0, symName: __ZNSt8_Rb_treeINSt7__cxx1112basic_stringIcSt11char_traitsIcESaIcEEESt4pairIKS5_S6_IffEESt10_Select1stIS9_ESt4lessIS5_ESaIS9_EE14_M_insert_nodeEPSt18_Rb_tree_node_baseSH_PSt13_Rb_tree_nodeIS9_E, symObjAddr: 0x2348, symBinAddr: 0x1000065BC, symSize: 0xD0 }
  - { offsetInCU: 0x21124, offset: 0x21124, size: 0x8, addend: 0x0, symName: __ZNSt8_Rb_treeINSt7__cxx1112basic_stringIcSt11char_traitsIcESaIcEEESt4pairIKS5_S6_IffEESt10_Select1stIS9_ESt4lessIS5_ESaIS9_EE6_S_keyEPKSt13_Rb_tree_nodeIS9_E, symObjAddr: 0x2320, symBinAddr: 0x100006594, symSize: 0x28 }
  - { offsetInCU: 0x21152, offset: 0x21152, size: 0x8, addend: 0x0, symName: __ZNSt17_Rb_tree_iteratorISt4pairIKNSt7__cxx1112basic_stringIcSt11char_traitsIcESaIcEEES0_IffEEEmmEv, symObjAddr: 0x22F0, symBinAddr: 0x100006564, symSize: 0x30 }
  - { offsetInCU: 0x211FE, offset: 0x211FE, size: 0x8, addend: 0x0, symName: __ZNSt4pairIPSt18_Rb_tree_node_baseS1_EC1IRS1_S4_Lb1EEEOT_OT0_, symObjAddr: 0x22A8, symBinAddr: 0x10000651C, symSize: 0x48 }
  - { offsetInCU: 0x2120E, offset: 0x2120E, size: 0x8, addend: 0x0, symName: __ZNSt8_Rb_treeINSt7__cxx1112basic_stringIcSt11char_traitsIcESaIcEEESt4pairIKS5_S6_IffEESt10_Select1stIS9_ESt4lessIS5_ESaIS9_EE11_M_leftmostEv, symObjAddr: 0x2290, symBinAddr: 0x100006504, symSize: 0x18 }
  - { offsetInCU: 0x21238, offset: 0x21238, size: 0x8, addend: 0x0, symName: __ZNSt8_Rb_treeINSt7__cxx1112basic_stringIcSt11char_traitsIcESaIcEEESt4pairIKS5_S6_IffEESt10_Select1stIS9_ESt4lessIS5_ESaIS9_EE24_M_get_insert_unique_posERS7_, symObjAddr: 0x2138, symBinAddr: 0x1000063AC, symSize: 0x158 }
  - { offsetInCU: 0x2133E, offset: 0x2133E, size: 0x8, addend: 0x0, symName: __ZNSt4pairIPSt18_Rb_tree_node_baseS1_EC1IS1_S1_Lb1EEERKS1_S5_, symObjAddr: 0x20FC, symBinAddr: 0x100006370, symSize: 0x3C }
  - { offsetInCU: 0x2134E, offset: 0x2134E, size: 0x8, addend: 0x0, symName: __ZNSt8_Rb_treeINSt7__cxx1112basic_stringIcSt11char_traitsIcESaIcEEESt4pairIKS5_S6_IffEESt10_Select1stIS9_ESt4lessIS5_ESaIS9_EE12_M_rightmostEv, symObjAddr: 0x20E4, symBinAddr: 0x100006358, symSize: 0x18 }
  - { offsetInCU: 0x21378, offset: 0x21378, size: 0x8, addend: 0x0, symName: __ZNKSt8_Rb_treeINSt7__cxx1112basic_stringIcSt11char_traitsIcESaIcEEESt4pairIKS5_S6_IffEESt10_Select1stIS9_ESt4lessIS5_ESaIS9_EE4sizeEv, symObjAddr: 0x20CC, symBinAddr: 0x100006340, symSize: 0x18 }
  - { offsetInCU: 0x213A2, offset: 0x213A2, size: 0x8, addend: 0x0, symName: __ZNKSt23_Rb_tree_const_iteratorISt4pairIKNSt7__cxx1112basic_stringIcSt11char_traitsIcESaIcEEES0_IffEEE13_M_const_castEv, symObjAddr: 0x20A4, symBinAddr: 0x100006318, symSize: 0x28 }
  - { offsetInCU: 0x213CC, offset: 0x213CC, size: 0x8, addend: 0x0, symName: __ZNSt8_Rb_treeINSt7__cxx1112basic_stringIcSt11char_traitsIcESaIcEEESt4pairIKS5_S6_IffEESt10_Select1stIS9_ESt4lessIS5_ESaIS9_EE14_M_create_nodeIJRKSt21piecewise_construct_tSt5tupleIJRS7_EESK_IJEEEEEPSt13_Rb_tree_nodeIS9_EDpOT_, symObjAddr: 0x2034, symBinAddr: 0x1000062A8, symSize: 0x70 }
  - { offsetInCU: 0x214B9, offset: 0x214B9, size: 0x8, addend: 0x0, symName: __ZNSt10_Head_baseILm0ERKNSt7__cxx1112basic_stringIcSt11char_traitsIcESaIcEEELb0EEC2ES7_, symObjAddr: 0x2010, symBinAddr: 0x100006284, symSize: 0x24 }
  - { offsetInCU: 0x21494, offset: 0x21494, size: 0x8, addend: 0x0, symName: __ZNSt15__new_allocatorISt4pairIfNSt7__cxx1112basic_stringIcSt11char_traitsIcESaIcEEEEE10deallocateEPS7_m, symObjAddr: 0x1FD4, symBinAddr: 0x100006248, symSize: 0x3C }
  - { offsetInCU: 0x214DE, offset: 0x214DE, size: 0x8, addend: 0x0, symName: __ZNSt8_Rb_treeINSt7__cxx1112basic_stringIcSt11char_traitsIcESaIcEEESt4pairIKS5_S6_IffEESt10_Select1stIS9_ESt4lessIS5_ESaIS9_EE11_M_put_nodeEPSt13_Rb_tree_nodeIS9_E, symObjAddr: 0x1F88, symBinAddr: 0x1000061FC, symSize: 0x4C }
  - { offsetInCU: 0x2154F, offset: 0x2154F, size: 0x8, addend: 0x0, symName: __ZNSt8_Rb_treeINSt7__cxx1112basic_stringIcSt11char_traitsIcESaIcEEESt4pairIKS5_S6_IffEESt10_Select1stIS9_ESt4lessIS5_ESaIS9_EE15_M_destroy_nodeEPSt13_Rb_tree_nodeIS9_E, symObjAddr: 0x1F28, symBinAddr: 0x10000619C, symSize: 0x60 }
  - { offsetInCU: 0x215E0, offset: 0x215E0, size: 0x8, addend: 0x0, symName: __ZSt13__countl_zeroImEiT_, symObjAddr: 0x1ED4, symBinAddr: 0x100006148, symSize: 0x54 }
  - { offsetInCU: 0x21675, offset: 0x21675, size: 0x8, addend: 0x0, symName: __ZSt22__final_insertion_sortIN9__gnu_cxx17__normal_iteratorIPSt4pairIfNSt7__cxx1112basic_stringIcSt11char_traitsIcESaIcEEEESt6vectorIS9_SaIS9_EEEENS0_5__ops15_Iter_less_iterEEvT_SH_T0_, symObjAddr: 0x1E38, symBinAddr: 0x1000060AC, symSize: 0x9C }
  - { offsetInCU: 0x216D3, offset: 0x216D3, size: 0x8, addend: 0x0, symName: __ZSt16__introsort_loopIN9__gnu_cxx17__normal_iteratorIPSt4pairIfNSt7__cxx1112basic_stringIcSt11char_traitsIcESaIcEEEESt6vectorIS9_SaIS9_EEEElNS0_5__ops15_Iter_less_iterEEvT_SH_T0_T1_, symObjAddr: 0x1D80, symBinAddr: 0x100005FF4, symSize: 0xB8 }
  - { offsetInCU: 0x2176F, offset: 0x2176F, size: 0x8, addend: 0x0, symName: __ZSt4__lgIlET_S0_, symObjAddr: 0x1D5C, symBinAddr: 0x100005FD0, symSize: 0x24 }
  - { offsetInCU: 0x217A2, offset: 0x217A2, size: 0x8, addend: 0x0, symName: __ZN9__gnu_cxxmiIPSt4pairIfNSt7__cxx1112basic_stringIcSt11char_traitsIcESaIcEEEESt6vectorIS8_SaIS8_EEEENS_17__normal_iteratorIT_T0_E15difference_typeERKSG_SJ_, symObjAddr: 0x1D10, symBinAddr: 0x100005F84, symSize: 0x4C }
  - { offsetInCU: 0x217EF, offset: 0x217EF, size: 0x8, addend: 0x0, symName: __ZN9__gnu_cxxneIPSt4pairIfNSt7__cxx1112basic_stringIcSt11char_traitsIcESaIcEEEESt6vectorIS8_SaIS8_EEEEbRKNS_17__normal_iteratorIT_T0_EESI_, symObjAddr: 0x1CCC, symBinAddr: 0x100005F40, symSize: 0x44 }
  - { offsetInCU: 0x21840, offset: 0x21840, size: 0x8, addend: 0x0, symName: __ZNSt6vectorISt4pairIfNSt7__cxx1112basic_stringIcSt11char_traitsIcESaIcEEEESaIS7_EE4backEv, symObjAddr: 0x1C94, symBinAddr: 0x100005F08, symSize: 0x38 }
  - { offsetInCU: 0x2186A, offset: 0x2186A, size: 0x8, addend: 0x0, symName: __ZNSt6vectorISt4pairIfNSt7__cxx1112basic_stringIcSt11char_traitsIcESaIcEEEESaIS7_EE17_M_realloc_appendIJS7_EEEvDpOT_, symObjAddr: 0x1AA8, symBinAddr: 0x100005D1C, symSize: 0x1EC }
  - { offsetInCU: 0x21A75, offset: 0x21A75, size: 0x8, addend: 0x0, symName: __ZZNSt6vectorISt4pairIfNSt7__cxx1112basic_stringIcSt11char_traitsIcESaIcEEEESaIS7_EE17_M_realloc_appendIJS7_EEEvDpOT_EN6_GuardC1EPS7_mRS8_, symObjAddr: 0x1A04, symBinAddr: 0x100005C78, symSize: 0x44 }
  - { offsetInCU: 0x21AB3, offset: 0x21AB3, size: 0x8, addend: 0x0, symName: __ZZNSt6vectorISt4pairIfNSt7__cxx1112basic_stringIcSt11char_traitsIcESaIcEEEESaIS7_EE17_M_realloc_appendIJS7_EEEvDpOT_EN6_GuardD1Ev, symObjAddr: 0x1A48, symBinAddr: 0x100005CBC, symSize: 0x60 }
  - { offsetInCU: 0x21B6C, offset: 0x21B6C, size: 0x8, addend: 0x0, symName: __ZSt7forwardISt4pairIfNSt7__cxx1112basic_stringIcSt11char_traitsIcESaIcEEEEEOT_RNSt16remove_referenceIS8_E4typeE, symObjAddr: 0x19F0, symBinAddr: 0x100005C64, symSize: 0x14 }
  - { offsetInCU: 0x21BA2, offset: 0x21BA2, size: 0x8, addend: 0x0, symName: __ZN9__gnu_cxx16__aligned_membufISt4pairIKNSt7__cxx1112basic_stringIcSt11char_traitsIcESaIcEEES1_IffEEE6_M_ptrEv, symObjAddr: 0x19D4, symBinAddr: 0x100005C48, symSize: 0x1C }
  - { offsetInCU: 0x21BC8, offset: 0x21BC8, size: 0x8, addend: 0x0, symName: __ZNSt8_Rb_treeINSt7__cxx1112basic_stringIcSt11char_traitsIcESaIcEEESt4pairIKS5_S6_IffEESt10_Select1stIS9_ESt4lessIS5_ESaIS9_EE6_S_keyEPKSt18_Rb_tree_node_base, symObjAddr: 0x19B8, symBinAddr: 0x100005C2C, symSize: 0x1C }
  - { offsetInCU: 0x21BF6, offset: 0x21BF6, size: 0x8, addend: 0x0, symName: __ZNSt8_Rb_treeINSt7__cxx1112basic_stringIcSt11char_traitsIcESaIcEEESt4pairIKS5_S6_IffEESt10_Select1stIS9_ESt4lessIS5_ESaIS9_EE14_M_lower_boundEPSt13_Rb_tree_nodeIS9_EPSt18_Rb_tree_node_baseRS7_, symObjAddr: 0x191C, symBinAddr: 0x100005B90, symSize: 0x9C }
  - { offsetInCU: 0x21C53, offset: 0x21C53, size: 0x8, addend: 0x0, symName: __ZNSt8_Rb_treeINSt7__cxx1112basic_stringIcSt11char_traitsIcESaIcEEESt4pairIKS5_S6_IffEESt10_Select1stIS9_ESt4lessIS5_ESaIS9_EE6_M_endEv, symObjAddr: 0x1904, symBinAddr: 0x100005B78, symSize: 0x18 }
  - { offsetInCU: 0x21D1B, offset: 0x21D1B, size: 0x8, addend: 0x0, symName: __ZNSt17_Rb_tree_iteratorISt4pairIKNSt7__cxx1112basic_stringIcSt11char_traitsIcESaIcEEES0_IffEEEC1EPSt18_Rb_tree_node_base, symObjAddr: 0x18E0, symBinAddr: 0x100005B54, symSize: 0x24 }
  - { offsetInCU: 0x21CD4, offset: 0x21CD4, size: 0x8, addend: 0x0, symName: __ZNSt8_Rb_treeINSt7__cxx1112basic_stringIcSt11char_traitsIcESaIcEEESt4pairIKS5_S6_IffEESt10_Select1stIS9_ESt4lessIS5_ESaIS9_EE10_Auto_node9_M_insertES6_IPSt18_Rb_tree_node_baseSI_E, symObjAddr: 0x1894, symBinAddr: 0x100005B08, symSize: 0x4C }
  - { offsetInCU: 0x21D20, offset: 0x21D20, size: 0x8, addend: 0x0, symName: __ZNKSt8_Rb_treeINSt7__cxx1112basic_stringIcSt11char_traitsIcESaIcEEESt4pairIKS5_S6_IffEESt10_Select1stIS9_ESt4lessIS5_ESaIS9_EE10_Auto_node6_M_keyEv, symObjAddr: 0x1874, symBinAddr: 0x100005AE8, symSize: 0x20 }
  - { offsetInCU: 0x21D4A, offset: 0x21D4A, size: 0x8, addend: 0x0, symName: __ZNSt8_Rb_treeINSt7__cxx1112basic_stringIcSt11char_traitsIcESaIcEEESt4pairIKS5_S6_IffEESt10_Select1stIS9_ESt4lessIS5_ESaIS9_EE29_M_get_insert_hint_unique_posESt23_Rb_tree_const_iteratorIS9_ERS7_, symObjAddr: 0x1550, symBinAddr: 0x1000057C4, symSize: 0x324 }
  - { offsetInCU: 0x21EA4, offset: 0x21EA4, size: 0x8, addend: 0x0, symName: __ZNSt8_Rb_treeINSt7__cxx1112basic_stringIcSt11char_traitsIcESaIcEEESt4pairIKS5_S6_IffEESt10_Select1stIS9_ESt4lessIS5_ESaIS9_EE10_Auto_nodeD1Ev, symObjAddr: 0x150C, symBinAddr: 0x100005780, symSize: 0x44 }
  - { offsetInCU: 0x21F5B, offset: 0x21F5B, size: 0x8, addend: 0x0, symName: __ZNSt8_Rb_treeINSt7__cxx1112basic_stringIcSt11char_traitsIcESaIcEEESt4pairIKS5_S6_IffEESt10_Select1stIS9_ESt4lessIS5_ESaIS9_EE10_Auto_nodeC1IJRKSt21piecewise_construct_tSt5tupleIJRS7_EESL_IJEEEEERSF_DpOT_, symObjAddr: 0x1490, symBinAddr: 0x100005704, symSize: 0x7C }
  - { offsetInCU: 0x21EFA, offset: 0x21EFA, size: 0x8, addend: 0x0, symName: __ZSt7forwardISt5tupleIJEEEOT_RNSt16remove_referenceIS2_E4typeE, symObjAddr: 0x147C, symBinAddr: 0x1000056F0, symSize: 0x14 }
  - { offsetInCU: 0x21F32, offset: 0x21F32, size: 0x8, addend: 0x0, symName: __ZSt7forwardISt5tupleIJRKNSt7__cxx1112basic_stringIcSt11char_traitsIcESaIcEEEEEEOT_RNSt16remove_referenceISA_E4typeE, symObjAddr: 0x1468, symBinAddr: 0x1000056DC, symSize: 0x14 }
  - { offsetInCU: 0x21F6A, offset: 0x21F6A, size: 0x8, addend: 0x0, symName: __ZSt7forwardIRKSt21piecewise_construct_tEOT_RNSt16remove_referenceIS3_E4typeE, symObjAddr: 0x1454, symBinAddr: 0x1000056C8, symSize: 0x14 }
  - { offsetInCU: 0x2201B, offset: 0x2201B, size: 0x8, addend: 0x0, symName: __ZNSt11_Tuple_implILm0EJRKNSt7__cxx1112basic_stringIcSt11char_traitsIcESaIcEEEEEC2ES7_, symObjAddr: 0x142C, symBinAddr: 0x1000056A0, symSize: 0x28 }
  - { offsetInCU: 0x21FF3, offset: 0x21FF3, size: 0x8, addend: 0x0, symName: __ZStltIcSt11char_traitsIcESaIcEEbRKNSt7__cxx1112basic_stringIT_T0_T1_EESA_, symObjAddr: 0x1400, symBinAddr: 0x100005674, symSize: 0x2C }
  - { offsetInCU: 0x2204D, offset: 0x2204D, size: 0x8, addend: 0x0, symName: __ZNKSt8_Rb_treeINSt7__cxx1112basic_stringIcSt11char_traitsIcESaIcEEESt4pairIKS5_S6_IffEESt10_Select1stIS9_ESt4lessIS5_ESaIS9_EE8key_compEv, symObjAddr: 0x13E8, symBinAddr: 0x10000565C, symSize: 0x18 }
  - { offsetInCU: 0x22077, offset: 0x22077, size: 0x8, addend: 0x0, symName: __ZNSt8_Rb_treeINSt7__cxx1112basic_stringIcSt11char_traitsIcESaIcEEESt4pairIKS5_S6_IffEESt10_Select1stIS9_ESt4lessIS5_ESaIS9_EE11lower_boundERS7_, symObjAddr: 0x13A0, symBinAddr: 0x100005614, symSize: 0x48 }
  - { offsetInCU: 0x220FA, offset: 0x220FA, size: 0x8, addend: 0x0, symName: __ZNKSt8_Rb_treeINSt7__cxx1112basic_stringIcSt11char_traitsIcESaIcEEESt4pairIKS5_S6_IffEESt10_Select1stIS9_ESt4lessIS5_ESaIS9_EE9_M_mbeginEv, symObjAddr: 0x1388, symBinAddr: 0x1000055FC, symSize: 0x18 }
  - { offsetInCU: 0x22124, offset: 0x22124, size: 0x8, addend: 0x0, symName: __ZNSt8_Rb_treeINSt7__cxx1112basic_stringIcSt11char_traitsIcESaIcEEESt4pairIKS5_S6_IffEESt10_Select1stIS9_ESt4lessIS5_ESaIS9_EE12_M_drop_nodeEPSt13_Rb_tree_nodeIS9_E, symObjAddr: 0x1354, symBinAddr: 0x1000055C8, symSize: 0x34 }
  - { offsetInCU: 0x2215B, offset: 0x2215B, size: 0x8, addend: 0x0, symName: __ZNSt8_Rb_treeINSt7__cxx1112basic_stringIcSt11char_traitsIcESaIcEEESt4pairIKS5_S6_IffEESt10_Select1stIS9_ESt4lessIS5_ESaIS9_EE7_S_leftEPSt18_Rb_tree_node_base, symObjAddr: 0x133C, symBinAddr: 0x1000055B0, symSize: 0x18 }
  - { offsetInCU: 0x22185, offset: 0x22185, size: 0x8, addend: 0x0, symName: __ZNSt8_Rb_treeINSt7__cxx1112basic_stringIcSt11char_traitsIcESaIcEEESt4pairIKS5_S6_IffEESt10_Select1stIS9_ESt4lessIS5_ESaIS9_EE8_S_rightEPSt18_Rb_tree_node_base, symObjAddr: 0x1324, symBinAddr: 0x100005598, symSize: 0x18 }
  - { offsetInCU: 0x221C5, offset: 0x221C5, size: 0x8, addend: 0x0, symName: __ZSt11__bit_widthImEiT_, symObjAddr: 0x12F4, symBinAddr: 0x100005568, symSize: 0x30 }
  - { offsetInCU: 0x22209, offset: 0x22209, size: 0x8, addend: 0x0, symName: __ZSt6__sortIN9__gnu_cxx17__normal_iteratorIPSt4pairIfNSt7__cxx1112basic_stringIcSt11char_traitsIcESaIcEEEESt6vectorIS9_SaIS9_EEEENS0_5__ops15_Iter_less_iterEEvT_SH_T0_, symObjAddr: 0x127C, symBinAddr: 0x1000054F0, symSize: 0x78 }
  - { offsetInCU: 0x2230E, offset: 0x2230E, size: 0x8, addend: 0x0, symName: __ZN9__gnu_cxx17__normal_iteratorIPSt4pairIfNSt7__cxx1112basic_stringIcSt11char_traitsIcESaIcEEEESt6vectorIS8_SaIS8_EEEC1ERKS9_, symObjAddr: 0x1254, symBinAddr: 0x1000054C8, symSize: 0x28 }
  - { offsetInCU: 0x222C2, offset: 0x222C2, size: 0x8, addend: 0x0, symName: __ZNSt6vectorISt4pairIfNSt7__cxx1112basic_stringIcSt11char_traitsIcESaIcEEEESaIS7_EE12emplace_backIJS7_EEERS7_DpOT_, symObjAddr: 0x1178, symBinAddr: 0x1000053EC, symSize: 0xDC }
  - { offsetInCU: 0x22374, offset: 0x22374, size: 0x8, addend: 0x0, symName: __ZSt4moveIRSt4pairIfNSt7__cxx1112basic_stringIcSt11char_traitsIcESaIcEEEEEONSt16remove_referenceIT_E4typeEOSA_, symObjAddr: 0x1164, symBinAddr: 0x1000053D8, symSize: 0x14 }
  - { offsetInCU: 0x223AC, offset: 0x223AC, size: 0x8, addend: 0x0, symName: __ZSt7forwardIRKNSt7__cxx1112basic_stringIcSt11char_traitsIcESaIcEEEEOT_RNSt16remove_referenceIS8_E4typeE, symObjAddr: 0x1150, symBinAddr: 0x1000053C4, symSize: 0x14 }
  - { offsetInCU: 0x223E4, offset: 0x223E4, size: 0x8, addend: 0x0, symName: __ZSt7forwardIfEOT_RNSt16remove_referenceIS0_E4typeE, symObjAddr: 0x113C, symBinAddr: 0x1000053B0, symSize: 0x14 }
  - { offsetInCU: 0x2241A, offset: 0x2241A, size: 0x8, addend: 0x0, symName: __ZNSt13_Rb_tree_nodeISt4pairIKNSt7__cxx1112basic_stringIcSt11char_traitsIcESaIcEEES0_IffEEE9_M_valptrEv, symObjAddr: 0x111C, symBinAddr: 0x100005390, symSize: 0x20 }
  - { offsetInCU: 0x22444, offset: 0x22444, size: 0x8, addend: 0x0, symName: __ZNSt8_Rb_treeINSt7__cxx1112basic_stringIcSt11char_traitsIcESaIcEEESt4pairIKS5_S6_IffEESt10_Select1stIS9_ESt4lessIS5_ESaIS9_EE5beginEv, symObjAddr: 0x10F4, symBinAddr: 0x100005368, symSize: 0x28 }
  - { offsetInCU: 0x2246E, offset: 0x2246E, size: 0x8, addend: 0x0, symName: __ZNSt8_Rb_treeINSt7__cxx1112basic_stringIcSt11char_traitsIcESaIcEEESt4pairIKS5_S6_IffEESt10_Select1stIS9_ESt4lessIS5_ESaIS9_EE3endEv, symObjAddr: 0x10CC, symBinAddr: 0x100005340, symSize: 0x28 }
  - { offsetInCU: 0x22498, offset: 0x22498, size: 0x8, addend: 0x0, symName: __ZNSt8_Rb_treeINSt7__cxx1112basic_stringIcSt11char_traitsIcESaIcEEESt4pairIKS5_S6_IffEESt10_Select1stIS9_ESt4lessIS5_ESaIS9_EE4findERS7_, symObjAddr: 0x1024, symBinAddr: 0x100005298, symSize: 0xA8 }
  - { offsetInCU: 0x224E4, offset: 0x224E4, size: 0x8, addend: 0x0, symName: __ZNSt8_Rb_treeINSt7__cxx1112basic_stringIcSt11char_traitsIcESaIcEEESt4pairIKS5_S6_IffEESt10_Select1stIS9_ESt4lessIS5_ESaIS9_EE22_M_emplace_hint_uniqueIJRKSt21piecewise_construct_tSt5tupleIJRS7_EESK_IJEEEEESt17_Rb_tree_iteratorIS9_ESt23_Rb_tree_const_iteratorIS9_EDpOT_, symObjAddr: 0xF4C, symBinAddr: 0x1000051C0, symSize: 0xD8 }
  - { offsetInCU: 0x22624, offset: 0x22624, size: 0x8, addend: 0x0, symName: __ZNSt23_Rb_tree_const_iteratorISt4pairIKNSt7__cxx1112basic_stringIcSt11char_traitsIcESaIcEEES0_IffEEEC1ERKSt17_Rb_tree_iteratorIS9_E, symObjAddr: 0xF24, symBinAddr: 0x100005198, symSize: 0x28 }
  - { offsetInCU: 0x22656, offset: 0x22656, size: 0x8, addend: 0x0, symName: __ZNSt5tupleIJRKNSt7__cxx1112basic_stringIcSt11char_traitsIcESaIcEEEEEC1ILb1ELb1EEES7_, symObjAddr: 0xEFC, symBinAddr: 0x100005170, symSize: 0x28 }
  - { offsetInCU: 0x2263D, offset: 0x2263D, size: 0x8, addend: 0x0, symName: __ZNKSt4lessINSt7__cxx1112basic_stringIcSt11char_traitsIcESaIcEEEEclERKS5_S8_, symObjAddr: 0xED4, symBinAddr: 0x100005148, symSize: 0x28 }
  - { offsetInCU: 0x22689, offset: 0x22689, size: 0x8, addend: 0x0, symName: __ZNKSt3mapINSt7__cxx1112basic_stringIcSt11char_traitsIcESaIcEEESt4pairIffESt4lessIS5_ESaIS6_IKS5_S7_EEE8key_compEv, symObjAddr: 0xEA8, symBinAddr: 0x10000511C, symSize: 0x2C }
  - { offsetInCU: 0x226B3, offset: 0x226B3, size: 0x8, addend: 0x0, symName: __ZNSt3mapINSt7__cxx1112basic_stringIcSt11char_traitsIcESaIcEEESt4pairIffESt4lessIS5_ESaIS6_IKS5_S7_EEE11lower_boundERSA_, symObjAddr: 0xE84, symBinAddr: 0x1000050F8, symSize: 0x24 }
  - { offsetInCU: 0x226EE, offset: 0x226EE, size: 0x8, addend: 0x0, symName: __ZNSt12_Vector_baseISt4pairIfNSt7__cxx1112basic_stringIcSt11char_traitsIcESaIcEEEESaIS7_EE13_M_deallocateEPS7_m, symObjAddr: 0xE2C, symBinAddr: 0x1000050A0, symSize: 0x58 }
  - { offsetInCU: 0x227EB, offset: 0x227EB, size: 0x8, addend: 0x0, symName: __ZNSt15__new_allocatorISt4pairIfNSt7__cxx1112basic_stringIcSt11char_traitsIcESaIcEEEEED2Ev, symObjAddr: 0xE18, symBinAddr: 0x10000508C, symSize: 0x14 }
  - { offsetInCU: 0x22842, offset: 0x22842, size: 0x8, addend: 0x0, symName: __ZNSt12_Vector_baseISt4pairIfNSt7__cxx1112basic_stringIcSt11char_traitsIcESaIcEEEESaIS7_EE17_Vector_impl_dataC2Ev, symObjAddr: 0xDEC, symBinAddr: 0x100005060, symSize: 0x2C }
  - { offsetInCU: 0x22810, offset: 0x22810, size: 0x8, addend: 0x0, symName: __ZNSt8_Rb_treeINSt7__cxx1112basic_stringIcSt11char_traitsIcESaIcEEESt4pairIKS5_S6_IffEESt10_Select1stIS9_ESt4lessIS5_ESaIS9_EE8_M_beginEv, symObjAddr: 0xDD0, symBinAddr: 0x100005044, symSize: 0x1C }
  - { offsetInCU: 0x2283A, offset: 0x2283A, size: 0x8, addend: 0x0, symName: __ZNSt8_Rb_treeINSt7__cxx1112basic_stringIcSt11char_traitsIcESaIcEEESt4pairIKS5_S6_IffEESt10_Select1stIS9_ESt4lessIS5_ESaIS9_EE8_M_eraseEPSt13_Rb_tree_nodeIS9_E, symObjAddr: 0xD6C, symBinAddr: 0x100004FE0, symSize: 0x64 }
  - { offsetInCU: 0x2292E, offset: 0x2292E, size: 0x8, addend: 0x0, symName: __ZNSt15__new_allocatorISt13_Rb_tree_nodeISt4pairIKNSt7__cxx1112basic_stringIcSt11char_traitsIcESaIcEEES1_IffEEEED2Ev, symObjAddr: 0xD58, symBinAddr: 0x100004FCC, symSize: 0x14 }
  - { offsetInCU: 0x22958, offset: 0x22958, size: 0x8, addend: 0x0, symName: __ZNSt20_Rb_tree_key_compareISt4lessINSt7__cxx1112basic_stringIcSt11char_traitsIcESaIcEEEEEC2Ev, symObjAddr: 0xD44, symBinAddr: 0x100004FB8, symSize: 0x14 }
  - { offsetInCU: 0x22935, offset: 0x22935, size: 0x8, addend: 0x0, symName: __ZN9__gnu_cxx11char_traitsIcE2eqERKcS3_, symObjAddr: 0xD14, symBinAddr: 0x100004F88, symSize: 0x30 }
  - { offsetInCU: 0x22972, offset: 0x22972, size: 0x8, addend: 0x0, symName: __ZNSt6vectorISt4pairIfNSt7__cxx1112basic_stringIcSt11char_traitsIcESaIcEEEESaIS7_EEixEm, symObjAddr: 0xCE0, symBinAddr: 0x100004F54, symSize: 0x34 }
  - { offsetInCU: 0x229A9, offset: 0x229A9, size: 0x8, addend: 0x0, symName: __ZSt3minIiERKT_S2_S2_, symObjAddr: 0xCA8, symBinAddr: 0x100004F1C, symSize: 0x38 }
  - { offsetInCU: 0x229EF, offset: 0x229EF, size: 0x8, addend: 0x0, symName: __ZNKSt6vectorISt4pairIfNSt7__cxx1112basic_stringIcSt11char_traitsIcESaIcEEEESaIS7_EE4sizeEv, symObjAddr: 0xC74, symBinAddr: 0x100004EE8, symSize: 0x34 }
  - { offsetInCU: 0x22A15, offset: 0x22A15, size: 0x8, addend: 0x0, symName: __ZSt4sortIN9__gnu_cxx17__normal_iteratorIPSt4pairIfNSt7__cxx1112basic_stringIcSt11char_traitsIcESaIcEEEESt6vectorIS9_SaIS9_EEEEEvT_SF_, symObjAddr: 0xC3C, symBinAddr: 0x100004EB0, symSize: 0x38 }
  - { offsetInCU: 0x22A5D, offset: 0x22A5D, size: 0x8, addend: 0x0, symName: __ZNSt6vectorISt4pairIfNSt7__cxx1112basic_stringIcSt11char_traitsIcESaIcEEEESaIS7_EE3endEv, symObjAddr: 0xC14, symBinAddr: 0x100004E88, symSize: 0x28 }
  - { offsetInCU: 0x22A87, offset: 0x22A87, size: 0x8, addend: 0x0, symName: __ZNSt6vectorISt4pairIfNSt7__cxx1112basic_stringIcSt11char_traitsIcESaIcEEEESaIS7_EE5beginEv, symObjAddr: 0xBF0, symBinAddr: 0x100004E64, symSize: 0x24 }
  - { offsetInCU: 0x22AB1, offset: 0x22AB1, size: 0x8, addend: 0x0, symName: __ZNSt6vectorISt4pairIfNSt7__cxx1112basic_stringIcSt11char_traitsIcESaIcEEEESaIS7_EE9push_backEOS7_, symObjAddr: 0xBC0, symBinAddr: 0x100004E34, symSize: 0x30 }
  - { offsetInCU: 0x22B88, offset: 0x22B88, size: 0x8, addend: 0x0, symName: __ZNSt4pairIfNSt7__cxx1112basic_stringIcSt11char_traitsIcESaIcEEEEC1IfRKS5_Lb1EEEOT_OT0_, symObjAddr: 0xB68, symBinAddr: 0x100004DDC, symSize: 0x58 }
  - { offsetInCU: 0x22B7E, offset: 0x22B7E, size: 0x8, addend: 0x0, symName: __ZNKSt17_Rb_tree_iteratorISt4pairIKNSt7__cxx1112basic_stringIcSt11char_traitsIcESaIcEEES0_IffEEEdeEv, symObjAddr: 0xB48, symBinAddr: 0x100004DBC, symSize: 0x20 }
  - { offsetInCU: 0x22BA8, offset: 0x22BA8, size: 0x8, addend: 0x0, symName: __ZNSt17_Rb_tree_iteratorISt4pairIKNSt7__cxx1112basic_stringIcSt11char_traitsIcESaIcEEES0_IffEEEppEv, symObjAddr: 0xB18, symBinAddr: 0x100004D8C, symSize: 0x30 }
  - { offsetInCU: 0x22BD4, offset: 0x22BD4, size: 0x8, addend: 0x0, symName: __ZStneRKSt17_Rb_tree_iteratorISt4pairIKNSt7__cxx1112basic_stringIcSt11char_traitsIcESaIcEEES0_IffEEESC_, symObjAddr: 0xAE8, symBinAddr: 0x100004D5C, symSize: 0x30 }
  - { offsetInCU: 0x22C13, offset: 0x22C13, size: 0x8, addend: 0x0, symName: __ZNSt3mapINSt7__cxx1112basic_stringIcSt11char_traitsIcESaIcEEESt4pairIffESt4lessIS5_ESaIS6_IKS5_S7_EEE5beginEv, symObjAddr: 0xACC, symBinAddr: 0x100004D40, symSize: 0x1C }
  - { offsetInCU: 0x22C39, offset: 0x22C39, size: 0x8, addend: 0x0, symName: __ZSteqRKSt17_Rb_tree_iteratorISt4pairIKNSt7__cxx1112basic_stringIcSt11char_traitsIcESaIcEEES0_IffEEESC_, symObjAddr: 0xA9C, symBinAddr: 0x100004D10, symSize: 0x30 }
  - { offsetInCU: 0x22C78, offset: 0x22C78, size: 0x8, addend: 0x0, symName: __ZNSt3mapINSt7__cxx1112basic_stringIcSt11char_traitsIcESaIcEEESt4pairIffESt4lessIS5_ESaIS6_IKS5_S7_EEE3endEv, symObjAddr: 0xA80, symBinAddr: 0x100004CF4, symSize: 0x1C }
  - { offsetInCU: 0x22CA2, offset: 0x22CA2, size: 0x8, addend: 0x0, symName: __ZNSt3mapINSt7__cxx1112basic_stringIcSt11char_traitsIcESaIcEEESt4pairIffESt4lessIS5_ESaIS6_IKS5_S7_EEE4findERSA_, symObjAddr: 0xA5C, symBinAddr: 0x100004CD0, symSize: 0x24 }
  - { offsetInCU: 0x22CDD, offset: 0x22CDD, size: 0x8, addend: 0x0, symName: __ZNSt3mapINSt7__cxx1112basic_stringIcSt11char_traitsIcESaIcEEESt4pairIffESt4lessIS5_ESaIS6_IKS5_S7_EEEixERSA_, symObjAddr: 0x970, symBinAddr: 0x100004BE4, symSize: 0xEC }
  - { offsetInCU: 0x22D25, offset: 0x22D25, size: 0x8, addend: 0x0, symName: __ZSteqIcSt11char_traitsIcESaIcEEbRKNSt7__cxx1112basic_stringIT_T0_T1_EEPKS5_, symObjAddr: 0x8FC, symBinAddr: 0x100004B70, symSize: 0x74 }
  - { offsetInCU: 0x22DFE, offset: 0x22DFE, size: 0x8, addend: 0x0, symName: __ZNSt12_Vector_baseISt4pairIfNSt7__cxx1112basic_stringIcSt11char_traitsIcESaIcEEEESaIS7_EED2Ev, symObjAddr: 0x8A0, symBinAddr: 0x100004B14, symSize: 0x5C }
  - { offsetInCU: 0x22E6C, offset: 0x22E6C, size: 0x8, addend: 0x0, symName: __ZNSt12_Vector_baseISt4pairIfNSt7__cxx1112basic_stringIcSt11char_traitsIcESaIcEEEESaIS7_EE12_Vector_implC1Ev, symObjAddr: 0x868, symBinAddr: 0x100004ADC, symSize: 0x38 }
  - { offsetInCU: 0x22F12, offset: 0x22F12, size: 0x8, addend: 0x0, symName: __ZNSt8_Rb_treeINSt7__cxx1112basic_stringIcSt11char_traitsIcESaIcEEESt4pairIKS5_S6_IffEESt10_Select1stIS9_ESt4lessIS5_ESaIS9_EED1Ev, symObjAddr: 0x834, symBinAddr: 0x100004AA8, symSize: 0x34 }
  - { offsetInCU: 0x22F8A, offset: 0x22F8A, size: 0x8, addend: 0x0, symName: __ZNSt8_Rb_treeINSt7__cxx1112basic_stringIcSt11char_traitsIcESaIcEEESt4pairIKS5_S6_IffEESt10_Select1stIS9_ESt4lessIS5_ESaIS9_EE13_Rb_tree_implISD_Lb1EEC1Ev, symObjAddr: 0x7F0, symBinAddr: 0x100004A64, symSize: 0x44 }
  - { offsetInCU: 0x22F5C, offset: 0x22F5C, size: 0x8, addend: 0x0, symName: __ZSt3maxImERKT_S2_S2_, symObjAddr: 0x7B8, symBinAddr: 0x100004A2C, symSize: 0x38 }
  - { offsetInCU: 0x22FA0, offset: 0x22FA0, size: 0x8, addend: 0x0, symName: __ZN9__gnu_cxx11char_traitsIcE6lengthEPKc, symObjAddr: 0x760, symBinAddr: 0x1000049D4, symSize: 0x58 }
  - { offsetInCU: 0x22FE2, offset: 0x22FE2, size: 0x8, addend: 0x0, symName: _main, symObjAddr: 0x3BC, symBinAddr: 0x100004630, symSize: 0x3A4 }
  - { offsetInCU: 0x2310E, offset: 0x2310E, size: 0x8, addend: 0x0, symName: __ZNSt4pairIfNSt7__cxx1112basic_stringIcSt11char_traitsIcESaIcEEEED1Ev, symObjAddr: 0x398, symBinAddr: 0x10000460C, symSize: 0x24 }
  - { offsetInCU: 0x23162, offset: 0x23162, size: 0x8, addend: 0x0, symName: __ZNSt4pairIKNSt7__cxx1112basic_stringIcSt11char_traitsIcESaIcEEES_IffEED1Ev, symObjAddr: 0x378, symBinAddr: 0x1000045EC, symSize: 0x20 }
  - { offsetInCU: 0x231AB, offset: 0x231AB, size: 0x8, addend: 0x0, symName: __ZNSt4pairIKNSt7__cxx1112basic_stringIcSt11char_traitsIcESaIcEEES_IffEEC1ERKS8_, symObjAddr: 0x340, symBinAddr: 0x1000045B4, symSize: 0x38 }
  - { offsetInCU: 0x231FC, offset: 0x231FC, size: 0x8, addend: 0x0, symName: __ZNSt6vectorISt4pairIfNSt7__cxx1112basic_stringIcSt11char_traitsIcESaIcEEEESaIS7_EEC1Ev, symObjAddr: 0x320, symBinAddr: 0x100004594, symSize: 0x20 }
  - { offsetInCU: 0x23243, offset: 0x23243, size: 0x8, addend: 0x0, symName: __ZNSt12_Vector_baseISt4pairIfNSt7__cxx1112basic_stringIcSt11char_traitsIcESaIcEEEESaIS7_EEC2Ev, symObjAddr: 0x300, symBinAddr: 0x100004574, symSize: 0x20 }
  - { offsetInCU: 0x2329E, offset: 0x2329E, size: 0x8, addend: 0x0, symName: __ZNSt12_Vector_baseISt4pairIfNSt7__cxx1112basic_stringIcSt11char_traitsIcESaIcEEEESaIS7_EE12_Vector_implD1Ev, symObjAddr: 0x2D4, symBinAddr: 0x100004548, symSize: 0x2C }
  - { offsetInCU: 0x232FF, offset: 0x232FF, size: 0x8, addend: 0x0, symName: __ZNSt3mapINSt7__cxx1112basic_stringIcSt11char_traitsIcESaIcEEESt4pairIffESt4lessIS5_ESaIS6_IKS5_S7_EEEC1Ev, symObjAddr: 0x2B4, symBinAddr: 0x100004528, symSize: 0x20 }
  - { offsetInCU: 0x23357, offset: 0x23357, size: 0x8, addend: 0x0, symName: __ZNSt8_Rb_treeINSt7__cxx1112basic_stringIcSt11char_traitsIcESaIcEEESt4pairIKS5_S6_IffEESt10_Select1stIS9_ESt4lessIS5_ESaIS9_EEC1Ev, symObjAddr: 0x294, symBinAddr: 0x100004508, symSize: 0x20 }
  - { offsetInCU: 0x233BD, offset: 0x233BD, size: 0x8, addend: 0x0, symName: __ZNSt8_Rb_treeINSt7__cxx1112basic_stringIcSt11char_traitsIcESaIcEEESt4pairIKS5_S6_IffEESt10_Select1stIS9_ESt4lessIS5_ESaIS9_EE13_Rb_tree_implISD_Lb1EED1Ev, symObjAddr: 0x268, symBinAddr: 0x1000044DC, symSize: 0x2C }
  - { offsetInCU: 0x23370, offset: 0x23370, size: 0x8, addend: 0x0, symName: __ZNSt15_Rb_tree_header8_M_resetEv, symObjAddr: 0x22C, symBinAddr: 0x1000044A0, symSize: 0x3C }
  - { offsetInCU: 0x233CB, offset: 0x233CB, size: 0x8, addend: 0x0, symName: __ZNSt15_Rb_tree_headerC2Ev, symObjAddr: 0x204, symBinAddr: 0x100004478, symSize: 0x28 }
  - { offsetInCU: 0x233D6, offset: 0x233D6, size: 0x8, addend: 0x0, symName: __ZSt3minImERKT_S2_S2_, symObjAddr: 0x1CC, symBinAddr: 0x100004440, symSize: 0x38 }
  - { offsetInCU: 0x23418, offset: 0x23418, size: 0x8, addend: 0x0, symName: __ZNSt11char_traitsIcE6lengthEPKc, symObjAddr: 0x190, symBinAddr: 0x100004404, symSize: 0x3C }
  - { offsetInCU: 0x2345C, offset: 0x2345C, size: 0x8, addend: 0x0, symName: __ZNSt11char_traitsIcE7compareEPKcS2_m, symObjAddr: 0xA0, symBinAddr: 0x100004314, symSize: 0xF0 }
  - { offsetInCU: 0x234E6, offset: 0x234E6, size: 0x8, addend: 0x0, symName: __ZNSt11char_traitsIcE2ltERKcS2_, symObjAddr: 0x68, symBinAddr: 0x1000042DC, symSize: 0x38 }
  - { offsetInCU: 0x2352E, offset: 0x2352E, size: 0x8, addend: 0x0, symName: __ZdlPvS_, symObjAddr: 0x50, symBinAddr: 0x1000042C4, symSize: 0x18 }
  - { offsetInCU: 0x23563, offset: 0x23563, size: 0x8, addend: 0x0, symName: __ZnwmPv, symObjAddr: 0x38, symBinAddr: 0x1000042AC, symSize: 0x18 }
  - { offsetInCU: 0x23590, offset: 0x23590, size: 0x8, addend: 0x0, symName: __ZN9__gnu_cxx5__ops15__val_comp_iterENS0_15_Iter_less_iterE, symObjAddr: 0x20, symBinAddr: 0x100004294, symSize: 0x18 }
  - { offsetInCU: 0x2360E, offset: 0x2360E, size: 0x8, addend: 0x0, symName: __ZN9__gnu_cxx5__ops14_Iter_less_valC1ENS0_15_Iter_less_iterE, symObjAddr: 0x8, symBinAddr: 0x10000427C, symSize: 0x18 }
  - { offsetInCU: 0x23601, offset: 0x23601, size: 0x8, addend: 0x0, symName: __ZN9__gnu_cxx5__ops16__iter_less_iterEv, symObjAddr: 0x0, symBinAddr: 0x100004274, symSize: 0x8 }
...
