---
triple:          'arm64-apple-darwin'
binary-path:     '/Users/pai/code/CU Grader/output/Dept-Selection'
relocations:
  - { offsetInCU: 0x248EE, offset: 0x248EE, size: 0x8, addend: 0x0, symName: __ZStL8__ioinit, symObjAddr: 0xE5DB8, symBinAddr: 0x100014000, symSize: 0x0 }
  - { offsetInCU: 0x24DD8, offset: 0x24DD8, size: 0x8, addend: 0x0, symName: __Z4deptB5cxx11, symObjAddr: 0xE5DC0, symBinAddr: 0x100014008, symSize: 0x0 }
  - { offsetInCU: 0x24F74, offset: 0x24F74, size: 0x8, addend: 0x0, symName: __Z6selectB5cxx11, symObjAddr: 0xE5DF0, symBinAddr: 0x100014038, symSize: 0x0 }
  - { offsetInCU: 0x25106, offset: 0x25106, size: 0x8, addend: 0x0, symName: __Z3ansB5cxx11, symObjAddr: 0xE5E20, symBinAddr: 0x100014068, symSize: 0x0 }
  - { offsetInCU: 0x25243, offset: 0x25243, size: 0x8, addend: 0x0, symName: __Z3srtB5cxx11, symObjAddr: 0xE5E50, symBinAddr: 0x100014098, symSize: 0x0 }
  - { offsetInCU: 0x25808, offset: 0x25808, size: 0x8, addend: 0x0, symName: __ZSt8_DestroyISt4pairIfNSt7__cxx1112basic_stringIcSt11char_traitsIcESaIcEEEEEvPT_, symObjAddr: 0x7308, symBinAddr: 0x100009290, symSize: 0x20 }
  - { offsetInCU: 0x2583A, offset: 0x2583A, size: 0x8, addend: 0x0, symName: __ZNSt12_Destroy_auxILb0EE9__destroyIPSt4pairIfNSt7__cxx1112basic_stringIcSt11char_traitsIcESaIcEEEEEEvT_SB_, symObjAddr: 0x72BC, symBinAddr: 0x100009244, symSize: 0x4C }
  - { offsetInCU: 0x2587C, offset: 0x2587C, size: 0x8, addend: 0x0, symName: __ZSt8_DestroyIPSt4pairIfNSt7__cxx1112basic_stringIcSt11char_traitsIcESaIcEEEEEvT_S9_, symObjAddr: 0x7294, symBinAddr: 0x10000921C, symSize: 0x28 }
  - { offsetInCU: 0x25975, offset: 0x25975, size: 0x8, addend: 0x0, symName: __ZNSt6vectorISt4pairIfNSt7__cxx1112basic_stringIcSt11char_traitsIcESaIcEEEESaIS7_EED1Ev, symObjAddr: 0x7238, symBinAddr: 0x1000091C0, symSize: 0x5C }
  - { offsetInCU: 0x25A04, offset: 0x25A04, size: 0x8, addend: 0x0, symName: __ZNSt3mapINSt7__cxx1112basic_stringIcSt11char_traitsIcESaIcEEES5_St4lessIS5_ESaISt4pairIKS5_S5_EEED1Ev, symObjAddr: 0x7218, symBinAddr: 0x1000091A0, symSize: 0x20 }
  - { offsetInCU: 0x25A60, offset: 0x25A60, size: 0x8, addend: 0x0, symName: __ZNSt3mapINSt7__cxx1112basic_stringIcSt11char_traitsIcESaIcEEESt6vectorIS5_SaIS5_EESt4lessIS5_ESaISt4pairIKS5_S8_EEED1Ev, symObjAddr: 0x71F8, symBinAddr: 0x100009180, symSize: 0x20 }
  - { offsetInCU: 0x25A94, offset: 0x25A94, size: 0x8, addend: 0x0, symName: __ZNSt3mapINSt7__cxx1112basic_stringIcSt11char_traitsIcESaIcEEEiSt4lessIS5_ESaISt4pairIKS5_iEEED1Ev, symObjAddr: 0x71D8, symBinAddr: 0x100009160, symSize: 0x20 }
  - { offsetInCU: 0x25A57, offset: 0x25A57, size: 0x8, addend: 0x0, symName: __ZNSt10_Head_baseILm0ERKNSt7__cxx1112basic_stringIcSt11char_traitsIcESaIcEEELb0EE7_M_headERS8_, symObjAddr: 0x71C0, symBinAddr: 0x100009148, symSize: 0x18 }
  - { offsetInCU: 0x25A96, offset: 0x25A96, size: 0x8, addend: 0x0, symName: __ZNSt11_Tuple_implILm0EJRKNSt7__cxx1112basic_stringIcSt11char_traitsIcESaIcEEEEE7_M_headERS8_, symObjAddr: 0x71A4, symBinAddr: 0x10000912C, symSize: 0x1C }
  - { offsetInCU: 0x25B42, offset: 0x25B42, size: 0x8, addend: 0x0, symName: __ZNSt12_Vector_baseINSt7__cxx1112basic_stringIcSt11char_traitsIcESaIcEEESaIS5_EE17_Vector_impl_dataC2Ev, symObjAddr: 0x7178, symBinAddr: 0x100009100, symSize: 0x2C }
  - { offsetInCU: 0x25B16, offset: 0x25B16, size: 0x8, addend: 0x0, symName: __ZSt12__get_helperILm0ERKNSt7__cxx1112basic_stringIcSt11char_traitsIcESaIcEEEJEERT0_RSt11_Tuple_implIXT_EJS8_DpT1_EE, symObjAddr: 0x715C, symBinAddr: 0x1000090E4, symSize: 0x1C }
  - { offsetInCU: 0x25B58, offset: 0x25B58, size: 0x8, addend: 0x0, symName: __ZSt8_DestroyINSt7__cxx1112basic_stringIcSt11char_traitsIcESaIcEEEEvPT_, symObjAddr: 0x713C, symBinAddr: 0x1000090C4, symSize: 0x20 }
  - { offsetInCU: 0x25C07, offset: 0x25C07, size: 0x8, addend: 0x0, symName: __ZNSt12_Vector_baseINSt7__cxx1112basic_stringIcSt11char_traitsIcESaIcEEESaIS5_EE12_Vector_implC1Ev, symObjAddr: 0x7104, symBinAddr: 0x10000908C, symSize: 0x38 }
  - { offsetInCU: 0x25C10, offset: 0x25C10, size: 0x8, addend: 0x0, symName: __ZSt3getILm0EJRKNSt7__cxx1112basic_stringIcSt11char_traitsIcESaIcEEEEERNSt13tuple_elementIXT_ESt5tupleIJDpT0_EEE4typeERSC_, symObjAddr: 0x70E8, symBinAddr: 0x100009070, symSize: 0x1C }
  - { offsetInCU: 0x25C4F, offset: 0x25C4F, size: 0x8, addend: 0x0, symName: __ZNSt12_Destroy_auxILb0EE9__destroyIPNSt7__cxx1112basic_stringIcSt11char_traitsIcESaIcEEEEEvT_S9_, symObjAddr: 0x709C, symBinAddr: 0x100009024, symSize: 0x4C }
  - { offsetInCU: 0x25D06, offset: 0x25D06, size: 0x8, addend: 0x0, symName: __ZNSt15__new_allocatorINSt7__cxx1112basic_stringIcSt11char_traitsIcESaIcEEEED2Ev, symObjAddr: 0x7088, symBinAddr: 0x100009010, symSize: 0x14 }
  - { offsetInCU: 0x25DE5, offset: 0x25DE5, size: 0x8, addend: 0x0, symName: __ZNSt4pairIKNSt7__cxx1112basic_stringIcSt11char_traitsIcESaIcEEES5_EC1IJRS6_EJLm0EEJEJEEERSt5tupleIJDpT_EERSA_IJDpT1_EESt12_Index_tupleIJXspT0_EEESJ_IJXspT2_EEE, symObjAddr: 0x7030, symBinAddr: 0x100008FB8, symSize: 0x58 }
  - { offsetInCU: 0x25DB7, offset: 0x25DB7, size: 0x8, addend: 0x0, symName: __ZNSt20__copy_move_backwardILb1ELb0ESt26random_access_iterator_tagE13__copy_move_bIPSt4pairIfNSt7__cxx1112basic_stringIcSt11char_traitsIcESaIcEEEESB_EET0_T_SD_SC_, symObjAddr: 0x6FA8, symBinAddr: 0x100008F30, symSize: 0x88 }
  - { offsetInCU: 0x25E26, offset: 0x25E26, size: 0x8, addend: 0x0, symName: __ZSt4swapIcSt11char_traitsIcESaIcEEvRNSt7__cxx1112basic_stringIT_T0_T1_EES9_, symObjAddr: 0x6F80, symBinAddr: 0x100008F08, symSize: 0x28 }
  - { offsetInCU: 0x25E7C, offset: 0x25E7C, size: 0x8, addend: 0x0, symName: __ZSt4swapIfENSt9enable_ifIXsrSt6__and_IJSt6__not_ISt15__is_tuple_likeIT_EESt21is_move_constructibleIS4_ESt18is_move_assignableIS4_EEE5valueEvE4typeERS4_SE_, symObjAddr: 0x6F2C, symBinAddr: 0x100008EB4, symSize: 0x54 }
  - { offsetInCU: 0x25ED5, offset: 0x25ED5, size: 0x8, addend: 0x0, symName: __ZSt4moveIRfEONSt16remove_referenceIT_E4typeEOS2_, symObjAddr: 0x6F18, symBinAddr: 0x100008EA0, symSize: 0x14 }
  - { offsetInCU: 0x25F0B, offset: 0x25F0B, size: 0x8, addend: 0x0, symName: __ZN9__gnu_cxx5__ops14_Iter_comp_valISt7greaterIvEEclINS_17__normal_iteratorIPSt4pairIfNSt7__cxx1112basic_stringIcSt11char_traitsIcESaIcEEEESt6vectorISE_SaISE_EEEESE_EEbT_RT0_, symObjAddr: 0x6ED8, symBinAddr: 0x100008E60, symSize: 0x40 }
  - { offsetInCU: 0x2607F, offset: 0x2607F, size: 0x8, addend: 0x0, symName: __ZNSt4pairIKNSt7__cxx1112basic_stringIcSt11char_traitsIcESaIcEEESt6vectorIS5_SaIS5_EEEC1IJRS6_EJLm0EEJEJEEERSt5tupleIJDpT_EERSD_IJDpT1_EESt12_Index_tupleIJXspT0_EEESM_IJXspT2_EEE, symObjAddr: 0x6E70, symBinAddr: 0x100008DF8, symSize: 0x68 }
  - { offsetInCU: 0x260A7, offset: 0x260A7, size: 0x8, addend: 0x0, symName: __ZNSt6vectorINSt7__cxx1112basic_stringIcSt11char_traitsIcESaIcEEESaIS5_EEC1Ev, symObjAddr: 0x6E50, symBinAddr: 0x100008DD8, symSize: 0x20 }
  - { offsetInCU: 0x260EE, offset: 0x260EE, size: 0x8, addend: 0x0, symName: __ZNSt12_Vector_baseINSt7__cxx1112basic_stringIcSt11char_traitsIcESaIcEEESaIS5_EEC2Ev, symObjAddr: 0x6E30, symBinAddr: 0x100008DB8, symSize: 0x20 }
  - { offsetInCU: 0x261F3, offset: 0x261F3, size: 0x8, addend: 0x0, symName: __ZNSt4pairIKNSt7__cxx1112basic_stringIcSt11char_traitsIcESaIcEEEiEC1IJRS6_EJLm0EEJEJEEERSt5tupleIJDpT_EERSA_IJDpT1_EESt12_Index_tupleIJXspT0_EEESJ_IJXspT2_EEE, symObjAddr: 0x6DDC, symBinAddr: 0x100008D64, symSize: 0x54 }
  - { offsetInCU: 0x261C7, offset: 0x261C7, size: 0x8, addend: 0x0, symName: __ZSt8_DestroyIPNSt7__cxx1112basic_stringIcSt11char_traitsIcESaIcEEEEvT_S7_, symObjAddr: 0x6DB4, symBinAddr: 0x100008D3C, symSize: 0x28 }
  - { offsetInCU: 0x2620D, offset: 0x2620D, size: 0x8, addend: 0x0, symName: __ZNSt12_Vector_baseINSt7__cxx1112basic_stringIcSt11char_traitsIcESaIcEEESaIS5_EE13_M_deallocateEPS5_m, symObjAddr: 0x6D5C, symBinAddr: 0x100008CE4, symSize: 0x58 }
  - { offsetInCU: 0x2637D, offset: 0x2637D, size: 0x8, addend: 0x0, symName: __ZNSt4pairIKNSt7__cxx1112basic_stringIcSt11char_traitsIcESaIcEEES5_EC1IJRS6_EJEEESt21piecewise_construct_tSt5tupleIJDpT_EESB_IJDpT0_EE, symObjAddr: 0x6D20, symBinAddr: 0x100008CA8, symSize: 0x3C }
  - { offsetInCU: 0x26348, offset: 0x26348, size: 0x8, addend: 0x0, symName: __ZSt23__copy_move_backward_a2ILb1EPSt4pairIfNSt7__cxx1112basic_stringIcSt11char_traitsIcESaIcEEEES8_ET1_T0_SA_S9_, symObjAddr: 0x6CF4, symBinAddr: 0x100008C7C, symSize: 0x2C }
  - { offsetInCU: 0x263B0, offset: 0x263B0, size: 0x8, addend: 0x0, symName: __ZStltIfNSt7__cxx1112basic_stringIcSt11char_traitsIcESaIcEEEEbRKSt4pairIT_T0_ESB_, symObjAddr: 0x6C60, symBinAddr: 0x100008BE8, symSize: 0x94 }
  - { offsetInCU: 0x26401, offset: 0x26401, size: 0x8, addend: 0x0, symName: __ZNSt4pairIfNSt7__cxx1112basic_stringIcSt11char_traitsIcESaIcEEEE4swapERS6_, symObjAddr: 0x6C1C, symBinAddr: 0x100008BA4, symSize: 0x44 }
  - { offsetInCU: 0x2643E, offset: 0x2643E, size: 0x8, addend: 0x0, symName: __ZSt11__push_heapIN9__gnu_cxx17__normal_iteratorIPSt4pairIfNSt7__cxx1112basic_stringIcSt11char_traitsIcESaIcEEEESt6vectorIS9_SaIS9_EEEElS9_NS0_5__ops14_Iter_comp_valISt7greaterIvEEEEvT_T0_SL_T1_RT2_, symObjAddr: 0x6AF4, symBinAddr: 0x100008A7C, symSize: 0x128 }
  - { offsetInCU: 0x26556, offset: 0x26556, size: 0x8, addend: 0x0, symName: __ZN9__gnu_cxx5__ops14_Iter_comp_valISt7greaterIvEEC1EONS0_15_Iter_comp_iterIS3_EE, symObjAddr: 0x6AD0, symBinAddr: 0x100008A58, symSize: 0x24 }
  - { offsetInCU: 0x26685, offset: 0x26685, size: 0x8, addend: 0x0, symName: __ZNSt4pairIKNSt7__cxx1112basic_stringIcSt11char_traitsIcESaIcEEESt6vectorIS5_SaIS5_EEEC1IJRS6_EJEEESt21piecewise_construct_tSt5tupleIJDpT_EESE_IJDpT0_EE, symObjAddr: 0x6A94, symBinAddr: 0x100008A1C, symSize: 0x3C }
  - { offsetInCU: 0x26751, offset: 0x26751, size: 0x8, addend: 0x0, symName: __ZNSt4pairIKNSt7__cxx1112basic_stringIcSt11char_traitsIcESaIcEEEiEC1IJRS6_EJEEESt21piecewise_construct_tSt5tupleIJDpT_EESB_IJDpT0_EE, symObjAddr: 0x6A58, symBinAddr: 0x1000089E0, symSize: 0x3C }
  - { offsetInCU: 0x2679E, offset: 0x2679E, size: 0x8, addend: 0x0, symName: __ZNSt11_Tuple_implILm0EJRKNSt7__cxx1112basic_stringIcSt11char_traitsIcESaIcEEEEEC2EOS8_, symObjAddr: 0x6A30, symBinAddr: 0x1000089B8, symSize: 0x28 }
  - { offsetInCU: 0x26829, offset: 0x26829, size: 0x8, addend: 0x0, symName: __ZNSt12_Vector_baseINSt7__cxx1112basic_stringIcSt11char_traitsIcESaIcEEESaIS5_EED2Ev, symObjAddr: 0x69E0, symBinAddr: 0x100008968, symSize: 0x50 }
  - { offsetInCU: 0x26884, offset: 0x26884, size: 0x8, addend: 0x0, symName: __ZNSt12_Vector_baseINSt7__cxx1112basic_stringIcSt11char_traitsIcESaIcEEESaIS5_EE12_Vector_implD1Ev, symObjAddr: 0x69B4, symBinAddr: 0x10000893C, symSize: 0x2C }
  - { offsetInCU: 0x26873, offset: 0x26873, size: 0x8, addend: 0x0, symName: __ZNK9__gnu_cxx16__aligned_membufISt4pairIKNSt7__cxx1112basic_stringIcSt11char_traitsIcESaIcEEES7_EE7_M_addrEv, symObjAddr: 0x69A0, symBinAddr: 0x100008928, symSize: 0x14 }
  - { offsetInCU: 0x268FF, offset: 0x268FF, size: 0x8, addend: 0x0, symName: __ZNSt15__new_allocatorISt13_Rb_tree_nodeISt4pairIKNSt7__cxx1112basic_stringIcSt11char_traitsIcESaIcEEES7_EEE8allocateEmPKv, symObjAddr: 0x6910, symBinAddr: 0x100008898, symSize: 0x90 }
  - { offsetInCU: 0x26987, offset: 0x26987, size: 0x8, addend: 0x0, symName: __ZSt12__niter_wrapIN9__gnu_cxx17__normal_iteratorIPSt4pairIfNSt7__cxx1112basic_stringIcSt11char_traitsIcESaIcEEEESt6vectorIS9_SaIS9_EEEESA_ET_SF_T0_, symObjAddr: 0x68BC, symBinAddr: 0x100008844, symSize: 0x54 }
  - { offsetInCU: 0x269D4, offset: 0x269D4, size: 0x8, addend: 0x0, symName: __ZSt23__copy_move_backward_a1ILb1EPSt4pairIfNSt7__cxx1112basic_stringIcSt11char_traitsIcESaIcEEEES8_ET1_T0_SA_S9_, symObjAddr: 0x6890, symBinAddr: 0x100008818, symSize: 0x2C }
  - { offsetInCU: 0x26A3C, offset: 0x26A3C, size: 0x8, addend: 0x0, symName: __ZSt12__niter_baseIPSt4pairIfNSt7__cxx1112basic_stringIcSt11char_traitsIcESaIcEEEESt6vectorIS7_SaIS7_EEET_N9__gnu_cxx17__normal_iteratorISC_T0_EE, symObjAddr: 0x6870, symBinAddr: 0x1000087F8, symSize: 0x20 }
  - { offsetInCU: 0x26A78, offset: 0x26A78, size: 0x8, addend: 0x0, symName: __ZStgtIfNSt7__cxx1112basic_stringIcSt11char_traitsIcESaIcEEEEbRKSt4pairIT_T0_ESB_, symObjAddr: 0x684C, symBinAddr: 0x1000087D4, symSize: 0x24 }
  - { offsetInCU: 0x26ACB, offset: 0x26ACB, size: 0x8, addend: 0x0, symName: __ZSt7forwardIRSt4pairIfNSt7__cxx1112basic_stringIcSt11char_traitsIcESaIcEEEEEOT_RNSt16remove_referenceIS9_E4typeE, symObjAddr: 0x6838, symBinAddr: 0x1000087C0, symSize: 0x14 }
  - { offsetInCU: 0x26AFD, offset: 0x26AFD, size: 0x8, addend: 0x0, symName: __ZSt4swapIfNSt7__cxx1112basic_stringIcSt11char_traitsIcESaIcEEEENSt9enable_ifIXsrSt6__and_IJSt14__is_swappableIT_ES8_IT0_EEE5valueEvE4typeERSt4pairIS9_SB_ESI_, symObjAddr: 0x6810, symBinAddr: 0x100008798, symSize: 0x28 }
  - { offsetInCU: 0x26B4A, offset: 0x26B4A, size: 0x8, addend: 0x0, symName: __ZSt13__adjust_heapIN9__gnu_cxx17__normal_iteratorIPSt4pairIfNSt7__cxx1112basic_stringIcSt11char_traitsIcESaIcEEEESt6vectorIS9_SaIS9_EEEElS9_NS0_5__ops15_Iter_comp_iterISt7greaterIvEEEEvT_T0_SL_T1_T2_, symObjAddr: 0x660C, symBinAddr: 0x100008594, symSize: 0x204 }
  - { offsetInCU: 0x26C9E, offset: 0x26C9E, size: 0x8, addend: 0x0, symName: __ZNK9__gnu_cxx16__aligned_membufISt4pairIKNSt7__cxx1112basic_stringIcSt11char_traitsIcESaIcEEESt6vectorIS7_SaIS7_EEEE7_M_addrEv, symObjAddr: 0x65F8, symBinAddr: 0x100008580, symSize: 0x14 }
  - { offsetInCU: 0x26D1D, offset: 0x26D1D, size: 0x8, addend: 0x0, symName: __ZNSt15__new_allocatorISt13_Rb_tree_nodeISt4pairIKNSt7__cxx1112basic_stringIcSt11char_traitsIcESaIcEEESt6vectorIS7_SaIS7_EEEEE8allocateEmPKv, symObjAddr: 0x6554, symBinAddr: 0x1000084DC, symSize: 0xA4 }
  - { offsetInCU: 0x26DA5, offset: 0x26DA5, size: 0x8, addend: 0x0, symName: __ZSt19__relocate_object_aISt4pairIfNSt7__cxx1112basic_stringIcSt11char_traitsIcESaIcEEEES7_SaIS7_EEvPT_PT0_RT1_, symObjAddr: 0x6484, symBinAddr: 0x10000840C, symSize: 0xD0 }
  - { offsetInCU: 0x26ED7, offset: 0x26ED7, size: 0x8, addend: 0x0, symName: __ZSt11__addressofISt4pairIfNSt7__cxx1112basic_stringIcSt11char_traitsIcESaIcEEEEEPT_RS8_, symObjAddr: 0x6470, symBinAddr: 0x1000083F8, symSize: 0x14 }
  - { offsetInCU: 0x26F28, offset: 0x26F28, size: 0x8, addend: 0x0, symName: __ZNK9__gnu_cxx16__aligned_membufISt4pairIKNSt7__cxx1112basic_stringIcSt11char_traitsIcESaIcEEEiEE7_M_addrEv, symObjAddr: 0x645C, symBinAddr: 0x1000083E4, symSize: 0x14 }
  - { offsetInCU: 0x2700F, offset: 0x2700F, size: 0x8, addend: 0x0, symName: __ZNSt5tupleIJRKNSt7__cxx1112basic_stringIcSt11char_traitsIcESaIcEEEEEC1EOS8_, symObjAddr: 0x6434, symBinAddr: 0x1000083BC, symSize: 0x28 }
  - { offsetInCU: 0x26FF5, offset: 0x26FF5, size: 0x8, addend: 0x0, symName: __ZNSt15__new_allocatorISt13_Rb_tree_nodeISt4pairIKNSt7__cxx1112basic_stringIcSt11char_traitsIcESaIcEEEiEEE8allocateEmPKv, symObjAddr: 0x639C, symBinAddr: 0x100008324, symSize: 0x98 }
  - { offsetInCU: 0x270EF, offset: 0x270EF, size: 0x8, addend: 0x0, symName: __ZNSt6vectorINSt7__cxx1112basic_stringIcSt11char_traitsIcESaIcEEESaIS5_EED1Ev, symObjAddr: 0x6340, symBinAddr: 0x1000082C8, symSize: 0x5C }
  - { offsetInCU: 0x27101, offset: 0x27101, size: 0x8, addend: 0x0, symName: __ZNK9__gnu_cxx16__aligned_membufISt4pairIKNSt7__cxx1112basic_stringIcSt11char_traitsIcESaIcEEES7_EE6_M_ptrEv, symObjAddr: 0x6324, symBinAddr: 0x1000082AC, symSize: 0x1C }
  - { offsetInCU: 0x27133, offset: 0x27133, size: 0x8, addend: 0x0, symName: __ZSt7forwardIRPSt13_Rb_tree_nodeISt4pairIKNSt7__cxx1112basic_stringIcSt11char_traitsIcESaIcEEES7_EEEOT_RNSt16remove_referenceISD_E4typeE, symObjAddr: 0x6310, symBinAddr: 0x100008298, symSize: 0x14 }
  - { offsetInCU: 0x271E5, offset: 0x271E5, size: 0x8, addend: 0x0, symName: __ZN9__gnu_cxx5__ops14_Val_comp_iterISt7greaterIvEEclISt4pairIfNSt7__cxx1112basic_stringIcSt11char_traitsIcESaIcEEEENS_17__normal_iteratorIPSD_St6vectorISD_SaISD_EEEEEEbRT_T0_, symObjAddr: 0x62D0, symBinAddr: 0x100008258, symSize: 0x40 }
  - { offsetInCU: 0x272B6, offset: 0x272B6, size: 0x8, addend: 0x0, symName: __ZN9__gnu_cxx5__ops14_Val_comp_iterISt7greaterIvEEC1EONS0_15_Iter_comp_iterIS3_EE, symObjAddr: 0x62AC, symBinAddr: 0x100008234, symSize: 0x24 }
  - { offsetInCU: 0x272A0, offset: 0x272A0, size: 0x8, addend: 0x0, symName: __ZSt4moveIRN9__gnu_cxx5__ops15_Iter_comp_iterISt7greaterIvEEEEONSt16remove_referenceIT_E4typeEOS8_, symObjAddr: 0x6298, symBinAddr: 0x100008220, symSize: 0x14 }
  - { offsetInCU: 0x272D8, offset: 0x272D8, size: 0x8, addend: 0x0, symName: __ZSt7forwardINSt7__cxx1112basic_stringIcSt11char_traitsIcESaIcEEEEOT_RNSt16remove_referenceIS6_E4typeE, symObjAddr: 0x6284, symBinAddr: 0x10000820C, symSize: 0x14 }
  - { offsetInCU: 0x27310, offset: 0x27310, size: 0x8, addend: 0x0, symName: __ZSt7forwardIfEOT_RNSt16remove_referenceIS0_E4typeE, symObjAddr: 0x6270, symBinAddr: 0x1000081F8, symSize: 0x14 }
  - { offsetInCU: 0x27342, offset: 0x27342, size: 0x8, addend: 0x0, symName: __ZSt22__copy_move_backward_aILb1EN9__gnu_cxx17__normal_iteratorIPSt4pairIfNSt7__cxx1112basic_stringIcSt11char_traitsIcESaIcEEEESt6vectorIS9_SaIS9_EEEESE_ET1_T0_SG_SF_, symObjAddr: 0x6210, symBinAddr: 0x100008198, symSize: 0x60 }
  - { offsetInCU: 0x273AA, offset: 0x273AA, size: 0x8, addend: 0x0, symName: __ZSt12__miter_baseIN9__gnu_cxx17__normal_iteratorIPSt4pairIfNSt7__cxx1112basic_stringIcSt11char_traitsIcESaIcEEEESt6vectorIS9_SaIS9_EEEEET_SF_, symObjAddr: 0x61FC, symBinAddr: 0x100008184, symSize: 0x14 }
  - { offsetInCU: 0x273EC, offset: 0x273EC, size: 0x8, addend: 0x0, symName: __ZNKSt7greaterIvEclIRSt4pairIfNSt7__cxx1112basic_stringIcSt11char_traitsIcESaIcEEEESA_EEDTgtcl7forwardIT_Efp_Ecl7forwardIT0_Efp0_EEOSB_OSC_, symObjAddr: 0x61B4, symBinAddr: 0x10000813C, symSize: 0x48 }
  - { offsetInCU: 0x27446, offset: 0x27446, size: 0x8, addend: 0x0, symName: __ZNSt7greaterIvE6_S_cmpIRSt4pairIfNSt7__cxx1112basic_stringIcSt11char_traitsIcESaIcEEEESA_EEDcOT_OT0_St17integral_constantIbLb0EE, symObjAddr: 0x6170, symBinAddr: 0x1000080F8, symSize: 0x44 }
  - { offsetInCU: 0x2749C, offset: 0x2749C, size: 0x8, addend: 0x0, symName: __ZSt9iter_swapIN9__gnu_cxx17__normal_iteratorIPSt4pairIfNSt7__cxx1112basic_stringIcSt11char_traitsIcESaIcEEEESt6vectorIS9_SaIS9_EEEESE_EvT_T0_, symObjAddr: 0x612C, symBinAddr: 0x1000080B4, symSize: 0x44 }
  - { offsetInCU: 0x274EB, offset: 0x274EB, size: 0x8, addend: 0x0, symName: __ZN9__gnu_cxx17__normal_iteratorIPSt4pairIfNSt7__cxx1112basic_stringIcSt11char_traitsIcESaIcEEEESt6vectorIS8_SaIS8_EEEmmEv, symObjAddr: 0x6104, symBinAddr: 0x10000808C, symSize: 0x28 }
  - { offsetInCU: 0x27511, offset: 0x27511, size: 0x8, addend: 0x0, symName: __ZSt10__pop_heapIN9__gnu_cxx17__normal_iteratorIPSt4pairIfNSt7__cxx1112basic_stringIcSt11char_traitsIcESaIcEEEESt6vectorIS9_SaIS9_EEEENS0_5__ops15_Iter_comp_iterISt7greaterIvEEEEvT_SK_SK_RT0_, symObjAddr: 0x6030, symBinAddr: 0x100007FB8, symSize: 0xD4 }
  - { offsetInCU: 0x275B2, offset: 0x275B2, size: 0x8, addend: 0x0, symName: __ZN9__gnu_cxxltIPSt4pairIfNSt7__cxx1112basic_stringIcSt11char_traitsIcESaIcEEEESt6vectorIS8_SaIS8_EEEEbRKNS_17__normal_iteratorIT_T0_EESI_, symObjAddr: 0x5FEC, symBinAddr: 0x100007F74, symSize: 0x44 }
  - { offsetInCU: 0x275FF, offset: 0x275FF, size: 0x8, addend: 0x0, symName: __ZSt11__make_heapIN9__gnu_cxx17__normal_iteratorIPSt4pairIfNSt7__cxx1112basic_stringIcSt11char_traitsIcESaIcEEEESt6vectorIS9_SaIS9_EEEENS0_5__ops15_Iter_comp_iterISt7greaterIvEEEEvT_SK_RT0_, symObjAddr: 0x5EB8, symBinAddr: 0x100007E40, symSize: 0x134 }
  - { offsetInCU: 0x276BA, offset: 0x276BA, size: 0x8, addend: 0x0, symName: __ZSt19__relocate_object_aINSt7__cxx1112basic_stringIcSt11char_traitsIcESaIcEEES5_SaIS5_EEvPT_PT0_RT1_, symObjAddr: 0x5DE8, symBinAddr: 0x100007D70, symSize: 0xD0 }
  - { offsetInCU: 0x27806, offset: 0x27806, size: 0x8, addend: 0x0, symName: __ZNK9__gnu_cxx16__aligned_membufISt4pairIKNSt7__cxx1112basic_stringIcSt11char_traitsIcESaIcEEESt6vectorIS7_SaIS7_EEEE6_M_ptrEv, symObjAddr: 0x5DCC, symBinAddr: 0x100007D54, symSize: 0x1C }
  - { offsetInCU: 0x27838, offset: 0x27838, size: 0x8, addend: 0x0, symName: __ZSt7forwardIRPSt13_Rb_tree_nodeISt4pairIKNSt7__cxx1112basic_stringIcSt11char_traitsIcESaIcEEESt6vectorIS7_SaIS7_EEEEEOT_RNSt16remove_referenceISG_E4typeE, symObjAddr: 0x5DB8, symBinAddr: 0x100007D40, symSize: 0x14 }
  - { offsetInCU: 0x278E6, offset: 0x278E6, size: 0x8, addend: 0x0, symName: __ZSt14__relocate_a_1IPSt4pairIfNSt7__cxx1112basic_stringIcSt11char_traitsIcESaIcEEEES8_SaIS7_EET0_T_SB_SA_RT1_, symObjAddr: 0x5D34, symBinAddr: 0x100007CBC, symSize: 0x84 }
  - { offsetInCU: 0x2796F, offset: 0x2796F, size: 0x8, addend: 0x0, symName: __ZSt12__niter_baseIPSt4pairIfNSt7__cxx1112basic_stringIcSt11char_traitsIcESaIcEEEEET_S9_, symObjAddr: 0x5D20, symBinAddr: 0x100007CA8, symSize: 0x14 }
  - { offsetInCU: 0x279A6, offset: 0x279A6, size: 0x8, addend: 0x0, symName: __ZNSt15__new_allocatorISt4pairIfNSt7__cxx1112basic_stringIcSt11char_traitsIcESaIcEEEEE8allocateEmPKv, symObjAddr: 0x5C90, symBinAddr: 0x100007C18, symSize: 0x90 }
  - { offsetInCU: 0x27A32, offset: 0x27A32, size: 0x8, addend: 0x0, symName: __ZNKSt12_Vector_baseISt4pairIfNSt7__cxx1112basic_stringIcSt11char_traitsIcESaIcEEEESaIS7_EE19_M_get_Tp_allocatorEv, symObjAddr: 0x5C7C, symBinAddr: 0x100007C04, symSize: 0x14 }
  - { offsetInCU: 0x27A58, offset: 0x27A58, size: 0x8, addend: 0x0, symName: __ZNSt6vectorISt4pairIfNSt7__cxx1112basic_stringIcSt11char_traitsIcESaIcEEEESaIS7_EE11_S_max_sizeERKS8_, symObjAddr: 0x5C20, symBinAddr: 0x100007BA8, symSize: 0x5C }
  - { offsetInCU: 0x27B13, offset: 0x27B13, size: 0x8, addend: 0x0, symName: __ZNK9__gnu_cxx16__aligned_membufISt4pairIKNSt7__cxx1112basic_stringIcSt11char_traitsIcESaIcEEEiEE6_M_ptrEv, symObjAddr: 0x5C04, symBinAddr: 0x100007B8C, symSize: 0x1C }
  - { offsetInCU: 0x27B45, offset: 0x27B45, size: 0x8, addend: 0x0, symName: __ZSt7forwardIRPSt13_Rb_tree_nodeISt4pairIKNSt7__cxx1112basic_stringIcSt11char_traitsIcESaIcEEEiEEEOT_RNSt16remove_referenceISD_E4typeE, symObjAddr: 0x5BF0, symBinAddr: 0x100007B78, symSize: 0x14 }
  - { offsetInCU: 0x27BF7, offset: 0x27BF7, size: 0x8, addend: 0x0, symName: __ZNSt15__new_allocatorISt13_Rb_tree_nodeISt4pairIKNSt7__cxx1112basic_stringIcSt11char_traitsIcESaIcEEES7_EEE10deallocateEPSA_m, symObjAddr: 0x5BB4, symBinAddr: 0x100007B3C, symSize: 0x3C }
  - { offsetInCU: 0x27C6D, offset: 0x27C6D, size: 0x8, addend: 0x0, symName: __ZNSt15__new_allocatorISt13_Rb_tree_nodeISt4pairIKNSt7__cxx1112basic_stringIcSt11char_traitsIcESaIcEEESt6vectorIS7_SaIS7_EEEEE10deallocateEPSD_m, symObjAddr: 0x5B70, symBinAddr: 0x100007AF8, symSize: 0x44 }
  - { offsetInCU: 0x27D62, offset: 0x27D62, size: 0x8, addend: 0x0, symName: __ZNSt4pairIKNSt7__cxx1112basic_stringIcSt11char_traitsIcESaIcEEESt6vectorIS5_SaIS5_EEED1Ev, symObjAddr: 0x5B44, symBinAddr: 0x100007ACC, symSize: 0x2C }
  - { offsetInCU: 0x27D31, offset: 0x27D31, size: 0x8, addend: 0x0, symName: __ZNSt15__new_allocatorISt13_Rb_tree_nodeISt4pairIKNSt7__cxx1112basic_stringIcSt11char_traitsIcESaIcEEEiEEE10deallocateEPSA_m, symObjAddr: 0x5B08, symBinAddr: 0x100007A90, symSize: 0x3C }
  - { offsetInCU: 0x27E12, offset: 0x27E12, size: 0x8, addend: 0x0, symName: __ZNSt4pairIKNSt7__cxx1112basic_stringIcSt11char_traitsIcESaIcEEEiED1Ev, symObjAddr: 0x5AE8, symBinAddr: 0x100007A70, symSize: 0x20 }
  - { offsetInCU: 0x27DF5, offset: 0x27DF5, size: 0x8, addend: 0x0, symName: __ZNKSt10_Select1stISt4pairIKNSt7__cxx1112basic_stringIcSt11char_traitsIcESaIcEEES6_EEclERKS8_, symObjAddr: 0x5AD0, symBinAddr: 0x100007A58, symSize: 0x18 }
  - { offsetInCU: 0x27E30, offset: 0x27E30, size: 0x8, addend: 0x0, symName: __ZNKSt13_Rb_tree_nodeISt4pairIKNSt7__cxx1112basic_stringIcSt11char_traitsIcESaIcEEES6_EE9_M_valptrEv, symObjAddr: 0x5AB0, symBinAddr: 0x100007A38, symSize: 0x20 }
  - { offsetInCU: 0x27F2A, offset: 0x27F2A, size: 0x8, addend: 0x0, symName: __ZNSt4pairIPSt18_Rb_tree_node_baseS1_EC1IRPSt13_Rb_tree_nodeIS_IKNSt7__cxx1112basic_stringIcSt11char_traitsIcESaIcEEESA_EERS1_Lb1EEEOT_OT0_, symObjAddr: 0x5A68, symBinAddr: 0x1000079F0, symSize: 0x48 }
  - { offsetInCU: 0x27EEC, offset: 0x27EEC, size: 0x8, addend: 0x0, symName: __ZNSt8_Rb_treeINSt7__cxx1112basic_stringIcSt11char_traitsIcESaIcEEESt4pairIKS5_S5_ESt10_Select1stIS8_ESt4lessIS5_ESaIS8_EE17_M_construct_nodeIJRKSt21piecewise_construct_tSt5tupleIJRS7_EESJ_IJEEEEEvPSt13_Rb_tree_nodeIS8_EDpOT_, symObjAddr: 0x58EC, symBinAddr: 0x100007874, symSize: 0x17C }
  - { offsetInCU: 0x27FED, offset: 0x27FED, size: 0x8, addend: 0x0, symName: __ZNSt8_Rb_treeINSt7__cxx1112basic_stringIcSt11char_traitsIcESaIcEEESt4pairIKS5_S5_ESt10_Select1stIS8_ESt4lessIS5_ESaIS8_EE11_M_get_nodeEv, symObjAddr: 0x58B0, symBinAddr: 0x100007838, symSize: 0x3C }
  - { offsetInCU: 0x28040, offset: 0x28040, size: 0x8, addend: 0x0, symName: __ZSt25__unguarded_linear_insertIN9__gnu_cxx17__normal_iteratorIPSt4pairIfNSt7__cxx1112basic_stringIcSt11char_traitsIcESaIcEEEESt6vectorIS9_SaIS9_EEEENS0_5__ops14_Val_comp_iterISt7greaterIvEEEEvT_T0_, symObjAddr: 0x57DC, symBinAddr: 0x100007764, symSize: 0xD4 }
  - { offsetInCU: 0x280AF, offset: 0x280AF, size: 0x8, addend: 0x0, symName: __ZN9__gnu_cxx5__ops15__val_comp_iterISt7greaterIvEEENS0_14_Val_comp_iterIT_EENS0_15_Iter_comp_iterIS5_EE, symObjAddr: 0x57A4, symBinAddr: 0x10000772C, symSize: 0x38 }
  - { offsetInCU: 0x280E5, offset: 0x280E5, size: 0x8, addend: 0x0, symName: __ZNSt4pairIfNSt7__cxx1112basic_stringIcSt11char_traitsIcESaIcEEEEaSEOS6_, symObjAddr: 0x5758, symBinAddr: 0x1000076E0, symSize: 0x4C }
  - { offsetInCU: 0x2811C, offset: 0x2811C, size: 0x8, addend: 0x0, symName: __ZSt13move_backwardIN9__gnu_cxx17__normal_iteratorIPSt4pairIfNSt7__cxx1112basic_stringIcSt11char_traitsIcESaIcEEEESt6vectorIS9_SaIS9_EEEESE_ET0_T_SG_SF_, symObjAddr: 0x5710, symBinAddr: 0x100007698, symSize: 0x48 }
  - { offsetInCU: 0x2817E, offset: 0x2817E, size: 0x8, addend: 0x0, symName: __ZN9__gnu_cxx5__ops15_Iter_comp_iterISt7greaterIvEEclINS_17__normal_iteratorIPSt4pairIfNSt7__cxx1112basic_stringIcSt11char_traitsIcESaIcEEEESt6vectorISE_SaISE_EEEESJ_EEbT_T0_, symObjAddr: 0x56C4, symBinAddr: 0x10000764C, symSize: 0x4C }
  - { offsetInCU: 0x281D6, offset: 0x281D6, size: 0x8, addend: 0x0, symName: __ZN9__gnu_cxxeqIPSt4pairIfNSt7__cxx1112basic_stringIcSt11char_traitsIcESaIcEEEESt6vectorIS8_SaIS8_EEEEbRKNS_17__normal_iteratorIT_T0_EESI_, symObjAddr: 0x5680, symBinAddr: 0x100007608, symSize: 0x44 }
  - { offsetInCU: 0x28223, offset: 0x28223, size: 0x8, addend: 0x0, symName: __ZSt21__unguarded_partitionIN9__gnu_cxx17__normal_iteratorIPSt4pairIfNSt7__cxx1112basic_stringIcSt11char_traitsIcESaIcEEEESt6vectorIS9_SaIS9_EEEENS0_5__ops15_Iter_comp_iterISt7greaterIvEEEET_SK_SK_SK_T0_, symObjAddr: 0x55C8, symBinAddr: 0x100007550, symSize: 0xB8 }
  - { offsetInCU: 0x28292, offset: 0x28292, size: 0x8, addend: 0x0, symName: __ZSt22__move_median_to_firstIN9__gnu_cxx17__normal_iteratorIPSt4pairIfNSt7__cxx1112basic_stringIcSt11char_traitsIcESaIcEEEESt6vectorIS9_SaIS9_EEEENS0_5__ops15_Iter_comp_iterISt7greaterIvEEEEvT_SK_SK_SK_T0_, symObjAddr: 0x54B8, symBinAddr: 0x100007440, symSize: 0x110 }
  - { offsetInCU: 0x2830D, offset: 0x2830D, size: 0x8, addend: 0x0, symName: __ZSt11__sort_heapIN9__gnu_cxx17__normal_iteratorIPSt4pairIfNSt7__cxx1112basic_stringIcSt11char_traitsIcESaIcEEEESt6vectorIS9_SaIS9_EEEENS0_5__ops15_Iter_comp_iterISt7greaterIvEEEEvT_SK_RT0_, symObjAddr: 0x5450, symBinAddr: 0x1000073D8, symSize: 0x68 }
  - { offsetInCU: 0x2836B, offset: 0x2836B, size: 0x8, addend: 0x0, symName: __ZSt13__heap_selectIN9__gnu_cxx17__normal_iteratorIPSt4pairIfNSt7__cxx1112basic_stringIcSt11char_traitsIcESaIcEEEESt6vectorIS9_SaIS9_EEEENS0_5__ops15_Iter_comp_iterISt7greaterIvEEEEvT_SK_SK_T0_, symObjAddr: 0x53B4, symBinAddr: 0x10000733C, symSize: 0x9C }
  - { offsetInCU: 0x283FE, offset: 0x283FE, size: 0x8, addend: 0x0, symName: __ZSt14__relocate_a_1IPNSt7__cxx1112basic_stringIcSt11char_traitsIcESaIcEEES6_SaIS5_EET0_T_S9_S8_RT1_, symObjAddr: 0x5330, symBinAddr: 0x1000072B8, symSize: 0x84 }
  - { offsetInCU: 0x28487, offset: 0x28487, size: 0x8, addend: 0x0, symName: __ZSt12__niter_baseIPNSt7__cxx1112basic_stringIcSt11char_traitsIcESaIcEEEET_S7_, symObjAddr: 0x531C, symBinAddr: 0x1000072A4, symSize: 0x14 }
  - { offsetInCU: 0x284BE, offset: 0x284BE, size: 0x8, addend: 0x0, symName: __ZNSt15__new_allocatorINSt7__cxx1112basic_stringIcSt11char_traitsIcESaIcEEEE8allocateEmPKv, symObjAddr: 0x52A0, symBinAddr: 0x100007228, symSize: 0x7C }
  - { offsetInCU: 0x2854A, offset: 0x2854A, size: 0x8, addend: 0x0, symName: __ZNKSt12_Vector_baseINSt7__cxx1112basic_stringIcSt11char_traitsIcESaIcEEESaIS5_EE19_M_get_Tp_allocatorEv, symObjAddr: 0x528C, symBinAddr: 0x100007214, symSize: 0x14 }
  - { offsetInCU: 0x28570, offset: 0x28570, size: 0x8, addend: 0x0, symName: __ZNSt6vectorINSt7__cxx1112basic_stringIcSt11char_traitsIcESaIcEEESaIS5_EE11_S_max_sizeERKS6_, symObjAddr: 0x5238, symBinAddr: 0x1000071C0, symSize: 0x54 }
  - { offsetInCU: 0x2862B, offset: 0x2862B, size: 0x8, addend: 0x0, symName: __ZNKSt10_Select1stISt4pairIKNSt7__cxx1112basic_stringIcSt11char_traitsIcESaIcEEESt6vectorIS6_SaIS6_EEEEclERKSB_, symObjAddr: 0x5220, symBinAddr: 0x1000071A8, symSize: 0x18 }
  - { offsetInCU: 0x28666, offset: 0x28666, size: 0x8, addend: 0x0, symName: __ZNKSt13_Rb_tree_nodeISt4pairIKNSt7__cxx1112basic_stringIcSt11char_traitsIcESaIcEEESt6vectorIS6_SaIS6_EEEE9_M_valptrEv, symObjAddr: 0x5200, symBinAddr: 0x100007188, symSize: 0x20 }
  - { offsetInCU: 0x28772, offset: 0x28772, size: 0x8, addend: 0x0, symName: __ZNSt4pairIPSt18_Rb_tree_node_baseS1_EC1IRPSt13_Rb_tree_nodeIS_IKNSt7__cxx1112basic_stringIcSt11char_traitsIcESaIcEEESt6vectorISA_SaISA_EEEERS1_Lb1EEEOT_OT0_, symObjAddr: 0x51B8, symBinAddr: 0x100007140, symSize: 0x48 }
  - { offsetInCU: 0x28722, offset: 0x28722, size: 0x8, addend: 0x0, symName: __ZNSt8_Rb_treeINSt7__cxx1112basic_stringIcSt11char_traitsIcESaIcEEESt4pairIKS5_St6vectorIS5_SaIS5_EEESt10_Select1stISB_ESt4lessIS5_ESaISB_EE5beginEv, symObjAddr: 0x5190, symBinAddr: 0x100007118, symSize: 0x28 }
  - { offsetInCU: 0x2874C, offset: 0x2874C, size: 0x8, addend: 0x0, symName: __ZNSt8_Rb_treeINSt7__cxx1112basic_stringIcSt11char_traitsIcESaIcEEESt4pairIKS5_St6vectorIS5_SaIS5_EEESt10_Select1stISB_ESt4lessIS5_ESaISB_EE17_M_construct_nodeIJRKSt21piecewise_construct_tSt5tupleIJRS7_EESM_IJEEEEEvPSt13_Rb_tree_nodeISB_EDpOT_, symObjAddr: 0x5014, symBinAddr: 0x100006F9C, symSize: 0x17C }
  - { offsetInCU: 0x2884D, offset: 0x2884D, size: 0x8, addend: 0x0, symName: __ZNSt8_Rb_treeINSt7__cxx1112basic_stringIcSt11char_traitsIcESaIcEEESt4pairIKS5_St6vectorIS5_SaIS5_EEESt10_Select1stISB_ESt4lessIS5_ESaISB_EE11_M_get_nodeEv, symObjAddr: 0x4FD8, symBinAddr: 0x100006F60, symSize: 0x3C }
  - { offsetInCU: 0x288A9, offset: 0x288A9, size: 0x8, addend: 0x0, symName: __ZN9__gnu_cxx16__aligned_membufISt4pairIKNSt7__cxx1112basic_stringIcSt11char_traitsIcESaIcEEESt6vectorIS7_SaIS7_EEEE7_M_addrEv, symObjAddr: 0x4FC4, symBinAddr: 0x100006F4C, symSize: 0x14 }
  - { offsetInCU: 0x288CE, offset: 0x288CE, size: 0x8, addend: 0x0, symName: __ZSt12__relocate_aIPSt4pairIfNSt7__cxx1112basic_stringIcSt11char_traitsIcESaIcEEEES8_SaIS7_EET0_T_SB_SA_RT1_, symObjAddr: 0x4F68, symBinAddr: 0x100006EF0, symSize: 0x5C }
  - { offsetInCU: 0x2896E, offset: 0x2896E, size: 0x8, addend: 0x0, symName: __ZNKSt6vectorISt4pairIfNSt7__cxx1112basic_stringIcSt11char_traitsIcESaIcEEEESaIS7_EE4sizeEv, symObjAddr: 0x4F34, symBinAddr: 0x100006EBC, symSize: 0x34 }
  - { offsetInCU: 0x28998, offset: 0x28998, size: 0x8, addend: 0x0, symName: __ZNKSt6vectorISt4pairIfNSt7__cxx1112basic_stringIcSt11char_traitsIcESaIcEEEESaIS7_EE8max_sizeEv, symObjAddr: 0x4F14, symBinAddr: 0x100006E9C, symSize: 0x20 }
  - { offsetInCU: 0x289C2, offset: 0x289C2, size: 0x8, addend: 0x0, symName: __ZNKSt10_Select1stISt4pairIKNSt7__cxx1112basic_stringIcSt11char_traitsIcESaIcEEEiEEclERKS8_, symObjAddr: 0x4EFC, symBinAddr: 0x100006E84, symSize: 0x18 }
  - { offsetInCU: 0x289FD, offset: 0x289FD, size: 0x8, addend: 0x0, symName: __ZNKSt13_Rb_tree_nodeISt4pairIKNSt7__cxx1112basic_stringIcSt11char_traitsIcESaIcEEEiEE9_M_valptrEv, symObjAddr: 0x4EDC, symBinAddr: 0x100006E64, symSize: 0x20 }
  - { offsetInCU: 0x28A29, offset: 0x28A29, size: 0x8, addend: 0x0, symName: __ZSt7forwardIRPSt18_Rb_tree_node_baseEOT_RNSt16remove_referenceIS3_E4typeE, symObjAddr: 0x4EC8, symBinAddr: 0x100006E50, symSize: 0x14 }
  - { offsetInCU: 0x28B2D, offset: 0x28B2D, size: 0x8, addend: 0x0, symName: __ZNSt4pairIPSt18_Rb_tree_node_baseS1_EC1IRPSt13_Rb_tree_nodeIS_IKNSt7__cxx1112basic_stringIcSt11char_traitsIcESaIcEEEiEERS1_Lb1EEEOT_OT0_, symObjAddr: 0x4E80, symBinAddr: 0x100006E08, symSize: 0x48 }
  - { offsetInCU: 0x28AF1, offset: 0x28AF1, size: 0x8, addend: 0x0, symName: __ZNSt8_Rb_treeINSt7__cxx1112basic_stringIcSt11char_traitsIcESaIcEEESt4pairIKS5_iESt10_Select1stIS8_ESt4lessIS5_ESaIS8_EE5beginEv, symObjAddr: 0x4E58, symBinAddr: 0x100006DE0, symSize: 0x28 }
  - { offsetInCU: 0x28B1B, offset: 0x28B1B, size: 0x8, addend: 0x0, symName: __ZNSt8_Rb_treeINSt7__cxx1112basic_stringIcSt11char_traitsIcESaIcEEESt4pairIKS5_iESt10_Select1stIS8_ESt4lessIS5_ESaIS8_EE17_M_construct_nodeIJRKSt21piecewise_construct_tSt5tupleIJRS7_EESJ_IJEEEEEvPSt13_Rb_tree_nodeIS8_EDpOT_, symObjAddr: 0x4CDC, symBinAddr: 0x100006C64, symSize: 0x17C }
  - { offsetInCU: 0x28C1C, offset: 0x28C1C, size: 0x8, addend: 0x0, symName: __ZNSt8_Rb_treeINSt7__cxx1112basic_stringIcSt11char_traitsIcESaIcEEESt4pairIKS5_iESt10_Select1stIS8_ESt4lessIS5_ESaIS8_EE11_M_get_nodeEv, symObjAddr: 0x4CA0, symBinAddr: 0x100006C28, symSize: 0x3C }
  - { offsetInCU: 0x28C78, offset: 0x28C78, size: 0x8, addend: 0x0, symName: __ZN9__gnu_cxx16__aligned_membufISt4pairIKNSt7__cxx1112basic_stringIcSt11char_traitsIcESaIcEEEiEE7_M_addrEv, symObjAddr: 0x4C8C, symBinAddr: 0x100006C14, symSize: 0x14 }
  - { offsetInCU: 0x28D00, offset: 0x28D00, size: 0x8, addend: 0x0, symName: __ZNSt8_Rb_treeINSt7__cxx1112basic_stringIcSt11char_traitsIcESaIcEEESt4pairIKS5_S5_ESt10_Select1stIS8_ESt4lessIS5_ESaIS8_EE21_M_get_Node_allocatorEv, symObjAddr: 0x4C78, symBinAddr: 0x100006C00, symSize: 0x14 }
  - { offsetInCU: 0x28D89, offset: 0x28D89, size: 0x8, addend: 0x0, symName: __ZNSt8_Rb_treeINSt7__cxx1112basic_stringIcSt11char_traitsIcESaIcEEESt4pairIKS5_St6vectorIS5_SaIS5_EEESt10_Select1stISB_ESt4lessIS5_ESaISB_EE21_M_get_Node_allocatorEv, symObjAddr: 0x4C64, symBinAddr: 0x100006BEC, symSize: 0x14 }
  - { offsetInCU: 0x28E12, offset: 0x28E12, size: 0x8, addend: 0x0, symName: __ZNSt8_Rb_treeINSt7__cxx1112basic_stringIcSt11char_traitsIcESaIcEEESt4pairIKS5_iESt10_Select1stIS8_ESt4lessIS5_ESaIS8_EE21_M_get_Node_allocatorEv, symObjAddr: 0x4C50, symBinAddr: 0x100006BD8, symSize: 0x14 }
  - { offsetInCU: 0x28E41, offset: 0x28E41, size: 0x8, addend: 0x0, symName: __ZN9__gnu_cxx16__aligned_membufISt4pairIKNSt7__cxx1112basic_stringIcSt11char_traitsIcESaIcEEES7_EE7_M_addrEv, symObjAddr: 0x4C3C, symBinAddr: 0x100006BC4, symSize: 0x14 }
  - { offsetInCU: 0x28E6A, offset: 0x28E6A, size: 0x8, addend: 0x0, symName: __ZNSt8_Rb_treeINSt7__cxx1112basic_stringIcSt11char_traitsIcESaIcEEESt4pairIKS5_S5_ESt10_Select1stIS8_ESt4lessIS5_ESaIS8_EE14_M_insert_nodeEPSt18_Rb_tree_node_baseSG_PSt13_Rb_tree_nodeIS8_E, symObjAddr: 0x4B6C, symBinAddr: 0x100006AF4, symSize: 0xD0 }
  - { offsetInCU: 0x28ED4, offset: 0x28ED4, size: 0x8, addend: 0x0, symName: __ZNSt8_Rb_treeINSt7__cxx1112basic_stringIcSt11char_traitsIcESaIcEEESt4pairIKS5_S5_ESt10_Select1stIS8_ESt4lessIS5_ESaIS8_EE6_S_keyEPKSt13_Rb_tree_nodeIS8_E, symObjAddr: 0x4B44, symBinAddr: 0x100006ACC, symSize: 0x28 }
  - { offsetInCU: 0x28F02, offset: 0x28F02, size: 0x8, addend: 0x0, symName: __ZNSt17_Rb_tree_iteratorISt4pairIKNSt7__cxx1112basic_stringIcSt11char_traitsIcESaIcEEES6_EEmmEv, symObjAddr: 0x4B14, symBinAddr: 0x100006A9C, symSize: 0x30 }
  - { offsetInCU: 0x28F2C, offset: 0x28F2C, size: 0x8, addend: 0x0, symName: __ZNSt8_Rb_treeINSt7__cxx1112basic_stringIcSt11char_traitsIcESaIcEEESt4pairIKS5_S5_ESt10_Select1stIS8_ESt4lessIS5_ESaIS8_EE11_M_leftmostEv, symObjAddr: 0x4AFC, symBinAddr: 0x100006A84, symSize: 0x18 }
  - { offsetInCU: 0x28F56, offset: 0x28F56, size: 0x8, addend: 0x0, symName: __ZNSt8_Rb_treeINSt7__cxx1112basic_stringIcSt11char_traitsIcESaIcEEESt4pairIKS5_S5_ESt10_Select1stIS8_ESt4lessIS5_ESaIS8_EE24_M_get_insert_unique_posERS7_, symObjAddr: 0x49A4, symBinAddr: 0x10000692C, symSize: 0x158 }
  - { offsetInCU: 0x28FD6, offset: 0x28FD6, size: 0x8, addend: 0x0, symName: __ZNSt8_Rb_treeINSt7__cxx1112basic_stringIcSt11char_traitsIcESaIcEEESt4pairIKS5_S5_ESt10_Select1stIS8_ESt4lessIS5_ESaIS8_EE6_S_keyEPKSt18_Rb_tree_node_base, symObjAddr: 0x4988, symBinAddr: 0x100006910, symSize: 0x1C }
  - { offsetInCU: 0x29004, offset: 0x29004, size: 0x8, addend: 0x0, symName: __ZNSt8_Rb_treeINSt7__cxx1112basic_stringIcSt11char_traitsIcESaIcEEESt4pairIKS5_S5_ESt10_Select1stIS8_ESt4lessIS5_ESaIS8_EE12_M_rightmostEv, symObjAddr: 0x4970, symBinAddr: 0x1000068F8, symSize: 0x18 }
  - { offsetInCU: 0x2902E, offset: 0x2902E, size: 0x8, addend: 0x0, symName: __ZNKSt8_Rb_treeINSt7__cxx1112basic_stringIcSt11char_traitsIcESaIcEEESt4pairIKS5_S5_ESt10_Select1stIS8_ESt4lessIS5_ESaIS8_EE4sizeEv, symObjAddr: 0x4958, symBinAddr: 0x1000068E0, symSize: 0x18 }
  - { offsetInCU: 0x29058, offset: 0x29058, size: 0x8, addend: 0x0, symName: __ZNKSt23_Rb_tree_const_iteratorISt4pairIKNSt7__cxx1112basic_stringIcSt11char_traitsIcESaIcEEES6_EE13_M_const_castEv, symObjAddr: 0x4930, symBinAddr: 0x1000068B8, symSize: 0x28 }
  - { offsetInCU: 0x29082, offset: 0x29082, size: 0x8, addend: 0x0, symName: __ZNSt8_Rb_treeINSt7__cxx1112basic_stringIcSt11char_traitsIcESaIcEEESt4pairIKS5_S5_ESt10_Select1stIS8_ESt4lessIS5_ESaIS8_EE14_M_create_nodeIJRKSt21piecewise_construct_tSt5tupleIJRS7_EESJ_IJEEEEEPSt13_Rb_tree_nodeIS8_EDpOT_, symObjAddr: 0x48C0, symBinAddr: 0x100006848, symSize: 0x70 }
  - { offsetInCU: 0x290F4, offset: 0x290F4, size: 0x8, addend: 0x0, symName: __ZNSt8_Rb_treeINSt7__cxx1112basic_stringIcSt11char_traitsIcESaIcEEESt4pairIKS5_S5_ESt10_Select1stIS8_ESt4lessIS5_ESaIS8_EE14_M_lower_boundEPSt13_Rb_tree_nodeIS8_EPSt18_Rb_tree_node_baseRS7_, symObjAddr: 0x4824, symBinAddr: 0x1000067AC, symSize: 0x9C }
  - { offsetInCU: 0x29151, offset: 0x29151, size: 0x8, addend: 0x0, symName: __ZNSt8_Rb_treeINSt7__cxx1112basic_stringIcSt11char_traitsIcESaIcEEESt4pairIKS5_S5_ESt10_Select1stIS8_ESt4lessIS5_ESaIS8_EE6_M_endEv, symObjAddr: 0x480C, symBinAddr: 0x100006794, symSize: 0x18 }
  - { offsetInCU: 0x29177, offset: 0x29177, size: 0x8, addend: 0x0, symName: __ZSt26__unguarded_insertion_sortIN9__gnu_cxx17__normal_iteratorIPSt4pairIfNSt7__cxx1112basic_stringIcSt11char_traitsIcESaIcEEEESt6vectorIS9_SaIS9_EEEENS0_5__ops15_Iter_comp_iterISt7greaterIvEEEEvT_SK_T0_, symObjAddr: 0x47A0, symBinAddr: 0x100006728, symSize: 0x6C }
  - { offsetInCU: 0x291F9, offset: 0x291F9, size: 0x8, addend: 0x0, symName: __ZSt16__insertion_sortIN9__gnu_cxx17__normal_iteratorIPSt4pairIfNSt7__cxx1112basic_stringIcSt11char_traitsIcESaIcEEEESt6vectorIS9_SaIS9_EEEENS0_5__ops15_Iter_comp_iterISt7greaterIvEEEEvT_SK_T0_, symObjAddr: 0x4688, symBinAddr: 0x100006610, symSize: 0x118 }
  - { offsetInCU: 0x2928C, offset: 0x2928C, size: 0x8, addend: 0x0, symName: __ZNK9__gnu_cxx17__normal_iteratorIPSt4pairIfNSt7__cxx1112basic_stringIcSt11char_traitsIcESaIcEEEESt6vectorIS8_SaIS8_EEEplEl, symObjAddr: 0x463C, symBinAddr: 0x1000065C4, symSize: 0x4C }
  - { offsetInCU: 0x292C3, offset: 0x292C3, size: 0x8, addend: 0x0, symName: __ZSt27__unguarded_partition_pivotIN9__gnu_cxx17__normal_iteratorIPSt4pairIfNSt7__cxx1112basic_stringIcSt11char_traitsIcESaIcEEEESt6vectorIS9_SaIS9_EEEENS0_5__ops15_Iter_comp_iterISt7greaterIvEEEET_SK_SK_T0_, symObjAddr: 0x45A0, symBinAddr: 0x100006528, symSize: 0x9C }
  - { offsetInCU: 0x29332, offset: 0x29332, size: 0x8, addend: 0x0, symName: __ZSt14__partial_sortIN9__gnu_cxx17__normal_iteratorIPSt4pairIfNSt7__cxx1112basic_stringIcSt11char_traitsIcESaIcEEEESt6vectorIS9_SaIS9_EEEENS0_5__ops15_Iter_comp_iterISt7greaterIvEEEEvT_SK_SK_T0_, symObjAddr: 0x4554, symBinAddr: 0x1000064DC, symSize: 0x4C }
  - { offsetInCU: 0x293A1, offset: 0x293A1, size: 0x8, addend: 0x0, symName: __ZSt12__relocate_aIPNSt7__cxx1112basic_stringIcSt11char_traitsIcESaIcEEES6_SaIS5_EET0_T_S9_S8_RT1_, symObjAddr: 0x44F8, symBinAddr: 0x100006480, symSize: 0x5C }
  - { offsetInCU: 0x2941D, offset: 0x2941D, size: 0x8, addend: 0x0, symName: __ZNSt15__new_allocatorINSt7__cxx1112basic_stringIcSt11char_traitsIcESaIcEEEE10deallocateEPS5_m, symObjAddr: 0x44C8, symBinAddr: 0x100006450, symSize: 0x30 }
  - { offsetInCU: 0x2948B, offset: 0x2948B, size: 0x8, addend: 0x0, symName: __ZNKSt6vectorINSt7__cxx1112basic_stringIcSt11char_traitsIcESaIcEEESaIS5_EE4sizeEv, symObjAddr: 0x44A0, symBinAddr: 0x100006428, symSize: 0x28 }
  - { offsetInCU: 0x294B5, offset: 0x294B5, size: 0x8, addend: 0x0, symName: __ZNKSt6vectorINSt7__cxx1112basic_stringIcSt11char_traitsIcESaIcEEESaIS5_EE8max_sizeEv, symObjAddr: 0x4480, symBinAddr: 0x100006408, symSize: 0x20 }
  - { offsetInCU: 0x294DF, offset: 0x294DF, size: 0x8, addend: 0x0, symName: __ZNSt8_Rb_treeINSt7__cxx1112basic_stringIcSt11char_traitsIcESaIcEEESt4pairIKS5_St6vectorIS5_SaIS5_EEESt10_Select1stISB_ESt4lessIS5_ESaISB_EE14_M_insert_nodeEPSt18_Rb_tree_node_baseSJ_PSt13_Rb_tree_nodeISB_E, symObjAddr: 0x43B0, symBinAddr: 0x100006338, symSize: 0xD0 }
  - { offsetInCU: 0x29549, offset: 0x29549, size: 0x8, addend: 0x0, symName: __ZNSt8_Rb_treeINSt7__cxx1112basic_stringIcSt11char_traitsIcESaIcEEESt4pairIKS5_St6vectorIS5_SaIS5_EEESt10_Select1stISB_ESt4lessIS5_ESaISB_EE6_S_keyEPKSt13_Rb_tree_nodeISB_E, symObjAddr: 0x4388, symBinAddr: 0x100006310, symSize: 0x28 }
  - { offsetInCU: 0x29577, offset: 0x29577, size: 0x8, addend: 0x0, symName: __ZNSt17_Rb_tree_iteratorISt4pairIKNSt7__cxx1112basic_stringIcSt11char_traitsIcESaIcEEESt6vectorIS6_SaIS6_EEEEppEv, symObjAddr: 0x4358, symBinAddr: 0x1000062E0, symSize: 0x30 }
  - { offsetInCU: 0x295A1, offset: 0x295A1, size: 0x8, addend: 0x0, symName: __ZNSt17_Rb_tree_iteratorISt4pairIKNSt7__cxx1112basic_stringIcSt11char_traitsIcESaIcEEESt6vectorIS6_SaIS6_EEEEmmEv, symObjAddr: 0x4328, symBinAddr: 0x1000062B0, symSize: 0x30 }
  - { offsetInCU: 0x295CB, offset: 0x295CB, size: 0x8, addend: 0x0, symName: __ZNSt8_Rb_treeINSt7__cxx1112basic_stringIcSt11char_traitsIcESaIcEEESt4pairIKS5_St6vectorIS5_SaIS5_EEESt10_Select1stISB_ESt4lessIS5_ESaISB_EE11_M_leftmostEv, symObjAddr: 0x4310, symBinAddr: 0x100006298, symSize: 0x18 }
  - { offsetInCU: 0x295F5, offset: 0x295F5, size: 0x8, addend: 0x0, symName: __ZNSt8_Rb_treeINSt7__cxx1112basic_stringIcSt11char_traitsIcESaIcEEESt4pairIKS5_St6vectorIS5_SaIS5_EEESt10_Select1stISB_ESt4lessIS5_ESaISB_EE24_M_get_insert_unique_posERS7_, symObjAddr: 0x41B8, symBinAddr: 0x100006140, symSize: 0x158 }
  - { offsetInCU: 0x29675, offset: 0x29675, size: 0x8, addend: 0x0, symName: __ZNSt8_Rb_treeINSt7__cxx1112basic_stringIcSt11char_traitsIcESaIcEEESt4pairIKS5_St6vectorIS5_SaIS5_EEESt10_Select1stISB_ESt4lessIS5_ESaISB_EE6_S_keyEPKSt18_Rb_tree_node_base, symObjAddr: 0x419C, symBinAddr: 0x100006124, symSize: 0x1C }
  - { offsetInCU: 0x296A3, offset: 0x296A3, size: 0x8, addend: 0x0, symName: __ZNSt8_Rb_treeINSt7__cxx1112basic_stringIcSt11char_traitsIcESaIcEEESt4pairIKS5_St6vectorIS5_SaIS5_EEESt10_Select1stISB_ESt4lessIS5_ESaISB_EE12_M_rightmostEv, symObjAddr: 0x4184, symBinAddr: 0x10000610C, symSize: 0x18 }
  - { offsetInCU: 0x296CD, offset: 0x296CD, size: 0x8, addend: 0x0, symName: __ZNKSt8_Rb_treeINSt7__cxx1112basic_stringIcSt11char_traitsIcESaIcEEESt4pairIKS5_St6vectorIS5_SaIS5_EEESt10_Select1stISB_ESt4lessIS5_ESaISB_EE4sizeEv, symObjAddr: 0x416C, symBinAddr: 0x1000060F4, symSize: 0x18 }
  - { offsetInCU: 0x296F7, offset: 0x296F7, size: 0x8, addend: 0x0, symName: __ZNKSt23_Rb_tree_const_iteratorISt4pairIKNSt7__cxx1112basic_stringIcSt11char_traitsIcESaIcEEESt6vectorIS6_SaIS6_EEEE13_M_const_castEv, symObjAddr: 0x4144, symBinAddr: 0x1000060CC, symSize: 0x28 }
  - { offsetInCU: 0x29721, offset: 0x29721, size: 0x8, addend: 0x0, symName: __ZNSt8_Rb_treeINSt7__cxx1112basic_stringIcSt11char_traitsIcESaIcEEESt4pairIKS5_St6vectorIS5_SaIS5_EEESt10_Select1stISB_ESt4lessIS5_ESaISB_EE14_M_create_nodeIJRKSt21piecewise_construct_tSt5tupleIJRS7_EESM_IJEEEEEPSt13_Rb_tree_nodeISB_EDpOT_, symObjAddr: 0x40D4, symBinAddr: 0x10000605C, symSize: 0x70 }
  - { offsetInCU: 0x29793, offset: 0x29793, size: 0x8, addend: 0x0, symName: __ZN9__gnu_cxx16__aligned_membufISt4pairIKNSt7__cxx1112basic_stringIcSt11char_traitsIcESaIcEEESt6vectorIS7_SaIS7_EEEE6_M_ptrEv, symObjAddr: 0x40B8, symBinAddr: 0x100006040, symSize: 0x1C }
  - { offsetInCU: 0x297BD, offset: 0x297BD, size: 0x8, addend: 0x0, symName: __ZNSt8_Rb_treeINSt7__cxx1112basic_stringIcSt11char_traitsIcESaIcEEESt4pairIKS5_St6vectorIS5_SaIS5_EEESt10_Select1stISB_ESt4lessIS5_ESaISB_EE14_M_lower_boundEPSt13_Rb_tree_nodeISB_EPSt18_Rb_tree_node_baseRS7_, symObjAddr: 0x401C, symBinAddr: 0x100005FA4, symSize: 0x9C }
  - { offsetInCU: 0x2981A, offset: 0x2981A, size: 0x8, addend: 0x0, symName: __ZNSt8_Rb_treeINSt7__cxx1112basic_stringIcSt11char_traitsIcESaIcEEESt4pairIKS5_St6vectorIS5_SaIS5_EEESt10_Select1stISB_ESt4lessIS5_ESaISB_EE6_M_endEv, symObjAddr: 0x4004, symBinAddr: 0x100005F8C, symSize: 0x18 }
  - { offsetInCU: 0x29844, offset: 0x29844, size: 0x8, addend: 0x0, symName: __ZNK9__gnu_cxx17__normal_iteratorIPSt4pairIfNSt7__cxx1112basic_stringIcSt11char_traitsIcESaIcEEEESt6vectorIS8_SaIS8_EEEmiEl, symObjAddr: 0x3FB4, symBinAddr: 0x100005F3C, symSize: 0x50 }
  - { offsetInCU: 0x2987F, offset: 0x2987F, size: 0x8, addend: 0x0, symName: __ZNSt12_Vector_baseISt4pairIfNSt7__cxx1112basic_stringIcSt11char_traitsIcESaIcEEEESaIS7_EE19_M_get_Tp_allocatorEv, symObjAddr: 0x3FA0, symBinAddr: 0x100005F28, symSize: 0x14 }
  - { offsetInCU: 0x298A5, offset: 0x298A5, size: 0x8, addend: 0x0, symName: __ZNSt6vectorISt4pairIfNSt7__cxx1112basic_stringIcSt11char_traitsIcESaIcEEEESaIS7_EE11_S_relocateEPS7_SA_SA_RS8_, symObjAddr: 0x3F6C, symBinAddr: 0x100005EF4, symSize: 0x34 }
  - { offsetInCU: 0x29902, offset: 0x29902, size: 0x8, addend: 0x0, symName: __ZSt12__to_addressISt4pairIfNSt7__cxx1112basic_stringIcSt11char_traitsIcESaIcEEEEEPT_S9_, symObjAddr: 0x3F58, symBinAddr: 0x100005EE0, symSize: 0x14 }
  - { offsetInCU: 0x29938, offset: 0x29938, size: 0x8, addend: 0x0, symName: __ZNSt12_Vector_baseISt4pairIfNSt7__cxx1112basic_stringIcSt11char_traitsIcESaIcEEEESaIS7_EE11_M_allocateEm, symObjAddr: 0x3F08, symBinAddr: 0x100005E90, symSize: 0x50 }
  - { offsetInCU: 0x299A0, offset: 0x299A0, size: 0x8, addend: 0x0, symName: __ZNKSt6vectorISt4pairIfNSt7__cxx1112basic_stringIcSt11char_traitsIcESaIcEEEESaIS7_EE12_M_check_lenEmPKc, symObjAddr: 0x3E38, symBinAddr: 0x100005DC0, symSize: 0xD0 }
  - { offsetInCU: 0x29AA3, offset: 0x29AA3, size: 0x8, addend: 0x0, symName: __ZNSt4pairIfNSt7__cxx1112basic_stringIcSt11char_traitsIcESaIcEEEEC1EOS6_, symObjAddr: 0x3DF0, symBinAddr: 0x100005D78, symSize: 0x48 }
  - { offsetInCU: 0x29A8D, offset: 0x29A8D, size: 0x8, addend: 0x0, symName: __ZNSt8_Rb_treeINSt7__cxx1112basic_stringIcSt11char_traitsIcESaIcEEESt4pairIKS5_iESt10_Select1stIS8_ESt4lessIS5_ESaIS8_EE14_M_insert_nodeEPSt18_Rb_tree_node_baseSG_PSt13_Rb_tree_nodeIS8_E, symObjAddr: 0x3D20, symBinAddr: 0x100005CA8, symSize: 0xD0 }
  - { offsetInCU: 0x29AF7, offset: 0x29AF7, size: 0x8, addend: 0x0, symName: __ZNSt8_Rb_treeINSt7__cxx1112basic_stringIcSt11char_traitsIcESaIcEEESt4pairIKS5_iESt10_Select1stIS8_ESt4lessIS5_ESaIS8_EE6_S_keyEPKSt13_Rb_tree_nodeIS8_E, symObjAddr: 0x3CF8, symBinAddr: 0x100005C80, symSize: 0x28 }
  - { offsetInCU: 0x29B25, offset: 0x29B25, size: 0x8, addend: 0x0, symName: __ZNSt17_Rb_tree_iteratorISt4pairIKNSt7__cxx1112basic_stringIcSt11char_traitsIcESaIcEEEiEEppEv, symObjAddr: 0x3CC8, symBinAddr: 0x100005C50, symSize: 0x30 }
  - { offsetInCU: 0x29B4F, offset: 0x29B4F, size: 0x8, addend: 0x0, symName: __ZNSt17_Rb_tree_iteratorISt4pairIKNSt7__cxx1112basic_stringIcSt11char_traitsIcESaIcEEEiEEmmEv, symObjAddr: 0x3C98, symBinAddr: 0x100005C20, symSize: 0x30 }
  - { offsetInCU: 0x29BFB, offset: 0x29BFB, size: 0x8, addend: 0x0, symName: __ZNSt4pairIPSt18_Rb_tree_node_baseS1_EC1IRS1_S4_Lb1EEEOT_OT0_, symObjAddr: 0x3C50, symBinAddr: 0x100005BD8, symSize: 0x48 }
  - { offsetInCU: 0x29C0B, offset: 0x29C0B, size: 0x8, addend: 0x0, symName: __ZNSt8_Rb_treeINSt7__cxx1112basic_stringIcSt11char_traitsIcESaIcEEESt4pairIKS5_iESt10_Select1stIS8_ESt4lessIS5_ESaIS8_EE11_M_leftmostEv, symObjAddr: 0x3C38, symBinAddr: 0x100005BC0, symSize: 0x18 }
  - { offsetInCU: 0x29C35, offset: 0x29C35, size: 0x8, addend: 0x0, symName: __ZNSt8_Rb_treeINSt7__cxx1112basic_stringIcSt11char_traitsIcESaIcEEESt4pairIKS5_iESt10_Select1stIS8_ESt4lessIS5_ESaIS8_EE24_M_get_insert_unique_posERS7_, symObjAddr: 0x3AE0, symBinAddr: 0x100005A68, symSize: 0x158 }
  - { offsetInCU: 0x29D3B, offset: 0x29D3B, size: 0x8, addend: 0x0, symName: __ZNSt4pairIPSt18_Rb_tree_node_baseS1_EC1IS1_S1_Lb1EEERKS1_S5_, symObjAddr: 0x3AA4, symBinAddr: 0x100005A2C, symSize: 0x3C }
  - { offsetInCU: 0x29D47, offset: 0x29D47, size: 0x8, addend: 0x0, symName: __ZNSt8_Rb_treeINSt7__cxx1112basic_stringIcSt11char_traitsIcESaIcEEESt4pairIKS5_iESt10_Select1stIS8_ESt4lessIS5_ESaIS8_EE6_S_keyEPKSt18_Rb_tree_node_base, symObjAddr: 0x3A88, symBinAddr: 0x100005A10, symSize: 0x1C }
  - { offsetInCU: 0x29D75, offset: 0x29D75, size: 0x8, addend: 0x0, symName: __ZNSt8_Rb_treeINSt7__cxx1112basic_stringIcSt11char_traitsIcESaIcEEESt4pairIKS5_iESt10_Select1stIS8_ESt4lessIS5_ESaIS8_EE12_M_rightmostEv, symObjAddr: 0x3A70, symBinAddr: 0x1000059F8, symSize: 0x18 }
  - { offsetInCU: 0x29D9F, offset: 0x29D9F, size: 0x8, addend: 0x0, symName: __ZNKSt8_Rb_treeINSt7__cxx1112basic_stringIcSt11char_traitsIcESaIcEEESt4pairIKS5_iESt10_Select1stIS8_ESt4lessIS5_ESaIS8_EE4sizeEv, symObjAddr: 0x3A58, symBinAddr: 0x1000059E0, symSize: 0x18 }
  - { offsetInCU: 0x29DC9, offset: 0x29DC9, size: 0x8, addend: 0x0, symName: __ZNKSt23_Rb_tree_const_iteratorISt4pairIKNSt7__cxx1112basic_stringIcSt11char_traitsIcESaIcEEEiEE13_M_const_castEv, symObjAddr: 0x3A30, symBinAddr: 0x1000059B8, symSize: 0x28 }
  - { offsetInCU: 0x29DF3, offset: 0x29DF3, size: 0x8, addend: 0x0, symName: __ZNSt8_Rb_treeINSt7__cxx1112basic_stringIcSt11char_traitsIcESaIcEEESt4pairIKS5_iESt10_Select1stIS8_ESt4lessIS5_ESaIS8_EE14_M_create_nodeIJRKSt21piecewise_construct_tSt5tupleIJRS7_EESJ_IJEEEEEPSt13_Rb_tree_nodeIS8_EDpOT_, symObjAddr: 0x39C0, symBinAddr: 0x100005948, symSize: 0x70 }
  - { offsetInCU: 0x29EE0, offset: 0x29EE0, size: 0x8, addend: 0x0, symName: __ZNSt10_Head_baseILm0ERKNSt7__cxx1112basic_stringIcSt11char_traitsIcESaIcEEELb0EEC2ES7_, symObjAddr: 0x399C, symBinAddr: 0x100005924, symSize: 0x24 }
  - { offsetInCU: 0x29EBB, offset: 0x29EBB, size: 0x8, addend: 0x0, symName: __ZN9__gnu_cxx16__aligned_membufISt4pairIKNSt7__cxx1112basic_stringIcSt11char_traitsIcESaIcEEEiEE6_M_ptrEv, symObjAddr: 0x3980, symBinAddr: 0x100005908, symSize: 0x1C }
  - { offsetInCU: 0x29EE5, offset: 0x29EE5, size: 0x8, addend: 0x0, symName: __ZNSt8_Rb_treeINSt7__cxx1112basic_stringIcSt11char_traitsIcESaIcEEESt4pairIKS5_iESt10_Select1stIS8_ESt4lessIS5_ESaIS8_EE14_M_lower_boundEPSt13_Rb_tree_nodeIS8_EPSt18_Rb_tree_node_baseRS7_, symObjAddr: 0x38E4, symBinAddr: 0x10000586C, symSize: 0x9C }
  - { offsetInCU: 0x29F42, offset: 0x29F42, size: 0x8, addend: 0x0, symName: __ZNSt8_Rb_treeINSt7__cxx1112basic_stringIcSt11char_traitsIcESaIcEEESt4pairIKS5_iESt10_Select1stIS8_ESt4lessIS5_ESaIS8_EE6_M_endEv, symObjAddr: 0x38CC, symBinAddr: 0x100005854, symSize: 0x18 }
  - { offsetInCU: 0x29F6C, offset: 0x29F6C, size: 0x8, addend: 0x0, symName: __ZNSt15__new_allocatorISt4pairIfNSt7__cxx1112basic_stringIcSt11char_traitsIcESaIcEEEEE10deallocateEPS7_m, symObjAddr: 0x3890, symBinAddr: 0x100005818, symSize: 0x3C }
  - { offsetInCU: 0x29FB6, offset: 0x29FB6, size: 0x8, addend: 0x0, symName: __ZNSt8_Rb_treeINSt7__cxx1112basic_stringIcSt11char_traitsIcESaIcEEESt4pairIKS5_S5_ESt10_Select1stIS8_ESt4lessIS5_ESaIS8_EE11_M_put_nodeEPSt13_Rb_tree_nodeIS8_E, symObjAddr: 0x3844, symBinAddr: 0x1000057CC, symSize: 0x4C }
  - { offsetInCU: 0x2A027, offset: 0x2A027, size: 0x8, addend: 0x0, symName: __ZNSt8_Rb_treeINSt7__cxx1112basic_stringIcSt11char_traitsIcESaIcEEESt4pairIKS5_S5_ESt10_Select1stIS8_ESt4lessIS5_ESaIS8_EE15_M_destroy_nodeEPSt13_Rb_tree_nodeIS8_E, symObjAddr: 0x37E4, symBinAddr: 0x10000576C, symSize: 0x60 }
  - { offsetInCU: 0x2A0BC, offset: 0x2A0BC, size: 0x8, addend: 0x0, symName: __ZNSt8_Rb_treeINSt7__cxx1112basic_stringIcSt11char_traitsIcESaIcEEESt4pairIKS5_St6vectorIS5_SaIS5_EEESt10_Select1stISB_ESt4lessIS5_ESaISB_EE11_M_put_nodeEPSt13_Rb_tree_nodeISB_E, symObjAddr: 0x3798, symBinAddr: 0x100005720, symSize: 0x4C }
  - { offsetInCU: 0x2A12D, offset: 0x2A12D, size: 0x8, addend: 0x0, symName: __ZNSt8_Rb_treeINSt7__cxx1112basic_stringIcSt11char_traitsIcESaIcEEESt4pairIKS5_St6vectorIS5_SaIS5_EEESt10_Select1stISB_ESt4lessIS5_ESaISB_EE15_M_destroy_nodeEPSt13_Rb_tree_nodeISB_E, symObjAddr: 0x3738, symBinAddr: 0x1000056C0, symSize: 0x60 }
  - { offsetInCU: 0x2A1C2, offset: 0x2A1C2, size: 0x8, addend: 0x0, symName: __ZNSt8_Rb_treeINSt7__cxx1112basic_stringIcSt11char_traitsIcESaIcEEESt4pairIKS5_iESt10_Select1stIS8_ESt4lessIS5_ESaIS8_EE11_M_put_nodeEPSt13_Rb_tree_nodeIS8_E, symObjAddr: 0x36EC, symBinAddr: 0x100005674, symSize: 0x4C }
  - { offsetInCU: 0x2A233, offset: 0x2A233, size: 0x8, addend: 0x0, symName: __ZNSt8_Rb_treeINSt7__cxx1112basic_stringIcSt11char_traitsIcESaIcEEESt4pairIKS5_iESt10_Select1stIS8_ESt4lessIS5_ESaIS8_EE15_M_destroy_nodeEPSt13_Rb_tree_nodeIS8_E, symObjAddr: 0x368C, symBinAddr: 0x100005614, symSize: 0x60 }
  - { offsetInCU: 0x2A2C4, offset: 0x2A2C4, size: 0x8, addend: 0x0, symName: __ZSt13__countl_zeroImEiT_, symObjAddr: 0x3638, symBinAddr: 0x1000055C0, symSize: 0x54 }
  - { offsetInCU: 0x2A35D, offset: 0x2A35D, size: 0x8, addend: 0x0, symName: __ZN9__gnu_cxx16__aligned_membufISt4pairIKNSt7__cxx1112basic_stringIcSt11char_traitsIcESaIcEEES7_EE6_M_ptrEv, symObjAddr: 0x361C, symBinAddr: 0x1000055A4, symSize: 0x1C }
  - { offsetInCU: 0x2A421, offset: 0x2A421, size: 0x8, addend: 0x0, symName: __ZNSt17_Rb_tree_iteratorISt4pairIKNSt7__cxx1112basic_stringIcSt11char_traitsIcESaIcEEES6_EEC1EPSt18_Rb_tree_node_base, symObjAddr: 0x35F8, symBinAddr: 0x100005580, symSize: 0x24 }
  - { offsetInCU: 0x2A3DE, offset: 0x2A3DE, size: 0x8, addend: 0x0, symName: __ZNSt8_Rb_treeINSt7__cxx1112basic_stringIcSt11char_traitsIcESaIcEEESt4pairIKS5_S5_ESt10_Select1stIS8_ESt4lessIS5_ESaIS8_EE10_Auto_node9_M_insertES6_IPSt18_Rb_tree_node_baseSH_E, symObjAddr: 0x35AC, symBinAddr: 0x100005534, symSize: 0x4C }
  - { offsetInCU: 0x2A42A, offset: 0x2A42A, size: 0x8, addend: 0x0, symName: __ZNKSt8_Rb_treeINSt7__cxx1112basic_stringIcSt11char_traitsIcESaIcEEESt4pairIKS5_S5_ESt10_Select1stIS8_ESt4lessIS5_ESaIS8_EE10_Auto_node6_M_keyEv, symObjAddr: 0x358C, symBinAddr: 0x100005514, symSize: 0x20 }
  - { offsetInCU: 0x2A454, offset: 0x2A454, size: 0x8, addend: 0x0, symName: __ZNSt8_Rb_treeINSt7__cxx1112basic_stringIcSt11char_traitsIcESaIcEEESt4pairIKS5_S5_ESt10_Select1stIS8_ESt4lessIS5_ESaIS8_EE29_M_get_insert_hint_unique_posESt23_Rb_tree_const_iteratorIS8_ERS7_, symObjAddr: 0x3268, symBinAddr: 0x1000051F0, symSize: 0x324 }
  - { offsetInCU: 0x2A5AA, offset: 0x2A5AA, size: 0x8, addend: 0x0, symName: __ZNSt8_Rb_treeINSt7__cxx1112basic_stringIcSt11char_traitsIcESaIcEEESt4pairIKS5_S5_ESt10_Select1stIS8_ESt4lessIS5_ESaIS8_EE10_Auto_nodeD1Ev, symObjAddr: 0x3224, symBinAddr: 0x1000051AC, symSize: 0x44 }
  - { offsetInCU: 0x2A661, offset: 0x2A661, size: 0x8, addend: 0x0, symName: __ZNSt8_Rb_treeINSt7__cxx1112basic_stringIcSt11char_traitsIcESaIcEEESt4pairIKS5_S5_ESt10_Select1stIS8_ESt4lessIS5_ESaIS8_EE10_Auto_nodeC1IJRKSt21piecewise_construct_tSt5tupleIJRS7_EESK_IJEEEEERSE_DpOT_, symObjAddr: 0x31A8, symBinAddr: 0x100005130, symSize: 0x7C }
  - { offsetInCU: 0x2A602, offset: 0x2A602, size: 0x8, addend: 0x0, symName: __ZNKSt8_Rb_treeINSt7__cxx1112basic_stringIcSt11char_traitsIcESaIcEEESt4pairIKS5_S5_ESt10_Select1stIS8_ESt4lessIS5_ESaIS8_EE8key_compEv, symObjAddr: 0x3190, symBinAddr: 0x100005118, symSize: 0x18 }
  - { offsetInCU: 0x2A62C, offset: 0x2A62C, size: 0x8, addend: 0x0, symName: __ZNSt8_Rb_treeINSt7__cxx1112basic_stringIcSt11char_traitsIcESaIcEEESt4pairIKS5_S5_ESt10_Select1stIS8_ESt4lessIS5_ESaIS8_EE11lower_boundERS7_, symObjAddr: 0x3148, symBinAddr: 0x1000050D0, symSize: 0x48 }
  - { offsetInCU: 0x2A663, offset: 0x2A663, size: 0x8, addend: 0x0, symName: __ZSt22__final_insertion_sortIN9__gnu_cxx17__normal_iteratorIPSt4pairIfNSt7__cxx1112basic_stringIcSt11char_traitsIcESaIcEEEESt6vectorIS9_SaIS9_EEEENS0_5__ops15_Iter_comp_iterISt7greaterIvEEEEvT_SK_T0_, symObjAddr: 0x30BC, symBinAddr: 0x100005044, symSize: 0x8C }
  - { offsetInCU: 0x2A6C1, offset: 0x2A6C1, size: 0x8, addend: 0x0, symName: __ZSt16__introsort_loopIN9__gnu_cxx17__normal_iteratorIPSt4pairIfNSt7__cxx1112basic_stringIcSt11char_traitsIcESaIcEEEESt6vectorIS9_SaIS9_EEEElNS0_5__ops15_Iter_comp_iterISt7greaterIvEEEEvT_SK_T0_T1_, symObjAddr: 0x3014, symBinAddr: 0x100004F9C, symSize: 0xA8 }
  - { offsetInCU: 0x2A75D, offset: 0x2A75D, size: 0x8, addend: 0x0, symName: __ZSt4__lgIlET_S0_, symObjAddr: 0x2FF0, symBinAddr: 0x100004F78, symSize: 0x24 }
  - { offsetInCU: 0x2A790, offset: 0x2A790, size: 0x8, addend: 0x0, symName: __ZN9__gnu_cxxmiIPSt4pairIfNSt7__cxx1112basic_stringIcSt11char_traitsIcESaIcEEEESt6vectorIS8_SaIS8_EEEENS_17__normal_iteratorIT_T0_E15difference_typeERKSG_SJ_, symObjAddr: 0x2FA4, symBinAddr: 0x100004F2C, symSize: 0x4C }
  - { offsetInCU: 0x2A83E, offset: 0x2A83E, size: 0x8, addend: 0x0, symName: __ZN9__gnu_cxx5__ops15_Iter_comp_iterISt7greaterIvEEC1ES3_, symObjAddr: 0x2F80, symBinAddr: 0x100004F08, symSize: 0x24 }
  - { offsetInCU: 0x2A840, offset: 0x2A840, size: 0x8, addend: 0x0, symName: __ZSt4moveIRSt7greaterIvEEONSt16remove_referenceIT_E4typeEOS4_, symObjAddr: 0x2F6C, symBinAddr: 0x100004EF4, symSize: 0x14 }
  - { offsetInCU: 0x2A876, offset: 0x2A876, size: 0x8, addend: 0x0, symName: __ZNSt12_Vector_baseINSt7__cxx1112basic_stringIcSt11char_traitsIcESaIcEEESaIS5_EE19_M_get_Tp_allocatorEv, symObjAddr: 0x2F58, symBinAddr: 0x100004EE0, symSize: 0x14 }
  - { offsetInCU: 0x2A89C, offset: 0x2A89C, size: 0x8, addend: 0x0, symName: __ZNSt6vectorINSt7__cxx1112basic_stringIcSt11char_traitsIcESaIcEEESaIS5_EE11_S_relocateEPS5_S8_S8_RS6_, symObjAddr: 0x2F24, symBinAddr: 0x100004EAC, symSize: 0x34 }
  - { offsetInCU: 0x2A8F9, offset: 0x2A8F9, size: 0x8, addend: 0x0, symName: __ZSt12__to_addressINSt7__cxx1112basic_stringIcSt11char_traitsIcESaIcEEEEPT_S7_, symObjAddr: 0x2F10, symBinAddr: 0x100004E98, symSize: 0x14 }
  - { offsetInCU: 0x2A961, offset: 0x2A961, size: 0x8, addend: 0x0, symName: __ZNSt12_Vector_baseINSt7__cxx1112basic_stringIcSt11char_traitsIcESaIcEEESaIS5_EE11_M_allocateEm, symObjAddr: 0x2EC0, symBinAddr: 0x100004E48, symSize: 0x50 }
  - { offsetInCU: 0x2A9CB, offset: 0x2A9CB, size: 0x8, addend: 0x0, symName: __ZN9__gnu_cxxmiIPNSt7__cxx1112basic_stringIcSt11char_traitsIcESaIcEEESt6vectorIS6_SaIS6_EEEENS_17__normal_iteratorIT_T0_E15difference_typeERKSE_SH_, symObjAddr: 0x2E80, symBinAddr: 0x100004E08, symSize: 0x40 }
  - { offsetInCU: 0x2AA1C, offset: 0x2AA1C, size: 0x8, addend: 0x0, symName: __ZNKSt6vectorINSt7__cxx1112basic_stringIcSt11char_traitsIcESaIcEEESaIS5_EE12_M_check_lenEmPKc, symObjAddr: 0x2DB0, symBinAddr: 0x100004D38, symSize: 0xD0 }
  - { offsetInCU: 0x2AABD, offset: 0x2AABD, size: 0x8, addend: 0x0, symName: __ZSt7forwardIRKNSt7__cxx1112basic_stringIcSt11char_traitsIcESaIcEEEEOT_RNSt16remove_referenceIS8_E4typeE, symObjAddr: 0x2D9C, symBinAddr: 0x100004D24, symSize: 0x14 }
  - { offsetInCU: 0x2AB9F, offset: 0x2AB9F, size: 0x8, addend: 0x0, symName: __ZNSt17_Rb_tree_iteratorISt4pairIKNSt7__cxx1112basic_stringIcSt11char_traitsIcESaIcEEESt6vectorIS6_SaIS6_EEEEC1EPSt18_Rb_tree_node_base, symObjAddr: 0x2D78, symBinAddr: 0x100004D00, symSize: 0x24 }
  - { offsetInCU: 0x2AB4A, offset: 0x2AB4A, size: 0x8, addend: 0x0, symName: __ZNSt8_Rb_treeINSt7__cxx1112basic_stringIcSt11char_traitsIcESaIcEEESt4pairIKS5_St6vectorIS5_SaIS5_EEESt10_Select1stISB_ESt4lessIS5_ESaISB_EE10_Auto_node9_M_insertES6_IPSt18_Rb_tree_node_baseSK_E, symObjAddr: 0x2D2C, symBinAddr: 0x100004CB4, symSize: 0x4C }
  - { offsetInCU: 0x2AB96, offset: 0x2AB96, size: 0x8, addend: 0x0, symName: __ZNKSt8_Rb_treeINSt7__cxx1112basic_stringIcSt11char_traitsIcESaIcEEESt4pairIKS5_St6vectorIS5_SaIS5_EEESt10_Select1stISB_ESt4lessIS5_ESaISB_EE10_Auto_node6_M_keyEv, symObjAddr: 0x2D0C, symBinAddr: 0x100004C94, symSize: 0x20 }
  - { offsetInCU: 0x2ABC0, offset: 0x2ABC0, size: 0x8, addend: 0x0, symName: __ZNSt8_Rb_treeINSt7__cxx1112basic_stringIcSt11char_traitsIcESaIcEEESt4pairIKS5_St6vectorIS5_SaIS5_EEESt10_Select1stISB_ESt4lessIS5_ESaISB_EE29_M_get_insert_hint_unique_posESt23_Rb_tree_const_iteratorISB_ERS7_, symObjAddr: 0x29E8, symBinAddr: 0x100004970, symSize: 0x324 }
  - { offsetInCU: 0x2AD28, offset: 0x2AD28, size: 0x8, addend: 0x0, symName: __ZNSt8_Rb_treeINSt7__cxx1112basic_stringIcSt11char_traitsIcESaIcEEESt4pairIKS5_St6vectorIS5_SaIS5_EEESt10_Select1stISB_ESt4lessIS5_ESaISB_EE10_Auto_nodeD1Ev, symObjAddr: 0x29A4, symBinAddr: 0x10000492C, symSize: 0x44 }
  - { offsetInCU: 0x2ADDF, offset: 0x2ADDF, size: 0x8, addend: 0x0, symName: __ZNSt8_Rb_treeINSt7__cxx1112basic_stringIcSt11char_traitsIcESaIcEEESt4pairIKS5_St6vectorIS5_SaIS5_EEESt10_Select1stISB_ESt4lessIS5_ESaISB_EE10_Auto_nodeC1IJRKSt21piecewise_construct_tSt5tupleIJRS7_EESN_IJEEEEERSH_DpOT_, symObjAddr: 0x2928, symBinAddr: 0x1000048B0, symSize: 0x7C }
  - { offsetInCU: 0x2AD6E, offset: 0x2AD6E, size: 0x8, addend: 0x0, symName: __ZNSt13_Rb_tree_nodeISt4pairIKNSt7__cxx1112basic_stringIcSt11char_traitsIcESaIcEEESt6vectorIS6_SaIS6_EEEE9_M_valptrEv, symObjAddr: 0x2908, symBinAddr: 0x100004890, symSize: 0x20 }
  - { offsetInCU: 0x2AD98, offset: 0x2AD98, size: 0x8, addend: 0x0, symName: __ZNKSt8_Rb_treeINSt7__cxx1112basic_stringIcSt11char_traitsIcESaIcEEESt4pairIKS5_St6vectorIS5_SaIS5_EEESt10_Select1stISB_ESt4lessIS5_ESaISB_EE8key_compEv, symObjAddr: 0x28F0, symBinAddr: 0x100004878, symSize: 0x18 }
  - { offsetInCU: 0x2ADC2, offset: 0x2ADC2, size: 0x8, addend: 0x0, symName: __ZNSt8_Rb_treeINSt7__cxx1112basic_stringIcSt11char_traitsIcESaIcEEESt4pairIKS5_St6vectorIS5_SaIS5_EEESt10_Select1stISB_ESt4lessIS5_ESaISB_EE3endEv, symObjAddr: 0x28C8, symBinAddr: 0x100004850, symSize: 0x28 }
  - { offsetInCU: 0x2ADEC, offset: 0x2ADEC, size: 0x8, addend: 0x0, symName: __ZNSt8_Rb_treeINSt7__cxx1112basic_stringIcSt11char_traitsIcESaIcEEESt4pairIKS5_St6vectorIS5_SaIS5_EEESt10_Select1stISB_ESt4lessIS5_ESaISB_EE11lower_boundERS7_, symObjAddr: 0x2880, symBinAddr: 0x100004808, symSize: 0x48 }
  - { offsetInCU: 0x2AE27, offset: 0x2AE27, size: 0x8, addend: 0x0, symName: __ZNSt6vectorISt4pairIfNSt7__cxx1112basic_stringIcSt11char_traitsIcESaIcEEEESaIS7_EE4backEv, symObjAddr: 0x2848, symBinAddr: 0x1000047D0, symSize: 0x38 }
  - { offsetInCU: 0x2AE51, offset: 0x2AE51, size: 0x8, addend: 0x0, symName: __ZNSt6vectorISt4pairIfNSt7__cxx1112basic_stringIcSt11char_traitsIcESaIcEEEESaIS7_EE17_M_realloc_appendIJS7_EEEvDpOT_, symObjAddr: 0x265C, symBinAddr: 0x1000045E4, symSize: 0x1EC }
  - { offsetInCU: 0x2B05C, offset: 0x2B05C, size: 0x8, addend: 0x0, symName: __ZZNSt6vectorISt4pairIfNSt7__cxx1112basic_stringIcSt11char_traitsIcESaIcEEEESaIS7_EE17_M_realloc_appendIJS7_EEEvDpOT_EN6_GuardC1EPS7_mRS8_, symObjAddr: 0x25B8, symBinAddr: 0x100004540, symSize: 0x44 }
  - { offsetInCU: 0x2B09A, offset: 0x2B09A, size: 0x8, addend: 0x0, symName: __ZZNSt6vectorISt4pairIfNSt7__cxx1112basic_stringIcSt11char_traitsIcESaIcEEEESaIS7_EE17_M_realloc_appendIJS7_EEEvDpOT_EN6_GuardD1Ev, symObjAddr: 0x25FC, symBinAddr: 0x100004584, symSize: 0x60 }
  - { offsetInCU: 0x2B153, offset: 0x2B153, size: 0x8, addend: 0x0, symName: __ZSt7forwardISt4pairIfNSt7__cxx1112basic_stringIcSt11char_traitsIcESaIcEEEEEOT_RNSt16remove_referenceIS8_E4typeE, symObjAddr: 0x25A4, symBinAddr: 0x10000452C, symSize: 0x14 }
  - { offsetInCU: 0x2B221, offset: 0x2B221, size: 0x8, addend: 0x0, symName: __ZNSt17_Rb_tree_iteratorISt4pairIKNSt7__cxx1112basic_stringIcSt11char_traitsIcESaIcEEEiEEC1EPSt18_Rb_tree_node_base, symObjAddr: 0x2580, symBinAddr: 0x100004508, symSize: 0x24 }
  - { offsetInCU: 0x2B1E0, offset: 0x2B1E0, size: 0x8, addend: 0x0, symName: __ZNSt8_Rb_treeINSt7__cxx1112basic_stringIcSt11char_traitsIcESaIcEEESt4pairIKS5_iESt10_Select1stIS8_ESt4lessIS5_ESaIS8_EE10_Auto_node9_M_insertES6_IPSt18_Rb_tree_node_baseSH_E, symObjAddr: 0x2534, symBinAddr: 0x1000044BC, symSize: 0x4C }
  - { offsetInCU: 0x2B22C, offset: 0x2B22C, size: 0x8, addend: 0x0, symName: __ZNKSt8_Rb_treeINSt7__cxx1112basic_stringIcSt11char_traitsIcESaIcEEESt4pairIKS5_iESt10_Select1stIS8_ESt4lessIS5_ESaIS8_EE10_Auto_node6_M_keyEv, symObjAddr: 0x2514, symBinAddr: 0x10000449C, symSize: 0x20 }
  - { offsetInCU: 0x2B256, offset: 0x2B256, size: 0x8, addend: 0x0, symName: __ZNSt8_Rb_treeINSt7__cxx1112basic_stringIcSt11char_traitsIcESaIcEEESt4pairIKS5_iESt10_Select1stIS8_ESt4lessIS5_ESaIS8_EE29_M_get_insert_hint_unique_posESt23_Rb_tree_const_iteratorIS8_ERS7_, symObjAddr: 0x21F0, symBinAddr: 0x100004178, symSize: 0x324 }
  - { offsetInCU: 0x2B3AA, offset: 0x2B3AA, size: 0x8, addend: 0x0, symName: __ZNSt8_Rb_treeINSt7__cxx1112basic_stringIcSt11char_traitsIcESaIcEEESt4pairIKS5_iESt10_Select1stIS8_ESt4lessIS5_ESaIS8_EE10_Auto_nodeD1Ev, symObjAddr: 0x21AC, symBinAddr: 0x100004134, symSize: 0x44 }
  - { offsetInCU: 0x2B461, offset: 0x2B461, size: 0x8, addend: 0x0, symName: __ZNSt8_Rb_treeINSt7__cxx1112basic_stringIcSt11char_traitsIcESaIcEEESt4pairIKS5_iESt10_Select1stIS8_ESt4lessIS5_ESaIS8_EE10_Auto_nodeC1IJRKSt21piecewise_construct_tSt5tupleIJRS7_EESK_IJEEEEERSE_DpOT_, symObjAddr: 0x2130, symBinAddr: 0x1000040B8, symSize: 0x7C }
  - { offsetInCU: 0x2B406, offset: 0x2B406, size: 0x8, addend: 0x0, symName: __ZSt7forwardISt5tupleIJEEEOT_RNSt16remove_referenceIS2_E4typeE, symObjAddr: 0x211C, symBinAddr: 0x1000040A4, symSize: 0x14 }
  - { offsetInCU: 0x2B43E, offset: 0x2B43E, size: 0x8, addend: 0x0, symName: __ZSt7forwardISt5tupleIJRKNSt7__cxx1112basic_stringIcSt11char_traitsIcESaIcEEEEEEOT_RNSt16remove_referenceISA_E4typeE, symObjAddr: 0x2108, symBinAddr: 0x100004090, symSize: 0x14 }
  - { offsetInCU: 0x2B476, offset: 0x2B476, size: 0x8, addend: 0x0, symName: __ZSt7forwardIRKSt21piecewise_construct_tEOT_RNSt16remove_referenceIS3_E4typeE, symObjAddr: 0x20F4, symBinAddr: 0x10000407C, symSize: 0x14 }
  - { offsetInCU: 0x2B527, offset: 0x2B527, size: 0x8, addend: 0x0, symName: __ZNSt11_Tuple_implILm0EJRKNSt7__cxx1112basic_stringIcSt11char_traitsIcESaIcEEEEEC2ES7_, symObjAddr: 0x20CC, symBinAddr: 0x100004054, symSize: 0x28 }
  - { offsetInCU: 0x2B4FF, offset: 0x2B4FF, size: 0x8, addend: 0x0, symName: __ZStltIcSt11char_traitsIcESaIcEEbRKNSt7__cxx1112basic_stringIT_T0_T1_EESA_, symObjAddr: 0x20A0, symBinAddr: 0x100004028, symSize: 0x2C }
  - { offsetInCU: 0x2B559, offset: 0x2B559, size: 0x8, addend: 0x0, symName: __ZNSt13_Rb_tree_nodeISt4pairIKNSt7__cxx1112basic_stringIcSt11char_traitsIcESaIcEEEiEE9_M_valptrEv, symObjAddr: 0x2080, symBinAddr: 0x100004008, symSize: 0x20 }
  - { offsetInCU: 0x2B583, offset: 0x2B583, size: 0x8, addend: 0x0, symName: __ZNKSt8_Rb_treeINSt7__cxx1112basic_stringIcSt11char_traitsIcESaIcEEESt4pairIKS5_iESt10_Select1stIS8_ESt4lessIS5_ESaIS8_EE8key_compEv, symObjAddr: 0x2068, symBinAddr: 0x100003FF0, symSize: 0x18 }
  - { offsetInCU: 0x2B5AD, offset: 0x2B5AD, size: 0x8, addend: 0x0, symName: __ZNSt8_Rb_treeINSt7__cxx1112basic_stringIcSt11char_traitsIcESaIcEEESt4pairIKS5_iESt10_Select1stIS8_ESt4lessIS5_ESaIS8_EE3endEv, symObjAddr: 0x2040, symBinAddr: 0x100003FC8, symSize: 0x28 }
  - { offsetInCU: 0x2B5D7, offset: 0x2B5D7, size: 0x8, addend: 0x0, symName: __ZNSt8_Rb_treeINSt7__cxx1112basic_stringIcSt11char_traitsIcESaIcEEESt4pairIKS5_iESt10_Select1stIS8_ESt4lessIS5_ESaIS8_EE11lower_boundERS7_, symObjAddr: 0x1FF8, symBinAddr: 0x100003F80, symSize: 0x48 }
  - { offsetInCU: 0x2B65A, offset: 0x2B65A, size: 0x8, addend: 0x0, symName: __ZNKSt8_Rb_treeINSt7__cxx1112basic_stringIcSt11char_traitsIcESaIcEEESt4pairIKS5_S5_ESt10_Select1stIS8_ESt4lessIS5_ESaIS8_EE9_M_mbeginEv, symObjAddr: 0x1FE0, symBinAddr: 0x100003F68, symSize: 0x18 }
  - { offsetInCU: 0x2B684, offset: 0x2B684, size: 0x8, addend: 0x0, symName: __ZNSt8_Rb_treeINSt7__cxx1112basic_stringIcSt11char_traitsIcESaIcEEESt4pairIKS5_S5_ESt10_Select1stIS8_ESt4lessIS5_ESaIS8_EE12_M_drop_nodeEPSt13_Rb_tree_nodeIS8_E, symObjAddr: 0x1FAC, symBinAddr: 0x100003F34, symSize: 0x34 }
  - { offsetInCU: 0x2B6BB, offset: 0x2B6BB, size: 0x8, addend: 0x0, symName: __ZNSt8_Rb_treeINSt7__cxx1112basic_stringIcSt11char_traitsIcESaIcEEESt4pairIKS5_S5_ESt10_Select1stIS8_ESt4lessIS5_ESaIS8_EE7_S_leftEPSt18_Rb_tree_node_base, symObjAddr: 0x1F94, symBinAddr: 0x100003F1C, symSize: 0x18 }
  - { offsetInCU: 0x2B6E5, offset: 0x2B6E5, size: 0x8, addend: 0x0, symName: __ZNSt8_Rb_treeINSt7__cxx1112basic_stringIcSt11char_traitsIcESaIcEEESt4pairIKS5_S5_ESt10_Select1stIS8_ESt4lessIS5_ESaIS8_EE8_S_rightEPSt18_Rb_tree_node_base, symObjAddr: 0x1F7C, symBinAddr: 0x100003F04, symSize: 0x18 }
  - { offsetInCU: 0x2B729, offset: 0x2B729, size: 0x8, addend: 0x0, symName: __ZNKSt8_Rb_treeINSt7__cxx1112basic_stringIcSt11char_traitsIcESaIcEEESt4pairIKS5_St6vectorIS5_SaIS5_EEESt10_Select1stISB_ESt4lessIS5_ESaISB_EE9_M_mbeginEv, symObjAddr: 0x1F64, symBinAddr: 0x100003EEC, symSize: 0x18 }
  - { offsetInCU: 0x2B753, offset: 0x2B753, size: 0x8, addend: 0x0, symName: __ZNSt8_Rb_treeINSt7__cxx1112basic_stringIcSt11char_traitsIcESaIcEEESt4pairIKS5_St6vectorIS5_SaIS5_EEESt10_Select1stISB_ESt4lessIS5_ESaISB_EE12_M_drop_nodeEPSt13_Rb_tree_nodeISB_E, symObjAddr: 0x1F30, symBinAddr: 0x100003EB8, symSize: 0x34 }
  - { offsetInCU: 0x2B78A, offset: 0x2B78A, size: 0x8, addend: 0x0, symName: __ZNSt8_Rb_treeINSt7__cxx1112basic_stringIcSt11char_traitsIcESaIcEEESt4pairIKS5_St6vectorIS5_SaIS5_EEESt10_Select1stISB_ESt4lessIS5_ESaISB_EE7_S_leftEPSt18_Rb_tree_node_base, symObjAddr: 0x1F18, symBinAddr: 0x100003EA0, symSize: 0x18 }
  - { offsetInCU: 0x2B7B4, offset: 0x2B7B4, size: 0x8, addend: 0x0, symName: __ZNSt8_Rb_treeINSt7__cxx1112basic_stringIcSt11char_traitsIcESaIcEEESt4pairIKS5_St6vectorIS5_SaIS5_EEESt10_Select1stISB_ESt4lessIS5_ESaISB_EE8_S_rightEPSt18_Rb_tree_node_base, symObjAddr: 0x1F00, symBinAddr: 0x100003E88, symSize: 0x18 }
  - { offsetInCU: 0x2B7F8, offset: 0x2B7F8, size: 0x8, addend: 0x0, symName: __ZNKSt8_Rb_treeINSt7__cxx1112basic_stringIcSt11char_traitsIcESaIcEEESt4pairIKS5_iESt10_Select1stIS8_ESt4lessIS5_ESaIS8_EE9_M_mbeginEv, symObjAddr: 0x1EE8, symBinAddr: 0x100003E70, symSize: 0x18 }
  - { offsetInCU: 0x2B822, offset: 0x2B822, size: 0x8, addend: 0x0, symName: __ZNSt8_Rb_treeINSt7__cxx1112basic_stringIcSt11char_traitsIcESaIcEEESt4pairIKS5_iESt10_Select1stIS8_ESt4lessIS5_ESaIS8_EE12_M_drop_nodeEPSt13_Rb_tree_nodeIS8_E, symObjAddr: 0x1EB4, symBinAddr: 0x100003E3C, symSize: 0x34 }
  - { offsetInCU: 0x2B859, offset: 0x2B859, size: 0x8, addend: 0x0, symName: __ZNSt8_Rb_treeINSt7__cxx1112basic_stringIcSt11char_traitsIcESaIcEEESt4pairIKS5_iESt10_Select1stIS8_ESt4lessIS5_ESaIS8_EE7_S_leftEPSt18_Rb_tree_node_base, symObjAddr: 0x1E9C, symBinAddr: 0x100003E24, symSize: 0x18 }
  - { offsetInCU: 0x2B883, offset: 0x2B883, size: 0x8, addend: 0x0, symName: __ZNSt8_Rb_treeINSt7__cxx1112basic_stringIcSt11char_traitsIcESaIcEEESt4pairIKS5_iESt10_Select1stIS8_ESt4lessIS5_ESaIS8_EE8_S_rightEPSt18_Rb_tree_node_base, symObjAddr: 0x1E84, symBinAddr: 0x100003E0C, symSize: 0x18 }
  - { offsetInCU: 0x2B8C3, offset: 0x2B8C3, size: 0x8, addend: 0x0, symName: __ZSt11__bit_widthImEiT_, symObjAddr: 0x1E54, symBinAddr: 0x100003DDC, symSize: 0x30 }
  - { offsetInCU: 0x2B90B, offset: 0x2B90B, size: 0x8, addend: 0x0, symName: __ZNSt13_Rb_tree_nodeISt4pairIKNSt7__cxx1112basic_stringIcSt11char_traitsIcESaIcEEES6_EE9_M_valptrEv, symObjAddr: 0x1E34, symBinAddr: 0x100003DBC, symSize: 0x20 }
  - { offsetInCU: 0x2B935, offset: 0x2B935, size: 0x8, addend: 0x0, symName: __ZNSt8_Rb_treeINSt7__cxx1112basic_stringIcSt11char_traitsIcESaIcEEESt4pairIKS5_S5_ESt10_Select1stIS8_ESt4lessIS5_ESaIS8_EE3endEv, symObjAddr: 0x1E0C, symBinAddr: 0x100003D94, symSize: 0x28 }
  - { offsetInCU: 0x2B95F, offset: 0x2B95F, size: 0x8, addend: 0x0, symName: __ZNSt8_Rb_treeINSt7__cxx1112basic_stringIcSt11char_traitsIcESaIcEEESt4pairIKS5_S5_ESt10_Select1stIS8_ESt4lessIS5_ESaIS8_EE5beginEv, symObjAddr: 0x1DE4, symBinAddr: 0x100003D6C, symSize: 0x28 }
  - { offsetInCU: 0x2B989, offset: 0x2B989, size: 0x8, addend: 0x0, symName: __ZNSt8_Rb_treeINSt7__cxx1112basic_stringIcSt11char_traitsIcESaIcEEESt4pairIKS5_S5_ESt10_Select1stIS8_ESt4lessIS5_ESaIS8_EE22_M_emplace_hint_uniqueIJRKSt21piecewise_construct_tSt5tupleIJRS7_EESJ_IJEEEEESt17_Rb_tree_iteratorIS8_ESt23_Rb_tree_const_iteratorIS8_EDpOT_, symObjAddr: 0x1D0C, symBinAddr: 0x100003C94, symSize: 0xD8 }
  - { offsetInCU: 0x2BAC5, offset: 0x2BAC5, size: 0x8, addend: 0x0, symName: __ZNSt23_Rb_tree_const_iteratorISt4pairIKNSt7__cxx1112basic_stringIcSt11char_traitsIcESaIcEEES6_EEC1ERKSt17_Rb_tree_iteratorIS8_E, symObjAddr: 0x1CE4, symBinAddr: 0x100003C6C, symSize: 0x28 }
  - { offsetInCU: 0x2BA77, offset: 0x2BA77, size: 0x8, addend: 0x0, symName: __ZNKSt3mapINSt7__cxx1112basic_stringIcSt11char_traitsIcESaIcEEES5_St4lessIS5_ESaISt4pairIKS5_S5_EEE8key_compEv, symObjAddr: 0x1CB8, symBinAddr: 0x100003C40, symSize: 0x2C }
  - { offsetInCU: 0x2BAA3, offset: 0x2BAA3, size: 0x8, addend: 0x0, symName: __ZSteqRKSt17_Rb_tree_iteratorISt4pairIKNSt7__cxx1112basic_stringIcSt11char_traitsIcESaIcEEES6_EESB_, symObjAddr: 0x1C88, symBinAddr: 0x100003C10, symSize: 0x30 }
  - { offsetInCU: 0x2BAE2, offset: 0x2BAE2, size: 0x8, addend: 0x0, symName: __ZNSt3mapINSt7__cxx1112basic_stringIcSt11char_traitsIcESaIcEEES5_St4lessIS5_ESaISt4pairIKS5_S5_EEE11lower_boundERS9_, symObjAddr: 0x1C64, symBinAddr: 0x100003BEC, symSize: 0x24 }
  - { offsetInCU: 0x2BB1D, offset: 0x2BB1D, size: 0x8, addend: 0x0, symName: __ZNK9__gnu_cxx17__normal_iteratorIPNSt7__cxx1112basic_stringIcSt11char_traitsIcESaIcEEESt6vectorIS6_SaIS6_EEE4baseEv, symObjAddr: 0x1C50, symBinAddr: 0x100003BD8, symSize: 0x14 }
  - { offsetInCU: 0x2BBE0, offset: 0x2BBE0, size: 0x8, addend: 0x0, symName: __ZN9__gnu_cxx17__normal_iteratorIPNSt7__cxx1112basic_stringIcSt11char_traitsIcESaIcEEESt6vectorIS6_SaIS6_EEEC1ERKS7_, symObjAddr: 0x1C28, symBinAddr: 0x100003BB0, symSize: 0x28 }
  - { offsetInCU: 0x2BB9E, offset: 0x2BB9E, size: 0x8, addend: 0x0, symName: __ZNK9__gnu_cxx17__normal_iteratorIPSt4pairIfNSt7__cxx1112basic_stringIcSt11char_traitsIcESaIcEEEESt6vectorIS8_SaIS8_EEE4baseEv, symObjAddr: 0x1C14, symBinAddr: 0x100003B9C, symSize: 0x14 }
  - { offsetInCU: 0x2BBC4, offset: 0x2BBC4, size: 0x8, addend: 0x0, symName: __ZSt6__sortIN9__gnu_cxx17__normal_iteratorIPSt4pairIfNSt7__cxx1112basic_stringIcSt11char_traitsIcESaIcEEEESt6vectorIS9_SaIS9_EEEENS0_5__ops15_Iter_comp_iterISt7greaterIvEEEEvT_SK_T0_, symObjAddr: 0x1BA4, symBinAddr: 0x100003B2C, symSize: 0x70 }
  - { offsetInCU: 0x2BC22, offset: 0x2BC22, size: 0x8, addend: 0x0, symName: __ZN9__gnu_cxx5__ops16__iter_comp_iterISt7greaterIvEEENS0_15_Iter_comp_iterIT_EES5_, symObjAddr: 0x1B6C, symBinAddr: 0x100003AF4, symSize: 0x38 }
  - { offsetInCU: 0x2BCFB, offset: 0x2BCFB, size: 0x8, addend: 0x0, symName: __ZN9__gnu_cxx17__normal_iteratorIPSt4pairIfNSt7__cxx1112basic_stringIcSt11char_traitsIcESaIcEEEESt6vectorIS8_SaIS8_EEEC1ERKS9_, symObjAddr: 0x1B44, symBinAddr: 0x100003ACC, symSize: 0x28 }
  - { offsetInCU: 0x2BCAF, offset: 0x2BCAF, size: 0x8, addend: 0x0, symName: __ZNSt6vectorINSt7__cxx1112basic_stringIcSt11char_traitsIcESaIcEEESaIS5_EE17_M_realloc_appendIJRKS5_EEEvDpOT_, symObjAddr: 0x1948, symBinAddr: 0x1000038D0, symSize: 0x1FC }
  - { offsetInCU: 0x2BEB2, offset: 0x2BEB2, size: 0x8, addend: 0x0, symName: __ZZNSt6vectorINSt7__cxx1112basic_stringIcSt11char_traitsIcESaIcEEESaIS5_EE17_M_realloc_appendIJRKS5_EEEvDpOT_EN6_GuardC1EPS5_mRS6_, symObjAddr: 0x18A4, symBinAddr: 0x10000382C, symSize: 0x44 }
  - { offsetInCU: 0x2BEF0, offset: 0x2BEF0, size: 0x8, addend: 0x0, symName: __ZZNSt6vectorINSt7__cxx1112basic_stringIcSt11char_traitsIcESaIcEEESaIS5_EE17_M_realloc_appendIJRKS5_EEEvDpOT_EN6_GuardD1Ev, symObjAddr: 0x18E8, symBinAddr: 0x100003870, symSize: 0x60 }
  - { offsetInCU: 0x2BFAB, offset: 0x2BFAB, size: 0x8, addend: 0x0, symName: __ZNSt8_Rb_treeINSt7__cxx1112basic_stringIcSt11char_traitsIcESaIcEEESt4pairIKS5_St6vectorIS5_SaIS5_EEESt10_Select1stISB_ESt4lessIS5_ESaISB_EE22_M_emplace_hint_uniqueIJRKSt21piecewise_construct_tSt5tupleIJRS7_EESM_IJEEEEESt17_Rb_tree_iteratorISB_ESt23_Rb_tree_const_iteratorISB_EDpOT_, symObjAddr: 0x17CC, symBinAddr: 0x100003754, symSize: 0xD8 }
  - { offsetInCU: 0x2C0F9, offset: 0x2C0F9, size: 0x8, addend: 0x0, symName: __ZNSt23_Rb_tree_const_iteratorISt4pairIKNSt7__cxx1112basic_stringIcSt11char_traitsIcESaIcEEESt6vectorIS6_SaIS6_EEEEC1ERKSt17_Rb_tree_iteratorISB_E, symObjAddr: 0x17A4, symBinAddr: 0x10000372C, symSize: 0x28 }
  - { offsetInCU: 0x2C099, offset: 0x2C099, size: 0x8, addend: 0x0, symName: __ZNKSt17_Rb_tree_iteratorISt4pairIKNSt7__cxx1112basic_stringIcSt11char_traitsIcESaIcEEESt6vectorIS6_SaIS6_EEEEdeEv, symObjAddr: 0x1784, symBinAddr: 0x10000370C, symSize: 0x20 }
  - { offsetInCU: 0x2C0C3, offset: 0x2C0C3, size: 0x8, addend: 0x0, symName: __ZNKSt3mapINSt7__cxx1112basic_stringIcSt11char_traitsIcESaIcEEESt6vectorIS5_SaIS5_EESt4lessIS5_ESaISt4pairIKS5_S8_EEE8key_compEv, symObjAddr: 0x1758, symBinAddr: 0x1000036E0, symSize: 0x2C }
  - { offsetInCU: 0x2C0EF, offset: 0x2C0EF, size: 0x8, addend: 0x0, symName: __ZSteqRKSt17_Rb_tree_iteratorISt4pairIKNSt7__cxx1112basic_stringIcSt11char_traitsIcESaIcEEESt6vectorIS6_SaIS6_EEEESE_, symObjAddr: 0x1728, symBinAddr: 0x1000036B0, symSize: 0x30 }
  - { offsetInCU: 0x2C12E, offset: 0x2C12E, size: 0x8, addend: 0x0, symName: __ZNSt3mapINSt7__cxx1112basic_stringIcSt11char_traitsIcESaIcEEESt6vectorIS5_SaIS5_EESt4lessIS5_ESaISt4pairIKS5_S8_EEE3endEv, symObjAddr: 0x170C, symBinAddr: 0x100003694, symSize: 0x1C }
  - { offsetInCU: 0x2C158, offset: 0x2C158, size: 0x8, addend: 0x0, symName: __ZNSt3mapINSt7__cxx1112basic_stringIcSt11char_traitsIcESaIcEEESt6vectorIS5_SaIS5_EESt4lessIS5_ESaISt4pairIKS5_S8_EEE11lower_boundERSC_, symObjAddr: 0x16E8, symBinAddr: 0x100003670, symSize: 0x24 }
  - { offsetInCU: 0x2C193, offset: 0x2C193, size: 0x8, addend: 0x0, symName: __ZNSt6vectorISt4pairIfNSt7__cxx1112basic_stringIcSt11char_traitsIcESaIcEEEESaIS7_EE12emplace_backIJS7_EEERS7_DpOT_, symObjAddr: 0x160C, symBinAddr: 0x100003594, symSize: 0xDC }
  - { offsetInCU: 0x2C245, offset: 0x2C245, size: 0x8, addend: 0x0, symName: __ZSt4moveIRSt4pairIfNSt7__cxx1112basic_stringIcSt11char_traitsIcESaIcEEEEEONSt16remove_referenceIT_E4typeEOSA_, symObjAddr: 0x15F8, symBinAddr: 0x100003580, symSize: 0x14 }
  - { offsetInCU: 0x2C27D, offset: 0x2C27D, size: 0x8, addend: 0x0, symName: __ZSt7forwardIRNSt7__cxx1112basic_stringIcSt11char_traitsIcESaIcEEEEOT_RNSt16remove_referenceIS7_E4typeE, symObjAddr: 0x15E4, symBinAddr: 0x10000356C, symSize: 0x14 }
  - { offsetInCU: 0x2C2B5, offset: 0x2C2B5, size: 0x8, addend: 0x0, symName: __ZSt7forwardIRfEOT_RNSt16remove_referenceIS1_E4typeE, symObjAddr: 0x15D0, symBinAddr: 0x100003558, symSize: 0x14 }
  - { offsetInCU: 0x2C2EB, offset: 0x2C2EB, size: 0x8, addend: 0x0, symName: __ZNSt8_Rb_treeINSt7__cxx1112basic_stringIcSt11char_traitsIcESaIcEEESt4pairIKS5_iESt10_Select1stIS8_ESt4lessIS5_ESaIS8_EE22_M_emplace_hint_uniqueIJRKSt21piecewise_construct_tSt5tupleIJRS7_EESJ_IJEEEEESt17_Rb_tree_iteratorIS8_ESt23_Rb_tree_const_iteratorIS8_EDpOT_, symObjAddr: 0x14F8, symBinAddr: 0x100003480, symSize: 0xD8 }
  - { offsetInCU: 0x2C425, offset: 0x2C425, size: 0x8, addend: 0x0, symName: __ZNSt23_Rb_tree_const_iteratorISt4pairIKNSt7__cxx1112basic_stringIcSt11char_traitsIcESaIcEEEiEEC1ERKSt17_Rb_tree_iteratorIS8_E, symObjAddr: 0x14D0, symBinAddr: 0x100003458, symSize: 0x28 }
  - { offsetInCU: 0x2C45D, offset: 0x2C45D, size: 0x8, addend: 0x0, symName: __ZNSt5tupleIJRKNSt7__cxx1112basic_stringIcSt11char_traitsIcESaIcEEEEEC1ILb1ELb1EEES7_, symObjAddr: 0x14A8, symBinAddr: 0x100003430, symSize: 0x28 }
  - { offsetInCU: 0x2C444, offset: 0x2C444, size: 0x8, addend: 0x0, symName: __ZNKSt4lessINSt7__cxx1112basic_stringIcSt11char_traitsIcESaIcEEEEclERKS5_S8_, symObjAddr: 0x1480, symBinAddr: 0x100003408, symSize: 0x28 }
  - { offsetInCU: 0x2C490, offset: 0x2C490, size: 0x8, addend: 0x0, symName: __ZNKSt17_Rb_tree_iteratorISt4pairIKNSt7__cxx1112basic_stringIcSt11char_traitsIcESaIcEEEiEEdeEv, symObjAddr: 0x1460, symBinAddr: 0x1000033E8, symSize: 0x20 }
  - { offsetInCU: 0x2C4BA, offset: 0x2C4BA, size: 0x8, addend: 0x0, symName: __ZNKSt3mapINSt7__cxx1112basic_stringIcSt11char_traitsIcESaIcEEEiSt4lessIS5_ESaISt4pairIKS5_iEEE8key_compEv, symObjAddr: 0x1434, symBinAddr: 0x1000033BC, symSize: 0x2C }
  - { offsetInCU: 0x2C4E6, offset: 0x2C4E6, size: 0x8, addend: 0x0, symName: __ZSteqRKSt17_Rb_tree_iteratorISt4pairIKNSt7__cxx1112basic_stringIcSt11char_traitsIcESaIcEEEiEESB_, symObjAddr: 0x1404, symBinAddr: 0x10000338C, symSize: 0x30 }
  - { offsetInCU: 0x2C525, offset: 0x2C525, size: 0x8, addend: 0x0, symName: __ZNSt3mapINSt7__cxx1112basic_stringIcSt11char_traitsIcESaIcEEEiSt4lessIS5_ESaISt4pairIKS5_iEEE3endEv, symObjAddr: 0x13E8, symBinAddr: 0x100003370, symSize: 0x1C }
  - { offsetInCU: 0x2C54F, offset: 0x2C54F, size: 0x8, addend: 0x0, symName: __ZNSt3mapINSt7__cxx1112basic_stringIcSt11char_traitsIcESaIcEEEiSt4lessIS5_ESaISt4pairIKS5_iEEE11lower_boundERS9_, symObjAddr: 0x13C4, symBinAddr: 0x10000334C, symSize: 0x24 }
  - { offsetInCU: 0x2C58A, offset: 0x2C58A, size: 0x8, addend: 0x0, symName: __ZNSt12_Vector_baseISt4pairIfNSt7__cxx1112basic_stringIcSt11char_traitsIcESaIcEEEESaIS7_EE13_M_deallocateEPS7_m, symObjAddr: 0x136C, symBinAddr: 0x1000032F4, symSize: 0x58 }
  - { offsetInCU: 0x2C687, offset: 0x2C687, size: 0x8, addend: 0x0, symName: __ZNSt15__new_allocatorISt4pairIfNSt7__cxx1112basic_stringIcSt11char_traitsIcESaIcEEEEED2Ev, symObjAddr: 0x1358, symBinAddr: 0x1000032E0, symSize: 0x14 }
  - { offsetInCU: 0x2C6DE, offset: 0x2C6DE, size: 0x8, addend: 0x0, symName: __ZNSt12_Vector_baseISt4pairIfNSt7__cxx1112basic_stringIcSt11char_traitsIcESaIcEEEESaIS7_EE17_Vector_impl_dataC2Ev, symObjAddr: 0x132C, symBinAddr: 0x1000032B4, symSize: 0x2C }
  - { offsetInCU: 0x2C6AC, offset: 0x2C6AC, size: 0x8, addend: 0x0, symName: __ZNSt8_Rb_treeINSt7__cxx1112basic_stringIcSt11char_traitsIcESaIcEEESt4pairIKS5_S5_ESt10_Select1stIS8_ESt4lessIS5_ESaIS8_EE8_M_beginEv, symObjAddr: 0x1310, symBinAddr: 0x100003298, symSize: 0x1C }
  - { offsetInCU: 0x2C6D6, offset: 0x2C6D6, size: 0x8, addend: 0x0, symName: __ZNSt8_Rb_treeINSt7__cxx1112basic_stringIcSt11char_traitsIcESaIcEEESt4pairIKS5_S5_ESt10_Select1stIS8_ESt4lessIS5_ESaIS8_EE8_M_eraseEPSt13_Rb_tree_nodeIS8_E, symObjAddr: 0x12AC, symBinAddr: 0x100003234, symSize: 0x64 }
  - { offsetInCU: 0x2C7C6, offset: 0x2C7C6, size: 0x8, addend: 0x0, symName: __ZNSt15__new_allocatorISt13_Rb_tree_nodeISt4pairIKNSt7__cxx1112basic_stringIcSt11char_traitsIcESaIcEEES7_EEED2Ev, symObjAddr: 0x1298, symBinAddr: 0x100003220, symSize: 0x14 }
  - { offsetInCU: 0x2C795, offset: 0x2C795, size: 0x8, addend: 0x0, symName: __ZNSt8_Rb_treeINSt7__cxx1112basic_stringIcSt11char_traitsIcESaIcEEESt4pairIKS5_St6vectorIS5_SaIS5_EEESt10_Select1stISB_ESt4lessIS5_ESaISB_EE8_M_beginEv, symObjAddr: 0x127C, symBinAddr: 0x100003204, symSize: 0x1C }
  - { offsetInCU: 0x2C7BF, offset: 0x2C7BF, size: 0x8, addend: 0x0, symName: __ZNSt8_Rb_treeINSt7__cxx1112basic_stringIcSt11char_traitsIcESaIcEEESt4pairIKS5_St6vectorIS5_SaIS5_EEESt10_Select1stISB_ESt4lessIS5_ESaISB_EE8_M_eraseEPSt13_Rb_tree_nodeISB_E, symObjAddr: 0x1218, symBinAddr: 0x1000031A0, symSize: 0x64 }
  - { offsetInCU: 0x2C8C1, offset: 0x2C8C1, size: 0x8, addend: 0x0, symName: __ZNSt15__new_allocatorISt13_Rb_tree_nodeISt4pairIKNSt7__cxx1112basic_stringIcSt11char_traitsIcESaIcEEESt6vectorIS7_SaIS7_EEEEED2Ev, symObjAddr: 0x1204, symBinAddr: 0x10000318C, symSize: 0x14 }
  - { offsetInCU: 0x2C87E, offset: 0x2C87E, size: 0x8, addend: 0x0, symName: __ZNSt8_Rb_treeINSt7__cxx1112basic_stringIcSt11char_traitsIcESaIcEEESt4pairIKS5_iESt10_Select1stIS8_ESt4lessIS5_ESaIS8_EE8_M_beginEv, symObjAddr: 0x11E8, symBinAddr: 0x100003170, symSize: 0x1C }
  - { offsetInCU: 0x2C8A8, offset: 0x2C8A8, size: 0x8, addend: 0x0, symName: __ZNSt8_Rb_treeINSt7__cxx1112basic_stringIcSt11char_traitsIcESaIcEEESt4pairIKS5_iESt10_Select1stIS8_ESt4lessIS5_ESaIS8_EE8_M_eraseEPSt13_Rb_tree_nodeIS8_E, symObjAddr: 0x1184, symBinAddr: 0x10000310C, symSize: 0x64 }
  - { offsetInCU: 0x2C996, offset: 0x2C996, size: 0x8, addend: 0x0, symName: __ZNSt15__new_allocatorISt13_Rb_tree_nodeISt4pairIKNSt7__cxx1112basic_stringIcSt11char_traitsIcESaIcEEEiEEED2Ev, symObjAddr: 0x1170, symBinAddr: 0x1000030F8, symSize: 0x14 }
  - { offsetInCU: 0x2C9C6, offset: 0x2C9C6, size: 0x8, addend: 0x0, symName: __ZNSt20_Rb_tree_key_compareISt4lessINSt7__cxx1112basic_stringIcSt11char_traitsIcESaIcEEEEEC2Ev, symObjAddr: 0x115C, symBinAddr: 0x1000030E4, symSize: 0x14 }
  - { offsetInCU: 0x2C9A7, offset: 0x2C9A7, size: 0x8, addend: 0x0, symName: __ZNKSt17_Rb_tree_iteratorISt4pairIKNSt7__cxx1112basic_stringIcSt11char_traitsIcESaIcEEES6_EEdeEv, symObjAddr: 0x113C, symBinAddr: 0x1000030C4, symSize: 0x20 }
  - { offsetInCU: 0x2C9D1, offset: 0x2C9D1, size: 0x8, addend: 0x0, symName: __ZNSt17_Rb_tree_iteratorISt4pairIKNSt7__cxx1112basic_stringIcSt11char_traitsIcESaIcEEES6_EEppEv, symObjAddr: 0x110C, symBinAddr: 0x100003094, symSize: 0x30 }
  - { offsetInCU: 0x2C9F7, offset: 0x2C9F7, size: 0x8, addend: 0x0, symName: __ZStneRKSt17_Rb_tree_iteratorISt4pairIKNSt7__cxx1112basic_stringIcSt11char_traitsIcESaIcEEES6_EESB_, symObjAddr: 0x10DC, symBinAddr: 0x100003064, symSize: 0x30 }
  - { offsetInCU: 0x2CA36, offset: 0x2CA36, size: 0x8, addend: 0x0, symName: __ZNSt3mapINSt7__cxx1112basic_stringIcSt11char_traitsIcESaIcEEES5_St4lessIS5_ESaISt4pairIKS5_S5_EEE3endEv, symObjAddr: 0x10C0, symBinAddr: 0x100003048, symSize: 0x1C }
  - { offsetInCU: 0x2CA60, offset: 0x2CA60, size: 0x8, addend: 0x0, symName: __ZNSt3mapINSt7__cxx1112basic_stringIcSt11char_traitsIcESaIcEEES5_St4lessIS5_ESaISt4pairIKS5_S5_EEE5beginEv, symObjAddr: 0x10A4, symBinAddr: 0x10000302C, symSize: 0x1C }
  - { offsetInCU: 0x2CA8A, offset: 0x2CA8A, size: 0x8, addend: 0x0, symName: __ZNSt3mapINSt7__cxx1112basic_stringIcSt11char_traitsIcESaIcEEES5_St4lessIS5_ESaISt4pairIKS5_S5_EEEixERS9_, symObjAddr: 0xFB8, symBinAddr: 0x100002F40, symSize: 0xEC }
  - { offsetInCU: 0x2CAD6, offset: 0x2CAD6, size: 0x8, addend: 0x0, symName: __ZNK9__gnu_cxx17__normal_iteratorIPNSt7__cxx1112basic_stringIcSt11char_traitsIcESaIcEEESt6vectorIS6_SaIS6_EEEdeEv, symObjAddr: 0xFA0, symBinAddr: 0x100002F28, symSize: 0x18 }
  - { offsetInCU: 0x2CB00, offset: 0x2CB00, size: 0x8, addend: 0x0, symName: __ZN9__gnu_cxx17__normal_iteratorIPNSt7__cxx1112basic_stringIcSt11char_traitsIcESaIcEEESt6vectorIS6_SaIS6_EEEppEv, symObjAddr: 0xF78, symBinAddr: 0x100002F00, symSize: 0x28 }
  - { offsetInCU: 0x2CB26, offset: 0x2CB26, size: 0x8, addend: 0x0, symName: __ZN9__gnu_cxxneIPNSt7__cxx1112basic_stringIcSt11char_traitsIcESaIcEEESt6vectorIS6_SaIS6_EEEEbRKNS_17__normal_iteratorIT_T0_EESG_, symObjAddr: 0xF34, symBinAddr: 0x100002EBC, symSize: 0x44 }
  - { offsetInCU: 0x2CB77, offset: 0x2CB77, size: 0x8, addend: 0x0, symName: __ZNSt6vectorINSt7__cxx1112basic_stringIcSt11char_traitsIcESaIcEEESaIS5_EE3endEv, symObjAddr: 0xF0C, symBinAddr: 0x100002E94, symSize: 0x28 }
  - { offsetInCU: 0x2CBA1, offset: 0x2CBA1, size: 0x8, addend: 0x0, symName: __ZNSt6vectorINSt7__cxx1112basic_stringIcSt11char_traitsIcESaIcEEESaIS5_EE5beginEv, symObjAddr: 0xEE8, symBinAddr: 0x100002E70, symSize: 0x24 }
  - { offsetInCU: 0x2CBCB, offset: 0x2CBCB, size: 0x8, addend: 0x0, symName: __ZNK9__gnu_cxx17__normal_iteratorIPSt4pairIfNSt7__cxx1112basic_stringIcSt11char_traitsIcESaIcEEEESt6vectorIS8_SaIS8_EEEdeEv, symObjAddr: 0xED0, symBinAddr: 0x100002E58, symSize: 0x18 }
  - { offsetInCU: 0x2CBF5, offset: 0x2CBF5, size: 0x8, addend: 0x0, symName: __ZN9__gnu_cxx17__normal_iteratorIPSt4pairIfNSt7__cxx1112basic_stringIcSt11char_traitsIcESaIcEEEESt6vectorIS8_SaIS8_EEEppEv, symObjAddr: 0xEA8, symBinAddr: 0x100002E30, symSize: 0x28 }
  - { offsetInCU: 0x2CC1B, offset: 0x2CC1B, size: 0x8, addend: 0x0, symName: __ZN9__gnu_cxxneIPSt4pairIfNSt7__cxx1112basic_stringIcSt11char_traitsIcESaIcEEEESt6vectorIS8_SaIS8_EEEEbRKNS_17__normal_iteratorIT_T0_EESI_, symObjAddr: 0xE64, symBinAddr: 0x100002DEC, symSize: 0x44 }
  - { offsetInCU: 0x2CC68, offset: 0x2CC68, size: 0x8, addend: 0x0, symName: __ZSt4sortIN9__gnu_cxx17__normal_iteratorIPSt4pairIfNSt7__cxx1112basic_stringIcSt11char_traitsIcESaIcEEEESt6vectorIS9_SaIS9_EEEESt7greaterIvEEvT_SH_T0_, symObjAddr: 0xE24, symBinAddr: 0x100002DAC, symSize: 0x40 }
  - { offsetInCU: 0x2CCCA, offset: 0x2CCCA, size: 0x8, addend: 0x0, symName: __ZNSt6vectorISt4pairIfNSt7__cxx1112basic_stringIcSt11char_traitsIcESaIcEEEESaIS7_EE3endEv, symObjAddr: 0xDFC, symBinAddr: 0x100002D84, symSize: 0x28 }
  - { offsetInCU: 0x2CCF4, offset: 0x2CCF4, size: 0x8, addend: 0x0, symName: __ZNSt6vectorISt4pairIfNSt7__cxx1112basic_stringIcSt11char_traitsIcESaIcEEEESaIS7_EE5beginEv, symObjAddr: 0xDD8, symBinAddr: 0x100002D60, symSize: 0x24 }
  - { offsetInCU: 0x2CD1E, offset: 0x2CD1E, size: 0x8, addend: 0x0, symName: __ZNSt6vectorINSt7__cxx1112basic_stringIcSt11char_traitsIcESaIcEEESaIS5_EE9push_backERKS5_, symObjAddr: 0xCDC, symBinAddr: 0x100002C64, symSize: 0xFC }
  - { offsetInCU: 0x2CDBD, offset: 0x2CDBD, size: 0x8, addend: 0x0, symName: __ZNSt3mapINSt7__cxx1112basic_stringIcSt11char_traitsIcESaIcEEESt6vectorIS5_SaIS5_EESt4lessIS5_ESaISt4pairIKS5_S8_EEEixERSC_, symObjAddr: 0xBF0, symBinAddr: 0x100002B78, symSize: 0xEC }
  - { offsetInCU: 0x2CE09, offset: 0x2CE09, size: 0x8, addend: 0x0, symName: __ZNSt6vectorISt4pairIfNSt7__cxx1112basic_stringIcSt11char_traitsIcESaIcEEEESaIS7_EE9push_backEOS7_, symObjAddr: 0xBC0, symBinAddr: 0x100002B48, symSize: 0x30 }
  - { offsetInCU: 0x2CEE0, offset: 0x2CEE0, size: 0x8, addend: 0x0, symName: __ZNSt4pairIfNSt7__cxx1112basic_stringIcSt11char_traitsIcESaIcEEEEC1IRfRS5_Lb1EEEOT_OT0_, symObjAddr: 0xB68, symBinAddr: 0x100002AF0, symSize: 0x58 }
  - { offsetInCU: 0x2CED6, offset: 0x2CED6, size: 0x8, addend: 0x0, symName: __ZNSt3mapINSt7__cxx1112basic_stringIcSt11char_traitsIcESaIcEEEiSt4lessIS5_ESaISt4pairIKS5_iEEEixERS9_, symObjAddr: 0xA7C, symBinAddr: 0x100002A04, symSize: 0xEC }
  - { offsetInCU: 0x2CFA1, offset: 0x2CFA1, size: 0x8, addend: 0x0, symName: __ZNSt12_Vector_baseISt4pairIfNSt7__cxx1112basic_stringIcSt11char_traitsIcESaIcEEEESaIS7_EED2Ev, symObjAddr: 0xA20, symBinAddr: 0x1000029A8, symSize: 0x5C }
  - { offsetInCU: 0x2D00F, offset: 0x2D00F, size: 0x8, addend: 0x0, symName: __ZNSt12_Vector_baseISt4pairIfNSt7__cxx1112basic_stringIcSt11char_traitsIcESaIcEEEESaIS7_EE12_Vector_implC1Ev, symObjAddr: 0x9E8, symBinAddr: 0x100002970, symSize: 0x38 }
  - { offsetInCU: 0x2D0B1, offset: 0x2D0B1, size: 0x8, addend: 0x0, symName: __ZNSt8_Rb_treeINSt7__cxx1112basic_stringIcSt11char_traitsIcESaIcEEESt4pairIKS5_S5_ESt10_Select1stIS8_ESt4lessIS5_ESaIS8_EED1Ev, symObjAddr: 0x9B4, symBinAddr: 0x10000293C, symSize: 0x34 }
  - { offsetInCU: 0x2D129, offset: 0x2D129, size: 0x8, addend: 0x0, symName: __ZNSt8_Rb_treeINSt7__cxx1112basic_stringIcSt11char_traitsIcESaIcEEESt4pairIKS5_S5_ESt10_Select1stIS8_ESt4lessIS5_ESaIS8_EE13_Rb_tree_implISC_Lb1EEC1Ev, symObjAddr: 0x970, symBinAddr: 0x1000028F8, symSize: 0x44 }
  - { offsetInCU: 0x2D1B4, offset: 0x2D1B4, size: 0x8, addend: 0x0, symName: __ZNSt8_Rb_treeINSt7__cxx1112basic_stringIcSt11char_traitsIcESaIcEEESt4pairIKS5_St6vectorIS5_SaIS5_EEESt10_Select1stISB_ESt4lessIS5_ESaISB_EED1Ev, symObjAddr: 0x93C, symBinAddr: 0x1000028C4, symSize: 0x34 }
  - { offsetInCU: 0x2D22C, offset: 0x2D22C, size: 0x8, addend: 0x0, symName: __ZNSt8_Rb_treeINSt7__cxx1112basic_stringIcSt11char_traitsIcESaIcEEESt4pairIKS5_St6vectorIS5_SaIS5_EEESt10_Select1stISB_ESt4lessIS5_ESaISB_EE13_Rb_tree_implISF_Lb1EEC1Ev, symObjAddr: 0x8F8, symBinAddr: 0x100002880, symSize: 0x44 }
  - { offsetInCU: 0x2D291, offset: 0x2D291, size: 0x8, addend: 0x0, symName: __ZNSt8_Rb_treeINSt7__cxx1112basic_stringIcSt11char_traitsIcESaIcEEESt4pairIKS5_iESt10_Select1stIS8_ESt4lessIS5_ESaIS8_EED1Ev, symObjAddr: 0x8C4, symBinAddr: 0x10000284C, symSize: 0x34 }
  - { offsetInCU: 0x2D309, offset: 0x2D309, size: 0x8, addend: 0x0, symName: __ZNSt8_Rb_treeINSt7__cxx1112basic_stringIcSt11char_traitsIcESaIcEEESt4pairIKS5_iESt10_Select1stIS8_ESt4lessIS5_ESaIS8_EE13_Rb_tree_implISC_Lb1EEC1Ev, symObjAddr: 0x880, symBinAddr: 0x100002808, symSize: 0x44 }
  - { offsetInCU: 0x2D2E1, offset: 0x2D2E1, size: 0x8, addend: 0x0, symName: __ZSt11__addressofINSt7__cxx1112basic_stringIcSt11char_traitsIcESaIcEEEEPT_RS6_, symObjAddr: 0x86C, symBinAddr: 0x1000027F4, symSize: 0x14 }
  - { offsetInCU: 0x2D31A, offset: 0x2D31A, size: 0x8, addend: 0x0, symName: __ZSt4moveIRNSt7__cxx1112basic_stringIcSt11char_traitsIcESaIcEEEEONSt16remove_referenceIT_E4typeEOS8_, symObjAddr: 0x858, symBinAddr: 0x1000027E0, symSize: 0x14 }
  - { offsetInCU: 0x2D34C, offset: 0x2D34C, size: 0x8, addend: 0x0, symName: __ZSt3maxImERKT_S2_S2_, symObjAddr: 0x820, symBinAddr: 0x1000027A8, symSize: 0x38 }
  - { offsetInCU: 0x2D399, offset: 0x2D399, size: 0x8, addend: 0x0, symName: _main, symObjAddr: 0x374, symBinAddr: 0x1000022FC, symSize: 0x4AC }
  - { offsetInCU: 0x2D596, offset: 0x2D596, size: 0x8, addend: 0x0, symName: __ZNSt4pairIKNSt7__cxx1112basic_stringIcSt11char_traitsIcESaIcEEES5_ED1Ev, symObjAddr: 0x348, symBinAddr: 0x1000022D0, symSize: 0x2C }
  - { offsetInCU: 0x2D5DF, offset: 0x2D5DF, size: 0x8, addend: 0x0, symName: __ZNSt4pairIKNSt7__cxx1112basic_stringIcSt11char_traitsIcESaIcEEES5_EC1ERKS7_, symObjAddr: 0x2E8, symBinAddr: 0x100002270, symSize: 0x60 }
  - { offsetInCU: 0x2D62A, offset: 0x2D62A, size: 0x8, addend: 0x0, symName: __ZNSt4pairIfNSt7__cxx1112basic_stringIcSt11char_traitsIcESaIcEEEEC1ERKS6_, symObjAddr: 0x2A0, symBinAddr: 0x100002228, symSize: 0x48 }
  - { offsetInCU: 0x2D67D, offset: 0x2D67D, size: 0x8, addend: 0x0, symName: __ZNSt4pairIfNSt7__cxx1112basic_stringIcSt11char_traitsIcESaIcEEEED1Ev, symObjAddr: 0x27C, symBinAddr: 0x100002204, symSize: 0x24 }
  - { offsetInCU: 0x2D6CF, offset: 0x2D6CF, size: 0x8, addend: 0x0, symName: __ZNSt6vectorISt4pairIfNSt7__cxx1112basic_stringIcSt11char_traitsIcESaIcEEEESaIS7_EEC1Ev, symObjAddr: 0x25C, symBinAddr: 0x1000021E4, symSize: 0x20 }
  - { offsetInCU: 0x2D716, offset: 0x2D716, size: 0x8, addend: 0x0, symName: __ZNSt12_Vector_baseISt4pairIfNSt7__cxx1112basic_stringIcSt11char_traitsIcESaIcEEEESaIS7_EEC2Ev, symObjAddr: 0x23C, symBinAddr: 0x1000021C4, symSize: 0x20 }
  - { offsetInCU: 0x2D771, offset: 0x2D771, size: 0x8, addend: 0x0, symName: __ZNSt12_Vector_baseISt4pairIfNSt7__cxx1112basic_stringIcSt11char_traitsIcESaIcEEEESaIS7_EE12_Vector_implD1Ev, symObjAddr: 0x210, symBinAddr: 0x100002198, symSize: 0x2C }
  - { offsetInCU: 0x2D7CE, offset: 0x2D7CE, size: 0x8, addend: 0x0, symName: __ZNSt3mapINSt7__cxx1112basic_stringIcSt11char_traitsIcESaIcEEES5_St4lessIS5_ESaISt4pairIKS5_S5_EEEC1Ev, symObjAddr: 0x1F0, symBinAddr: 0x100002178, symSize: 0x20 }
  - { offsetInCU: 0x2D826, offset: 0x2D826, size: 0x8, addend: 0x0, symName: __ZNSt8_Rb_treeINSt7__cxx1112basic_stringIcSt11char_traitsIcESaIcEEESt4pairIKS5_S5_ESt10_Select1stIS8_ESt4lessIS5_ESaIS8_EEC1Ev, symObjAddr: 0x1D0, symBinAddr: 0x100002158, symSize: 0x20 }
  - { offsetInCU: 0x2D88C, offset: 0x2D88C, size: 0x8, addend: 0x0, symName: __ZNSt8_Rb_treeINSt7__cxx1112basic_stringIcSt11char_traitsIcESaIcEEESt4pairIKS5_S5_ESt10_Select1stIS8_ESt4lessIS5_ESaIS8_EE13_Rb_tree_implISC_Lb1EED1Ev, symObjAddr: 0x1A4, symBinAddr: 0x10000212C, symSize: 0x2C }
  - { offsetInCU: 0x2D8D2, offset: 0x2D8D2, size: 0x8, addend: 0x0, symName: __ZNSt3mapINSt7__cxx1112basic_stringIcSt11char_traitsIcESaIcEEESt6vectorIS5_SaIS5_EESt4lessIS5_ESaISt4pairIKS5_S8_EEEC1Ev, symObjAddr: 0x184, symBinAddr: 0x10000210C, symSize: 0x20 }
  - { offsetInCU: 0x2D92A, offset: 0x2D92A, size: 0x8, addend: 0x0, symName: __ZNSt8_Rb_treeINSt7__cxx1112basic_stringIcSt11char_traitsIcESaIcEEESt4pairIKS5_St6vectorIS5_SaIS5_EEESt10_Select1stISB_ESt4lessIS5_ESaISB_EEC1Ev, symObjAddr: 0x164, symBinAddr: 0x1000020EC, symSize: 0x20 }
  - { offsetInCU: 0x2D990, offset: 0x2D990, size: 0x8, addend: 0x0, symName: __ZNSt8_Rb_treeINSt7__cxx1112basic_stringIcSt11char_traitsIcESaIcEEESt4pairIKS5_St6vectorIS5_SaIS5_EEESt10_Select1stISB_ESt4lessIS5_ESaISB_EE13_Rb_tree_implISF_Lb1EED1Ev, symObjAddr: 0x138, symBinAddr: 0x1000020C0, symSize: 0x2C }
  - { offsetInCU: 0x2D9AE, offset: 0x2D9AE, size: 0x8, addend: 0x0, symName: __ZNSt3mapINSt7__cxx1112basic_stringIcSt11char_traitsIcESaIcEEEiSt4lessIS5_ESaISt4pairIKS5_iEEEC1Ev, symObjAddr: 0x118, symBinAddr: 0x1000020A0, symSize: 0x20 }
  - { offsetInCU: 0x2DA08, offset: 0x2DA08, size: 0x8, addend: 0x0, symName: __ZNSt8_Rb_treeINSt7__cxx1112basic_stringIcSt11char_traitsIcESaIcEEESt4pairIKS5_iESt10_Select1stIS8_ESt4lessIS5_ESaIS8_EEC1Ev, symObjAddr: 0xF8, symBinAddr: 0x100002080, symSize: 0x20 }
  - { offsetInCU: 0x2DA6E, offset: 0x2DA6E, size: 0x8, addend: 0x0, symName: __ZNSt8_Rb_treeINSt7__cxx1112basic_stringIcSt11char_traitsIcESaIcEEESt4pairIKS5_iESt10_Select1stIS8_ESt4lessIS5_ESaIS8_EE13_Rb_tree_implISC_Lb1EED1Ev, symObjAddr: 0xCC, symBinAddr: 0x100002054, symSize: 0x2C }
  - { offsetInCU: 0x2DA27, offset: 0x2DA27, size: 0x8, addend: 0x0, symName: __ZNSt15_Rb_tree_header8_M_resetEv, symObjAddr: 0x90, symBinAddr: 0x100002018, symSize: 0x3C }
  - { offsetInCU: 0x2DA82, offset: 0x2DA82, size: 0x8, addend: 0x0, symName: __ZNSt15_Rb_tree_headerC2Ev, symObjAddr: 0x68, symBinAddr: 0x100001FF0, symSize: 0x28 }
  - { offsetInCU: 0x2DA8D, offset: 0x2DA8D, size: 0x8, addend: 0x0, symName: __ZSt3minImERKT_S2_S2_, symObjAddr: 0x30, symBinAddr: 0x100001FB8, symSize: 0x38 }
  - { offsetInCU: 0x2DADC, offset: 0x2DADC, size: 0x8, addend: 0x0, symName: __ZdlPvS_, symObjAddr: 0x18, symBinAddr: 0x100001FA0, symSize: 0x18 }
  - { offsetInCU: 0x2DB11, offset: 0x2DB11, size: 0x8, addend: 0x0, symName: __ZnwmPv, symObjAddr: 0x0, symBinAddr: 0x100001F88, symSize: 0x18 }
...
