---
triple:          'arm64-apple-darwin'
binary-path:     '/Users/pai/code/CU Grader/DataAlgo/output/ CableCompany'
relocations:
  - { offsetInCU: 0x1B3C1, offset: 0x1B3C1, size: 0x8, addend: 0x0, symName: __ZStL8__ioinit, symObjAddr: 0x7C3B8, symBinAddr: 0x10000C000, symSize: 0x0 }
  - { offsetInCU: 0x1B692, offset: 0x1B692, size: 0x8, addend: 0x0, symName: _root, symObjAddr: 0x7C3BC, symBinAddr: 0x10000C004, symSize: 0x0 }
  - { offsetInCU: 0x1B9DF, offset: 0x1B9DF, size: 0x8, addend: 0x0, symName: __ZNSt4pairIiiE4swapERS0_, symObjAddr: 0x24C8, symBinAddr: 0x10000601C, symSize: 0x44 }
  - { offsetInCU: 0x1BA16, offset: 0x1BA16, size: 0x8, addend: 0x0, symName: __ZNSt20__copy_move_backwardILb1ELb0ESt26random_access_iterator_tagE13__copy_move_bIPSt4pairIiS3_IiiEES6_EET0_T_S8_S7_, symObjAddr: 0x2440, symBinAddr: 0x100005F94, symSize: 0x88 }
  - { offsetInCU: 0x1BA85, offset: 0x1BA85, size: 0x8, addend: 0x0, symName: __ZSt4swapIiiENSt9enable_ifIXsrSt6__and_IJSt14__is_swappableIT_ES2_IT0_EEE5valueEvE4typeERSt4pairIS3_S5_ESC_, symObjAddr: 0x2418, symBinAddr: 0x100005F6C, symSize: 0x28 }
  - { offsetInCU: 0x1BAD2, offset: 0x1BAD2, size: 0x8, addend: 0x0, symName: __ZSt4swapIiENSt9enable_ifIXsrSt6__and_IJSt6__not_ISt15__is_tuple_likeIT_EESt21is_move_constructibleIS4_ESt18is_move_assignableIS4_EEE5valueEvE4typeERS4_SE_, symObjAddr: 0x23C4, symBinAddr: 0x100005F18, symSize: 0x54 }
  - { offsetInCU: 0x1BB2A, offset: 0x1BB2A, size: 0x8, addend: 0x0, symName: __ZSt4moveIRiEONSt16remove_referenceIT_E4typeEOS2_, symObjAddr: 0x23B0, symBinAddr: 0x100005F04, symSize: 0x14 }
  - { offsetInCU: 0x1BB6B, offset: 0x1BB6B, size: 0x8, addend: 0x0, symName: __ZNK9__gnu_cxx5__ops14_Iter_less_valclINS_17__normal_iteratorIPSt4pairIiS4_IiiEESt6vectorIS6_SaIS6_EEEES6_EEbT_RT0_, symObjAddr: 0x2384, symBinAddr: 0x100005ED8, symSize: 0x2C }
  - { offsetInCU: 0x1BBEF, offset: 0x1BBEF, size: 0x8, addend: 0x0, symName: __ZSt23__copy_move_backward_a2ILb1EPSt4pairIiS0_IiiEES3_ET1_T0_S5_S4_, symObjAddr: 0x2358, symBinAddr: 0x100005EAC, symSize: 0x2C }
  - { offsetInCU: 0x1BC5B, offset: 0x1BC5B, size: 0x8, addend: 0x0, symName: __ZNSt4pairIiS_IiiEE4swapERS1_, symObjAddr: 0x2314, symBinAddr: 0x100005E68, symSize: 0x44 }
  - { offsetInCU: 0x1BC98, offset: 0x1BC98, size: 0x8, addend: 0x0, symName: __ZSt11__push_heapIN9__gnu_cxx17__normal_iteratorIPSt4pairIiS2_IiiEESt6vectorIS4_SaIS4_EEEElS4_NS0_5__ops14_Iter_less_valEEvT_T0_SD_T1_RT2_, symObjAddr: 0x21D4, symBinAddr: 0x100005D28, symSize: 0x140 }
  - { offsetInCU: 0x1BD43, offset: 0x1BD43, size: 0x8, addend: 0x0, symName: __ZSt4moveIRN9__gnu_cxx5__ops15_Iter_less_iterEEONSt16remove_referenceIT_E4typeEOS5_, symObjAddr: 0x21C0, symBinAddr: 0x100005D14, symSize: 0x14 }
  - { offsetInCU: 0x1BDB8, offset: 0x1BDB8, size: 0x8, addend: 0x0, symName: __ZSt12__niter_wrapIN9__gnu_cxx17__normal_iteratorIPSt4pairIiS2_IiiEESt6vectorIS4_SaIS4_EEEES5_ET_SA_T0_, symObjAddr: 0x216C, symBinAddr: 0x100005CC0, symSize: 0x54 }
  - { offsetInCU: 0x1BE05, offset: 0x1BE05, size: 0x8, addend: 0x0, symName: __ZSt23__copy_move_backward_a1ILb1EPSt4pairIiS0_IiiEES3_ET1_T0_S5_S4_, symObjAddr: 0x2140, symBinAddr: 0x100005C94, symSize: 0x2C }
  - { offsetInCU: 0x1BE6D, offset: 0x1BE6D, size: 0x8, addend: 0x0, symName: __ZSt12__niter_baseIPSt4pairIiS0_IiiEESt6vectorIS2_SaIS2_EEET_N9__gnu_cxx17__normal_iteratorIS7_T0_EE, symObjAddr: 0x2120, symBinAddr: 0x100005C74, symSize: 0x20 }
  - { offsetInCU: 0x1BEA9, offset: 0x1BEA9, size: 0x8, addend: 0x0, symName: __ZStltIiiEbRKSt4pairIT_T0_ES5_, symObjAddr: 0x20B8, symBinAddr: 0x100005C0C, symSize: 0x68 }
  - { offsetInCU: 0x1BEF6, offset: 0x1BEF6, size: 0x8, addend: 0x0, symName: __ZSt4swapIiSt4pairIiiEENSt9enable_ifIXsrSt6__and_IJSt14__is_swappableIT_ES4_IT0_EEE5valueEvE4typeERS0_IS5_S7_ESD_, symObjAddr: 0x2090, symBinAddr: 0x100005BE4, symSize: 0x28 }
  - { offsetInCU: 0x1BF43, offset: 0x1BF43, size: 0x8, addend: 0x0, symName: __ZSt13__adjust_heapIN9__gnu_cxx17__normal_iteratorIPSt4pairIiS2_IiiEESt6vectorIS4_SaIS4_EEEElS4_NS0_5__ops15_Iter_less_iterEEvT_T0_SD_T1_T2_, symObjAddr: 0x1E98, symBinAddr: 0x1000059EC, symSize: 0x1F8 }
  - { offsetInCU: 0x1C005, offset: 0x1C005, size: 0x8, addend: 0x0, symName: __ZSt19__relocate_object_aISt4pairIiS0_IiiEES2_SaIS2_EEvPT_PT0_RT1_, symObjAddr: 0x1DC4, symBinAddr: 0x100005918, symSize: 0xD4 }
  - { offsetInCU: 0x1C137, offset: 0x1C137, size: 0x8, addend: 0x0, symName: __ZSt11__addressofISt4pairIiS0_IiiEEEPT_RS3_, symObjAddr: 0x1DB0, symBinAddr: 0x100005904, symSize: 0x14 }
  - { offsetInCU: 0x1C18E, offset: 0x1C18E, size: 0x8, addend: 0x0, symName: __ZNK9__gnu_cxx5__ops14_Val_less_iterclISt4pairIiS3_IiiEENS_17__normal_iteratorIPS5_St6vectorIS5_SaIS5_EEEEEEbRT_T0_, symObjAddr: 0x1D80, symBinAddr: 0x1000058D4, symSize: 0x30 }
  - { offsetInCU: 0x1C1EA, offset: 0x1C1EA, size: 0x8, addend: 0x0, symName: __ZNSt4pairIiiEaSEOS0_, symObjAddr: 0x1D38, symBinAddr: 0x10000588C, symSize: 0x48 }
  - { offsetInCU: 0x1C227, offset: 0x1C227, size: 0x8, addend: 0x0, symName: __ZSt7forwardISt4pairIiiEEOT_RNSt16remove_referenceIS2_E4typeE, symObjAddr: 0x1D24, symBinAddr: 0x100005878, symSize: 0x14 }
  - { offsetInCU: 0x1C259, offset: 0x1C259, size: 0x8, addend: 0x0, symName: __ZSt22__copy_move_backward_aILb1EN9__gnu_cxx17__normal_iteratorIPSt4pairIiS2_IiiEESt6vectorIS4_SaIS4_EEEES9_ET1_T0_SB_SA_, symObjAddr: 0x1CC4, symBinAddr: 0x100005818, symSize: 0x60 }
  - { offsetInCU: 0x1C2C1, offset: 0x1C2C1, size: 0x8, addend: 0x0, symName: __ZSt12__miter_baseIN9__gnu_cxx17__normal_iteratorIPSt4pairIiS2_IiiEESt6vectorIS4_SaIS4_EEEEET_SA_, symObjAddr: 0x1CB0, symBinAddr: 0x100005804, symSize: 0x14 }
  - { offsetInCU: 0x1C2F4, offset: 0x1C2F4, size: 0x8, addend: 0x0, symName: __ZStltIiSt4pairIiiEEbRKS0_IT_T0_ES6_, symObjAddr: 0x1C34, symBinAddr: 0x100005788, symSize: 0x7C }
  - { offsetInCU: 0x1C341, offset: 0x1C341, size: 0x8, addend: 0x0, symName: __ZSt9iter_swapIN9__gnu_cxx17__normal_iteratorIPSt4pairIiS2_IiiEESt6vectorIS4_SaIS4_EEEES9_EvT_T0_, symObjAddr: 0x1BF0, symBinAddr: 0x100005744, symSize: 0x44 }
  - { offsetInCU: 0x1C390, offset: 0x1C390, size: 0x8, addend: 0x0, symName: __ZN9__gnu_cxx17__normal_iteratorIPSt4pairIiS1_IiiEESt6vectorIS3_SaIS3_EEEmmEv, symObjAddr: 0x1BC8, symBinAddr: 0x10000571C, symSize: 0x28 }
  - { offsetInCU: 0x1C3B6, offset: 0x1C3B6, size: 0x8, addend: 0x0, symName: __ZSt10__pop_heapIN9__gnu_cxx17__normal_iteratorIPSt4pairIiS2_IiiEESt6vectorIS4_SaIS4_EEEENS0_5__ops15_Iter_less_iterEEvT_SC_SC_RT0_, symObjAddr: 0x1B1C, symBinAddr: 0x100005670, symSize: 0xAC }
  - { offsetInCU: 0x1C452, offset: 0x1C452, size: 0x8, addend: 0x0, symName: __ZN9__gnu_cxxltIPSt4pairIiS1_IiiEESt6vectorIS3_SaIS3_EEEEbRKNS_17__normal_iteratorIT_T0_EESD_, symObjAddr: 0x1AD8, symBinAddr: 0x10000562C, symSize: 0x44 }
  - { offsetInCU: 0x1C49F, offset: 0x1C49F, size: 0x8, addend: 0x0, symName: __ZSt11__make_heapIN9__gnu_cxx17__normal_iteratorIPSt4pairIiS2_IiiEESt6vectorIS4_SaIS4_EEEENS0_5__ops15_Iter_less_iterEEvT_SC_RT0_, symObjAddr: 0x19E0, symBinAddr: 0x100005534, symSize: 0xF8 }
  - { offsetInCU: 0x1C557, offset: 0x1C557, size: 0x8, addend: 0x0, symName: __ZSt14__relocate_a_1IPSt4pairIiS0_IiiEES3_SaIS2_EET0_T_S6_S5_RT1_, symObjAddr: 0x195C, symBinAddr: 0x1000054B0, symSize: 0x84 }
  - { offsetInCU: 0x1C5E0, offset: 0x1C5E0, size: 0x8, addend: 0x0, symName: __ZSt12__niter_baseIPSt4pairIiS0_IiiEEET_S4_, symObjAddr: 0x1948, symBinAddr: 0x10000549C, symSize: 0x14 }
  - { offsetInCU: 0x1C617, offset: 0x1C617, size: 0x8, addend: 0x0, symName: __ZNSt15__new_allocatorISt4pairIiS0_IiiEEE8allocateEmPKv, symObjAddr: 0x18B8, symBinAddr: 0x10000540C, symSize: 0x90 }
  - { offsetInCU: 0x1C6A3, offset: 0x1C6A3, size: 0x8, addend: 0x0, symName: __ZNKSt12_Vector_baseISt4pairIiS0_IiiEESaIS2_EE19_M_get_Tp_allocatorEv, symObjAddr: 0x18A4, symBinAddr: 0x1000053F8, symSize: 0x14 }
  - { offsetInCU: 0x1C6C9, offset: 0x1C6C9, size: 0x8, addend: 0x0, symName: __ZNSt6vectorISt4pairIiS0_IiiEESaIS2_EE11_S_max_sizeERKS3_, symObjAddr: 0x1848, symBinAddr: 0x10000539C, symSize: 0x5C }
  - { offsetInCU: 0x1C780, offset: 0x1C780, size: 0x8, addend: 0x0, symName: __ZSt25__unguarded_linear_insertIN9__gnu_cxx17__normal_iteratorIPSt4pairIiS2_IiiEESt6vectorIS4_SaIS4_EEEENS0_5__ops14_Val_less_iterEEvT_T0_, symObjAddr: 0x1784, symBinAddr: 0x1000052D8, symSize: 0xC4 }
  - { offsetInCU: 0x1C7F3, offset: 0x1C7F3, size: 0x8, addend: 0x0, symName: __ZNSt4pairIiS_IiiEEaSEOS1_, symObjAddr: 0x1738, symBinAddr: 0x10000528C, symSize: 0x4C }
  - { offsetInCU: 0x1C82A, offset: 0x1C82A, size: 0x8, addend: 0x0, symName: __ZSt13move_backwardIN9__gnu_cxx17__normal_iteratorIPSt4pairIiS2_IiiEESt6vectorIS4_SaIS4_EEEES9_ET0_T_SB_SA_, symObjAddr: 0x16F0, symBinAddr: 0x100005244, symSize: 0x48 }
  - { offsetInCU: 0x1C897, offset: 0x1C897, size: 0x8, addend: 0x0, symName: __ZNK9__gnu_cxx5__ops15_Iter_less_iterclINS_17__normal_iteratorIPSt4pairIiS4_IiiEESt6vectorIS6_SaIS6_EEEESB_EEbT_T0_, symObjAddr: 0x16AC, symBinAddr: 0x100005200, symSize: 0x44 }
  - { offsetInCU: 0x1C8EF, offset: 0x1C8EF, size: 0x8, addend: 0x0, symName: __ZN9__gnu_cxxeqIPSt4pairIiS1_IiiEESt6vectorIS3_SaIS3_EEEEbRKNS_17__normal_iteratorIT_T0_EESD_, symObjAddr: 0x1668, symBinAddr: 0x1000051BC, symSize: 0x44 }
  - { offsetInCU: 0x1C93C, offset: 0x1C93C, size: 0x8, addend: 0x0, symName: __ZSt21__unguarded_partitionIN9__gnu_cxx17__normal_iteratorIPSt4pairIiS2_IiiEESt6vectorIS4_SaIS4_EEEENS0_5__ops15_Iter_less_iterEET_SC_SC_SC_T0_, symObjAddr: 0x15B0, symBinAddr: 0x100005104, symSize: 0xB8 }
  - { offsetInCU: 0x1C9AB, offset: 0x1C9AB, size: 0x8, addend: 0x0, symName: __ZSt22__move_median_to_firstIN9__gnu_cxx17__normal_iteratorIPSt4pairIiS2_IiiEESt6vectorIS4_SaIS4_EEEENS0_5__ops15_Iter_less_iterEEvT_SC_SC_SC_T0_, symObjAddr: 0x14A0, symBinAddr: 0x100004FF4, symSize: 0x110 }
  - { offsetInCU: 0x1CA26, offset: 0x1CA26, size: 0x8, addend: 0x0, symName: __ZSt11__sort_heapIN9__gnu_cxx17__normal_iteratorIPSt4pairIiS2_IiiEESt6vectorIS4_SaIS4_EEEENS0_5__ops15_Iter_less_iterEEvT_SC_RT0_, symObjAddr: 0x1438, symBinAddr: 0x100004F8C, symSize: 0x68 }
  - { offsetInCU: 0x1CA84, offset: 0x1CA84, size: 0x8, addend: 0x0, symName: __ZSt13__heap_selectIN9__gnu_cxx17__normal_iteratorIPSt4pairIiS2_IiiEESt6vectorIS4_SaIS4_EEEENS0_5__ops15_Iter_less_iterEEvT_SC_SC_T0_, symObjAddr: 0x139C, symBinAddr: 0x100004EF0, symSize: 0x9C }
  - { offsetInCU: 0x1CB17, offset: 0x1CB17, size: 0x8, addend: 0x0, symName: __ZSt12__relocate_aIPSt4pairIiS0_IiiEES3_SaIS2_EET0_T_S6_S5_RT1_, symObjAddr: 0x1340, symBinAddr: 0x100004E94, symSize: 0x5C }
  - { offsetInCU: 0x1CBB7, offset: 0x1CBB7, size: 0x8, addend: 0x0, symName: __ZNKSt6vectorISt4pairIiS0_IiiEESaIS2_EE4sizeEv, symObjAddr: 0x130C, symBinAddr: 0x100004E60, symSize: 0x34 }
  - { offsetInCU: 0x1CBE1, offset: 0x1CBE1, size: 0x8, addend: 0x0, symName: __ZNKSt6vectorISt4pairIiS0_IiiEESaIS2_EE8max_sizeEv, symObjAddr: 0x12EC, symBinAddr: 0x100004E40, symSize: 0x20 }
  - { offsetInCU: 0x1CC07, offset: 0x1CC07, size: 0x8, addend: 0x0, symName: __ZSt26__unguarded_insertion_sortIN9__gnu_cxx17__normal_iteratorIPSt4pairIiS2_IiiEESt6vectorIS4_SaIS4_EEEENS0_5__ops15_Iter_less_iterEEvT_SC_T0_, symObjAddr: 0x1280, symBinAddr: 0x100004DD4, symSize: 0x6C }
  - { offsetInCU: 0x1CC89, offset: 0x1CC89, size: 0x8, addend: 0x0, symName: __ZSt16__insertion_sortIN9__gnu_cxx17__normal_iteratorIPSt4pairIiS2_IiiEESt6vectorIS4_SaIS4_EEEENS0_5__ops15_Iter_less_iterEEvT_SC_T0_, symObjAddr: 0x1170, symBinAddr: 0x100004CC4, symSize: 0x110 }
  - { offsetInCU: 0x1CD33, offset: 0x1CD33, size: 0x8, addend: 0x0, symName: __ZNK9__gnu_cxx17__normal_iteratorIPSt4pairIiS1_IiiEESt6vectorIS3_SaIS3_EEEplEl, symObjAddr: 0x1124, symBinAddr: 0x100004C78, symSize: 0x4C }
  - { offsetInCU: 0x1CD6A, offset: 0x1CD6A, size: 0x8, addend: 0x0, symName: __ZSt27__unguarded_partition_pivotIN9__gnu_cxx17__normal_iteratorIPSt4pairIiS2_IiiEESt6vectorIS4_SaIS4_EEEENS0_5__ops15_Iter_less_iterEET_SC_SC_T0_, symObjAddr: 0x1080, symBinAddr: 0x100004BD4, symSize: 0xA4 }
  - { offsetInCU: 0x1CDD9, offset: 0x1CDD9, size: 0x8, addend: 0x0, symName: __ZSt14__partial_sortIN9__gnu_cxx17__normal_iteratorIPSt4pairIiS2_IiiEESt6vectorIS4_SaIS4_EEEENS0_5__ops15_Iter_less_iterEEvT_SC_SC_T0_, symObjAddr: 0x1034, symBinAddr: 0x100004B88, symSize: 0x4C }
  - { offsetInCU: 0x1CE4C, offset: 0x1CE4C, size: 0x8, addend: 0x0, symName: __ZNK9__gnu_cxx17__normal_iteratorIPSt4pairIiS1_IiiEESt6vectorIS3_SaIS3_EEEmiEl, symObjAddr: 0xFE4, symBinAddr: 0x100004B38, symSize: 0x50 }
  - { offsetInCU: 0x1CE83, offset: 0x1CE83, size: 0x8, addend: 0x0, symName: __ZNSt6vectorISt4pairIiS0_IiiEESaIS2_EE11_S_relocateEPS2_S5_S5_RS3_, symObjAddr: 0xFB0, symBinAddr: 0x100004B04, symSize: 0x34 }
  - { offsetInCU: 0x1CEE0, offset: 0x1CEE0, size: 0x8, addend: 0x0, symName: __ZSt12__to_addressISt4pairIiS0_IiiEEEPT_S4_, symObjAddr: 0xF9C, symBinAddr: 0x100004AF0, symSize: 0x14 }
  - { offsetInCU: 0x1CF16, offset: 0x1CF16, size: 0x8, addend: 0x0, symName: __ZNSt12_Vector_baseISt4pairIiS0_IiiEESaIS2_EE11_M_allocateEm, symObjAddr: 0xF4C, symBinAddr: 0x100004AA0, symSize: 0x50 }
  - { offsetInCU: 0x1CF7E, offset: 0x1CF7E, size: 0x8, addend: 0x0, symName: __ZNKSt6vectorISt4pairIiS0_IiiEESaIS2_EE12_M_check_lenEmPKc, symObjAddr: 0xE7C, symBinAddr: 0x1000049D0, symSize: 0xD0 }
  - { offsetInCU: 0x1D019, offset: 0x1D019, size: 0x8, addend: 0x0, symName: __ZNSt12_Destroy_auxILb1EE9__destroyIPSt4pairIiS2_IiiEEEEvT_S6_, symObjAddr: 0xE64, symBinAddr: 0x1000049B8, symSize: 0x18 }
  - { offsetInCU: 0x1D051, offset: 0x1D051, size: 0x8, addend: 0x0, symName: __ZNSt15__new_allocatorISt4pairIiS0_IiiEEE10deallocateEPS2_m, symObjAddr: 0xE28, symBinAddr: 0x10000497C, symSize: 0x3C }
  - { offsetInCU: 0x1D097, offset: 0x1D097, size: 0x8, addend: 0x0, symName: __ZSt13__countl_zeroImEiT_, symObjAddr: 0xDD4, symBinAddr: 0x100004928, symSize: 0x54 }
  - { offsetInCU: 0x1D12C, offset: 0x1D12C, size: 0x8, addend: 0x0, symName: __ZSt22__final_insertion_sortIN9__gnu_cxx17__normal_iteratorIPSt4pairIiS2_IiiEESt6vectorIS4_SaIS4_EEEENS0_5__ops15_Iter_less_iterEEvT_SC_T0_, symObjAddr: 0xD38, symBinAddr: 0x10000488C, symSize: 0x9C }
  - { offsetInCU: 0x1D18A, offset: 0x1D18A, size: 0x8, addend: 0x0, symName: __ZSt16__introsort_loopIN9__gnu_cxx17__normal_iteratorIPSt4pairIiS2_IiiEESt6vectorIS4_SaIS4_EEEElNS0_5__ops15_Iter_less_iterEEvT_SC_T0_T1_, symObjAddr: 0xC80, symBinAddr: 0x1000047D4, symSize: 0xB8 }
  - { offsetInCU: 0x1D226, offset: 0x1D226, size: 0x8, addend: 0x0, symName: __ZSt4__lgIlET_S0_, symObjAddr: 0xC5C, symBinAddr: 0x1000047B0, symSize: 0x24 }
  - { offsetInCU: 0x1D259, offset: 0x1D259, size: 0x8, addend: 0x0, symName: __ZN9__gnu_cxxmiIPSt4pairIiS1_IiiEESt6vectorIS3_SaIS3_EEEENS_17__normal_iteratorIT_T0_E15difference_typeERKSB_SE_, symObjAddr: 0xC10, symBinAddr: 0x100004764, symSize: 0x4C }
  - { offsetInCU: 0x1D2AA, offset: 0x1D2AA, size: 0x8, addend: 0x0, symName: __ZNSt6vectorISt4pairIiS0_IiiEESaIS2_EE4backEv, symObjAddr: 0xBD8, symBinAddr: 0x10000472C, symSize: 0x38 }
  - { offsetInCU: 0x1D2D4, offset: 0x1D2D4, size: 0x8, addend: 0x0, symName: __ZNSt6vectorISt4pairIiS0_IiiEESaIS2_EE17_M_realloc_appendIJS2_EEEvDpOT_, symObjAddr: 0x9E0, symBinAddr: 0x100004534, symSize: 0x1F8 }
  - { offsetInCU: 0x1D4B2, offset: 0x1D4B2, size: 0x8, addend: 0x0, symName: __ZZNSt6vectorISt4pairIiS0_IiiEESaIS2_EE17_M_realloc_appendIJS2_EEEvDpOT_EN6_GuardC1EPS2_mRS3_, symObjAddr: 0x93C, symBinAddr: 0x100004490, symSize: 0x44 }
  - { offsetInCU: 0x1D4F0, offset: 0x1D4F0, size: 0x8, addend: 0x0, symName: __ZZNSt6vectorISt4pairIiS0_IiiEESaIS2_EE17_M_realloc_appendIJS2_EEEvDpOT_EN6_GuardD1Ev, symObjAddr: 0x980, symBinAddr: 0x1000044D4, symSize: 0x60 }
  - { offsetInCU: 0x1D5D6, offset: 0x1D5D6, size: 0x8, addend: 0x0, symName: __ZSt7forwardISt4pairIiS0_IiiEEEOT_RNSt16remove_referenceIS3_E4typeE, symObjAddr: 0x928, symBinAddr: 0x10000447C, symSize: 0x14 }
  - { offsetInCU: 0x1D608, offset: 0x1D608, size: 0x8, addend: 0x0, symName: __ZSt8_DestroyIPSt4pairIiS0_IiiEEEvT_S4_, symObjAddr: 0x900, symBinAddr: 0x100004454, symSize: 0x28 }
  - { offsetInCU: 0x1D692, offset: 0x1D692, size: 0x8, addend: 0x0, symName: __ZSt11__bit_widthImEiT_, symObjAddr: 0x8D0, symBinAddr: 0x100004424, symSize: 0x30 }
  - { offsetInCU: 0x1D6DA, offset: 0x1D6DA, size: 0x8, addend: 0x0, symName: __ZNK9__gnu_cxx17__normal_iteratorIPSt4pairIiS1_IiiEESt6vectorIS3_SaIS3_EEE4baseEv, symObjAddr: 0x8BC, symBinAddr: 0x100004410, symSize: 0x14 }
  - { offsetInCU: 0x1D700, offset: 0x1D700, size: 0x8, addend: 0x0, symName: __ZSt6__sortIN9__gnu_cxx17__normal_iteratorIPSt4pairIiS2_IiiEESt6vectorIS4_SaIS4_EEEENS0_5__ops15_Iter_less_iterEEvT_SC_T0_, symObjAddr: 0x844, symBinAddr: 0x100004398, symSize: 0x78 }
  - { offsetInCU: 0x1D7D8, offset: 0x1D7D8, size: 0x8, addend: 0x0, symName: __ZN9__gnu_cxx17__normal_iteratorIPSt4pairIiS1_IiiEESt6vectorIS3_SaIS3_EEEC1ERKS4_, symObjAddr: 0x81C, symBinAddr: 0x100004370, symSize: 0x28 }
  - { offsetInCU: 0x1D7B9, offset: 0x1D7B9, size: 0x8, addend: 0x0, symName: __ZNSt6vectorISt4pairIiS0_IiiEESaIS2_EE12emplace_backIJS2_EEERS2_DpOT_, symObjAddr: 0x734, symBinAddr: 0x100004288, symSize: 0xE8 }
  - { offsetInCU: 0x1D86A, offset: 0x1D86A, size: 0x8, addend: 0x0, symName: __ZSt4moveIRSt4pairIiS0_IiiEEEONSt16remove_referenceIT_E4typeEOS5_, symObjAddr: 0x720, symBinAddr: 0x100004274, symSize: 0x14 }
  - { offsetInCU: 0x1D8A2, offset: 0x1D8A2, size: 0x8, addend: 0x0, symName: __ZSt7forwardIRiEOT_RNSt16remove_referenceIS1_E4typeE, symObjAddr: 0x70C, symBinAddr: 0x100004260, symSize: 0x14 }
  - { offsetInCU: 0x1D913, offset: 0x1D913, size: 0x8, addend: 0x0, symName: __ZNSt12_Vector_baseISt4pairIiS0_IiiEESaIS2_EE19_M_get_Tp_allocatorEv, symObjAddr: 0x6F8, symBinAddr: 0x10000424C, symSize: 0x14 }
  - { offsetInCU: 0x1D93D, offset: 0x1D93D, size: 0x8, addend: 0x0, symName: __ZNSt12_Vector_baseISt4pairIiS0_IiiEESaIS2_EE13_M_deallocateEPS2_m, symObjAddr: 0x6A0, symBinAddr: 0x1000041F4, symSize: 0x58 }
  - { offsetInCU: 0x1DA0D, offset: 0x1DA0D, size: 0x8, addend: 0x0, symName: __ZNSt15__new_allocatorISt4pairIiS0_IiiEEED2Ev, symObjAddr: 0x68C, symBinAddr: 0x1000041E0, symSize: 0x14 }
  - { offsetInCU: 0x1DA64, offset: 0x1DA64, size: 0x8, addend: 0x0, symName: __ZNSt12_Vector_baseISt4pairIiS0_IiiEESaIS2_EE17_Vector_impl_dataC2Ev, symObjAddr: 0x660, symBinAddr: 0x1000041B4, symSize: 0x2C }
  - { offsetInCU: 0x1DA5F, offset: 0x1DA5F, size: 0x8, addend: 0x0, symName: __ZNK9__gnu_cxx17__normal_iteratorIPSt4pairIiS1_IiiEESt6vectorIS3_SaIS3_EEEdeEv, symObjAddr: 0x648, symBinAddr: 0x10000419C, symSize: 0x18 }
  - { offsetInCU: 0x1DA89, offset: 0x1DA89, size: 0x8, addend: 0x0, symName: __ZN9__gnu_cxx17__normal_iteratorIPSt4pairIiS1_IiiEESt6vectorIS3_SaIS3_EEEppEv, symObjAddr: 0x620, symBinAddr: 0x100004174, symSize: 0x28 }
  - { offsetInCU: 0x1DAAF, offset: 0x1DAAF, size: 0x8, addend: 0x0, symName: __ZN9__gnu_cxxneIPSt4pairIiS1_IiiEESt6vectorIS3_SaIS3_EEEEbRKNS_17__normal_iteratorIT_T0_EESD_, symObjAddr: 0x5DC, symBinAddr: 0x100004130, symSize: 0x44 }
  - { offsetInCU: 0x1DAFC, offset: 0x1DAFC, size: 0x8, addend: 0x0, symName: __ZSt4sortIN9__gnu_cxx17__normal_iteratorIPSt4pairIiS2_IiiEESt6vectorIS4_SaIS4_EEEEEvT_SA_, symObjAddr: 0x5A4, symBinAddr: 0x1000040F8, symSize: 0x38 }
  - { offsetInCU: 0x1DB44, offset: 0x1DB44, size: 0x8, addend: 0x0, symName: __ZNSt6vectorISt4pairIiS0_IiiEESaIS2_EE3endEv, symObjAddr: 0x57C, symBinAddr: 0x1000040D0, symSize: 0x28 }
  - { offsetInCU: 0x1DB6E, offset: 0x1DB6E, size: 0x8, addend: 0x0, symName: __ZNSt6vectorISt4pairIiS0_IiiEESaIS2_EE5beginEv, symObjAddr: 0x558, symBinAddr: 0x1000040AC, symSize: 0x24 }
  - { offsetInCU: 0x1DB98, offset: 0x1DB98, size: 0x8, addend: 0x0, symName: __ZNSt6vectorISt4pairIiS0_IiiEESaIS2_EE9push_backEOS2_, symObjAddr: 0x528, symBinAddr: 0x10000407C, symSize: 0x30 }
  - { offsetInCU: 0x1DC40, offset: 0x1DC40, size: 0x8, addend: 0x0, symName: __ZNSt4pairIiS_IiiEEC1IiS0_Lb1EEERKiRKS0_, symObjAddr: 0x4EC, symBinAddr: 0x100004040, symSize: 0x3C }
  - { offsetInCU: 0x1DCCD, offset: 0x1DCCD, size: 0x8, addend: 0x0, symName: __ZNSt4pairIiiEC1IRiS2_Lb1EEEOT_OT0_, symObjAddr: 0x4A4, symBinAddr: 0x100003FF8, symSize: 0x48 }
  - { offsetInCU: 0x1DD42, offset: 0x1DD42, size: 0x8, addend: 0x0, symName: __ZNSt6vectorISt4pairIiS0_IiiEESaIS2_EED1Ev, symObjAddr: 0x448, symBinAddr: 0x100003F9C, symSize: 0x5C }
  - { offsetInCU: 0x1DDC9, offset: 0x1DDC9, size: 0x8, addend: 0x0, symName: __ZNSt12_Vector_baseISt4pairIiS0_IiiEESaIS2_EED2Ev, symObjAddr: 0x3EC, symBinAddr: 0x100003F40, symSize: 0x5C }
  - { offsetInCU: 0x1DE37, offset: 0x1DE37, size: 0x8, addend: 0x0, symName: __ZNSt12_Vector_baseISt4pairIiS0_IiiEESaIS2_EE12_Vector_implC1Ev, symObjAddr: 0x3B4, symBinAddr: 0x100003F08, symSize: 0x38 }
  - { offsetInCU: 0x1DE69, offset: 0x1DE69, size: 0x8, addend: 0x0, symName: __ZSt7forwardIiEOT_RNSt16remove_referenceIS0_E4typeE, symObjAddr: 0x3A0, symBinAddr: 0x100003EF4, symSize: 0x14 }
  - { offsetInCU: 0x1DE9B, offset: 0x1DE9B, size: 0x8, addend: 0x0, symName: __ZSt3maxImERKT_S2_S2_, symObjAddr: 0x368, symBinAddr: 0x100003EBC, symSize: 0x38 }
  - { offsetInCU: 0x1DEE8, offset: 0x1DEE8, size: 0x8, addend: 0x0, symName: _main, symObjAddr: 0x144, symBinAddr: 0x100003C98, symSize: 0x224 }
  - { offsetInCU: 0x1E084, offset: 0x1E084, size: 0x8, addend: 0x0, symName: __ZNSt6vectorISt4pairIiS0_IiiEESaIS2_EEC1Ev, symObjAddr: 0x124, symBinAddr: 0x100003C78, symSize: 0x20 }
  - { offsetInCU: 0x1E0CB, offset: 0x1E0CB, size: 0x8, addend: 0x0, symName: __ZNSt12_Vector_baseISt4pairIiS0_IiiEESaIS2_EEC2Ev, symObjAddr: 0x104, symBinAddr: 0x100003C58, symSize: 0x20 }
  - { offsetInCU: 0x1E126, offset: 0x1E126, size: 0x8, addend: 0x0, symName: __ZNSt12_Vector_baseISt4pairIiS0_IiiEESaIS2_EE12_Vector_implD1Ev, symObjAddr: 0xD8, symBinAddr: 0x100003C2C, symSize: 0x2C }
  - { offsetInCU: 0x1E14B, offset: 0x1E14B, size: 0x8, addend: 0x0, symName: __Z9find_rooti, symObjAddr: 0x88, symBinAddr: 0x100003BDC, symSize: 0x50 }
  - { offsetInCU: 0x1E163, offset: 0x1E163, size: 0x8, addend: 0x0, symName: __ZSt3minImERKT_S2_S2_, symObjAddr: 0x50, symBinAddr: 0x100003BA4, symSize: 0x38 }
  - { offsetInCU: 0x1E1B5, offset: 0x1E1B5, size: 0x8, addend: 0x0, symName: __ZnwmPv, symObjAddr: 0x38, symBinAddr: 0x100003B8C, symSize: 0x18 }
  - { offsetInCU: 0x1E1E2, offset: 0x1E1E2, size: 0x8, addend: 0x0, symName: __ZN9__gnu_cxx5__ops15__val_comp_iterENS0_15_Iter_less_iterE, symObjAddr: 0x20, symBinAddr: 0x100003B74, symSize: 0x18 }
  - { offsetInCU: 0x1E260, offset: 0x1E260, size: 0x8, addend: 0x0, symName: __ZN9__gnu_cxx5__ops14_Iter_less_valC1ENS0_15_Iter_less_iterE, symObjAddr: 0x8, symBinAddr: 0x100003B5C, symSize: 0x18 }
  - { offsetInCU: 0x1E253, offset: 0x1E253, size: 0x8, addend: 0x0, symName: __ZN9__gnu_cxx5__ops16__iter_less_iterEv, symObjAddr: 0x0, symBinAddr: 0x100003B54, symSize: 0x8 }
...
