---
triple:          'arm64-apple-darwin'
binary-path:     '/Users/pai/code/CU Grader/output/Location_Analysis'
relocations:
  - { offsetInCU: 0x2468B, offset: 0x2468B, size: 0x8, addend: 0x0, symName: __ZStL8__ioinit, symObjAddr: 0xDE6E8, symBinAddr: 0x100010000, symSize: 0x0 }
  - { offsetInCU: 0x24CE7, offset: 0x24CE7, size: 0x8, addend: 0x0, symName: __Z2IDB5cxx11, symObjAddr: 0xDE6F0, symBinAddr: 0x100010008, symSize: 0x0 }
  - { offsetInCU: 0x24D08, offset: 0x24D08, size: 0x8, addend: 0x0, symName: __Z5keyIDB5cxx11, symObjAddr: 0xDE728, symBinAddr: 0x100010040, symSize: 0x0 }
  - { offsetInCU: 0x24EE9, offset: 0x24EE9, size: 0x8, addend: 0x0, symName: __Z5orderB5cxx11, symObjAddr: 0xDE760, symBinAddr: 0x100010078, symSize: 0x0 }
  - { offsetInCU: 0x250B1, offset: 0x250B1, size: 0x8, addend: 0x0, symName: __Z3ansB5cxx11, symObjAddr: 0xDE790, symBinAddr: 0x1000100A8, symSize: 0x0 }
  - { offsetInCU: 0x25808, offset: 0x25808, size: 0x8, addend: 0x0, symName: __ZNSt3setISt4pairIiNSt7__cxx1112basic_stringIcSt11char_traitsIcESaIcEEEESt4lessIS7_ESaIS7_EED1Ev, symObjAddr: 0x5110, symBinAddr: 0x100006790, symSize: 0x20 }
  - { offsetInCU: 0x25854, offset: 0x25854, size: 0x8, addend: 0x0, symName: __ZNSt3mapINSt7__cxx1112basic_stringIcSt11char_traitsIcESaIcEEEiSt4lessIS5_ESaISt4pairIKS5_iEEED1Ev, symObjAddr: 0x50F0, symBinAddr: 0x100006770, symSize: 0x20 }
  - { offsetInCU: 0x258D2, offset: 0x258D2, size: 0x8, addend: 0x0, symName: __ZNSt13unordered_mapINSt7__cxx1112basic_stringIcSt11char_traitsIcESaIcEEESt6vectorIS5_SaIS5_EESt4hashIS5_ESt8equal_toIS5_ESaISt4pairIKS5_S8_EEED1Ev, symObjAddr: 0x50D0, symBinAddr: 0x100006750, symSize: 0x20 }
  - { offsetInCU: 0x25864, offset: 0x25864, size: 0x8, addend: 0x0, symName: __ZNSt10_Head_baseILm0ERKNSt7__cxx1112basic_stringIcSt11char_traitsIcESaIcEEELb0EE7_M_headERS8_, symObjAddr: 0x50B8, symBinAddr: 0x100006738, symSize: 0x18 }
  - { offsetInCU: 0x258A3, offset: 0x258A3, size: 0x8, addend: 0x0, symName: __ZNSt11_Tuple_implILm0EJRKNSt7__cxx1112basic_stringIcSt11char_traitsIcESaIcEEEEE7_M_headERS8_, symObjAddr: 0x509C, symBinAddr: 0x10000671C, symSize: 0x1C }
  - { offsetInCU: 0x258CD, offset: 0x258CD, size: 0x8, addend: 0x0, symName: __ZSt8_DestroyINSt7__cxx1112basic_stringIcSt11char_traitsIcESaIcEEEEvPT_, symObjAddr: 0x507C, symBinAddr: 0x1000066FC, symSize: 0x20 }
  - { offsetInCU: 0x25981, offset: 0x25981, size: 0x8, addend: 0x0, symName: __ZNSt12_Vector_baseINSt7__cxx1112basic_stringIcSt11char_traitsIcESaIcEEESaIS5_EE17_Vector_impl_dataC2Ev, symObjAddr: 0x5050, symBinAddr: 0x1000066D0, symSize: 0x2C }
  - { offsetInCU: 0x25955, offset: 0x25955, size: 0x8, addend: 0x0, symName: __ZSt12__get_helperILm0ERKNSt7__cxx1112basic_stringIcSt11char_traitsIcESaIcEEEJEERT0_RSt11_Tuple_implIXT_EJS8_DpT1_EE, symObjAddr: 0x5034, symBinAddr: 0x1000066B4, symSize: 0x1C }
  - { offsetInCU: 0x259A0, offset: 0x259A0, size: 0x8, addend: 0x0, symName: __ZNK9__gnu_cxx16__aligned_bufferISt4pairIKNSt7__cxx1112basic_stringIcSt11char_traitsIcESaIcEEESt6vectorIS7_SaIS7_EEEE7_M_addrEv, symObjAddr: 0x5020, symBinAddr: 0x1000066A0, symSize: 0x14 }
  - { offsetInCU: 0x259C5, offset: 0x259C5, size: 0x8, addend: 0x0, symName: __ZNSt12_Destroy_auxILb0EE9__destroyIPNSt7__cxx1112basic_stringIcSt11char_traitsIcESaIcEEEEEvT_S9_, symObjAddr: 0x4FD4, symBinAddr: 0x100006654, symSize: 0x4C }
  - { offsetInCU: 0x25A7C, offset: 0x25A7C, size: 0x8, addend: 0x0, symName: __ZNSt15__new_allocatorINSt7__cxx1112basic_stringIcSt11char_traitsIcESaIcEEEED2Ev, symObjAddr: 0x4FC0, symBinAddr: 0x100006640, symSize: 0x14 }
  - { offsetInCU: 0x25ACE, offset: 0x25ACE, size: 0x8, addend: 0x0, symName: __ZNSt12_Vector_baseINSt7__cxx1112basic_stringIcSt11char_traitsIcESaIcEEESaIS5_EE12_Vector_implC1Ev, symObjAddr: 0x4F88, symBinAddr: 0x100006608, symSize: 0x38 }
  - { offsetInCU: 0x25AD7, offset: 0x25AD7, size: 0x8, addend: 0x0, symName: __ZSt3getILm0EJRKNSt7__cxx1112basic_stringIcSt11char_traitsIcESaIcEEEEERNSt13tuple_elementIXT_ESt5tupleIJDpT0_EEE4typeERSC_, symObjAddr: 0x4F6C, symBinAddr: 0x1000065EC, symSize: 0x1C }
  - { offsetInCU: 0x25B1A, offset: 0x25B1A, size: 0x8, addend: 0x0, symName: __ZNK9__gnu_cxx16__aligned_bufferISt4pairIKNSt7__cxx1112basic_stringIcSt11char_traitsIcESaIcEEESt6vectorIS7_SaIS7_EEEE6_M_ptrEv, symObjAddr: 0x4F50, symBinAddr: 0x1000065D0, symSize: 0x1C }
  - { offsetInCU: 0x25C48, offset: 0x25C48, size: 0x8, addend: 0x0, symName: __ZNSt4pairIKNSt7__cxx1112basic_stringIcSt11char_traitsIcESaIcEEEiEC1IJRS6_EJLm0EEJEJEEERSt5tupleIJDpT_EERSA_IJDpT1_EESt12_Index_tupleIJXspT0_EEESJ_IJXspT2_EEE, symObjAddr: 0x4EFC, symBinAddr: 0x10000657C, symSize: 0x54 }
  - { offsetInCU: 0x25C1C, offset: 0x25C1C, size: 0x8, addend: 0x0, symName: __ZSt8_DestroyIPNSt7__cxx1112basic_stringIcSt11char_traitsIcESaIcEEEEvT_S7_, symObjAddr: 0x4ED4, symBinAddr: 0x100006554, symSize: 0x28 }
  - { offsetInCU: 0x25C62, offset: 0x25C62, size: 0x8, addend: 0x0, symName: __ZNSt12_Vector_baseINSt7__cxx1112basic_stringIcSt11char_traitsIcESaIcEEESaIS5_EE13_M_deallocateEPS5_m, symObjAddr: 0x4E7C, symBinAddr: 0x1000064FC, symSize: 0x58 }
  - { offsetInCU: 0x25DAA, offset: 0x25DAA, size: 0x8, addend: 0x0, symName: __ZNSt4pairIiNSt7__cxx1112basic_stringIcSt11char_traitsIcESaIcEEEEC1EOS6_, symObjAddr: 0x4E34, symBinAddr: 0x1000064B4, symSize: 0x48 }
  - { offsetInCU: 0x25D94, offset: 0x25D94, size: 0x8, addend: 0x0, symName: __ZNSt15__new_allocatorISt13_Rb_tree_nodeISt4pairIiNSt7__cxx1112basic_stringIcSt11char_traitsIcESaIcEEEEEE8allocateEmPKv, symObjAddr: 0x4D9C, symBinAddr: 0x10000641C, symSize: 0x98 }
  - { offsetInCU: 0x25E91, offset: 0x25E91, size: 0x8, addend: 0x0, symName: __ZSt7forwardINSt7__cxx1112basic_stringIcSt11char_traitsIcESaIcEEEEOT_RNSt16remove_referenceIS6_E4typeE, symObjAddr: 0x4D88, symBinAddr: 0x100006408, symSize: 0x14 }
  - { offsetInCU: 0x25EC7, offset: 0x25EC7, size: 0x8, addend: 0x0, symName: __ZNSt15__new_allocatorIPNSt8__detail15_Hash_node_baseEE8allocateEmPKv, symObjAddr: 0x4D0C, symBinAddr: 0x10000638C, symSize: 0x7C }
  - { offsetInCU: 0x2606B, offset: 0x2606B, size: 0x8, addend: 0x0, symName: __ZNSt4pairIKNSt7__cxx1112basic_stringIcSt11char_traitsIcESaIcEEESt6vectorIS5_SaIS5_EEEC1IJRS6_EJLm0EEJEJEEERSt5tupleIJDpT_EERSD_IJDpT1_EESt12_Index_tupleIJXspT0_EEESM_IJXspT2_EEE, symObjAddr: 0x4CA4, symBinAddr: 0x100006324, symSize: 0x68 }
  - { offsetInCU: 0x26093, offset: 0x26093, size: 0x8, addend: 0x0, symName: __ZNSt6vectorINSt7__cxx1112basic_stringIcSt11char_traitsIcESaIcEEESaIS5_EEC1Ev, symObjAddr: 0x4C84, symBinAddr: 0x100006304, symSize: 0x20 }
  - { offsetInCU: 0x260DA, offset: 0x260DA, size: 0x8, addend: 0x0, symName: __ZNSt12_Vector_baseINSt7__cxx1112basic_stringIcSt11char_traitsIcESaIcEEESaIS5_EEC2Ev, symObjAddr: 0x4C64, symBinAddr: 0x1000062E4, symSize: 0x20 }
  - { offsetInCU: 0x260B2, offset: 0x260B2, size: 0x8, addend: 0x0, symName: __ZSt7forwardIRKSt4pairIKNSt7__cxx1112basic_stringIcSt11char_traitsIcESaIcEEESt6vectorIS6_SaIS6_EEEEOT_RNSt16remove_referenceISE_E4typeE, symObjAddr: 0x4C50, symBinAddr: 0x1000062D0, symSize: 0x14 }
  - { offsetInCU: 0x260FE, offset: 0x260FE, size: 0x8, addend: 0x0, symName: __ZNKSt8__detail21_Hashtable_ebo_helperILi0ESt8equal_toINSt7__cxx1112basic_stringIcSt11char_traitsIcESaIcEEEELb1EE7_M_cgetEv, symObjAddr: 0x4C3C, symBinAddr: 0x1000062BC, symSize: 0x14 }
  - { offsetInCU: 0x261F4, offset: 0x261F4, size: 0x8, addend: 0x0, symName: __ZNSt4pairIKNSt7__cxx1112basic_stringIcSt11char_traitsIcESaIcEEEiEC1IJRS6_EJEEESt21piecewise_construct_tSt5tupleIJDpT_EESB_IJDpT0_EE, symObjAddr: 0x4C00, symBinAddr: 0x100006280, symSize: 0x3C }
  - { offsetInCU: 0x261C1, offset: 0x261C1, size: 0x8, addend: 0x0, symName: __ZSt11__addressofINSt8__detail10_Hash_nodeISt4pairIKNSt7__cxx1112basic_stringIcSt11char_traitsIcESaIcEEESt6vectorIS8_SaIS8_EEELb1EEEEPT_RSF_, symObjAddr: 0x4BEC, symBinAddr: 0x10000626C, symSize: 0x14 }
  - { offsetInCU: 0x262A7, offset: 0x262A7, size: 0x8, addend: 0x0, symName: __ZNSt12_Vector_baseINSt7__cxx1112basic_stringIcSt11char_traitsIcESaIcEEESaIS5_EED2Ev, symObjAddr: 0x4B9C, symBinAddr: 0x10000621C, symSize: 0x50 }
  - { offsetInCU: 0x26302, offset: 0x26302, size: 0x8, addend: 0x0, symName: __ZNSt12_Vector_baseINSt7__cxx1112basic_stringIcSt11char_traitsIcESaIcEEESaIS5_EE12_Vector_implD1Ev, symObjAddr: 0x4B70, symBinAddr: 0x1000061F0, symSize: 0x2C }
  - { offsetInCU: 0x263D7, offset: 0x263D7, size: 0x8, addend: 0x0, symName: __ZSt12__to_addressIPNSt8__detail15_Hash_node_baseEEPT_S4_, symObjAddr: 0x4B5C, symBinAddr: 0x1000061DC, symSize: 0x14 }
  - { offsetInCU: 0x26511, offset: 0x26511, size: 0x8, addend: 0x0, symName: __ZNSt4pairIKNSt7__cxx1112basic_stringIcSt11char_traitsIcESaIcEEESt6vectorIS5_SaIS5_EEEC1IJRS6_EJEEESt21piecewise_construct_tSt5tupleIJDpT_EESE_IJDpT0_EE, symObjAddr: 0x4B20, symBinAddr: 0x1000061A0, symSize: 0x3C }
  - { offsetInCU: 0x2654A, offset: 0x2654A, size: 0x8, addend: 0x0, symName: __ZNSt11_Tuple_implILm0EJRKNSt7__cxx1112basic_stringIcSt11char_traitsIcESaIcEEEEEC2EOS8_, symObjAddr: 0x4AF8, symBinAddr: 0x100006178, symSize: 0x28 }
  - { offsetInCU: 0x26525, offset: 0x26525, size: 0x8, addend: 0x0, symName: __ZNKSt8equal_toINSt7__cxx1112basic_stringIcSt11char_traitsIcESaIcEEEEclERKS5_S8_, symObjAddr: 0x4AD0, symBinAddr: 0x100006150, symSize: 0x28 }
  - { offsetInCU: 0x2657C, offset: 0x2657C, size: 0x8, addend: 0x0, symName: __ZNKSt8__detail10_Select1stclIRKSt4pairIKNSt7__cxx1112basic_stringIcSt11char_traitsIcESaIcEEESt6vectorIS8_SaIS8_EEEEEONS0_10__1st_typeIT_E4typeEOSH_, symObjAddr: 0x4AB0, symBinAddr: 0x100006130, symSize: 0x20 }
  - { offsetInCU: 0x265D5, offset: 0x265D5, size: 0x8, addend: 0x0, symName: __ZNKSt8__detail15_Hashtable_baseINSt7__cxx1112basic_stringIcSt11char_traitsIcESaIcEEESt4pairIKS6_St6vectorIS6_SaIS6_EEENS_10_Select1stESt8equal_toIS6_ESt4hashIS6_ENS_18_Mod_range_hashingENS_20_Default_ranged_hashENS_17_Hashtable_traitsILb1ELb0ELb1EEEE5_M_eqEv, symObjAddr: 0x4A94, symBinAddr: 0x100006114, symSize: 0x1C }
  - { offsetInCU: 0x26604, offset: 0x26604, size: 0x8, addend: 0x0, symName: __ZNK9__gnu_cxx16__aligned_membufISt4pairIKNSt7__cxx1112basic_stringIcSt11char_traitsIcESaIcEEEiEE7_M_addrEv, symObjAddr: 0x4A80, symBinAddr: 0x100006100, symSize: 0x14 }
  - { offsetInCU: 0x26691, offset: 0x26691, size: 0x8, addend: 0x0, symName: __ZNSt15__new_allocatorISt13_Rb_tree_nodeISt4pairIKNSt7__cxx1112basic_stringIcSt11char_traitsIcESaIcEEEiEEE8allocateEmPKv, symObjAddr: 0x49E8, symBinAddr: 0x100006068, symSize: 0x98 }
  - { offsetInCU: 0x26722, offset: 0x26722, size: 0x8, addend: 0x0, symName: __ZN9__gnu_cxx16__aligned_membufISt4pairIiNSt7__cxx1112basic_stringIcSt11char_traitsIcESaIcEEEEE7_M_addrEv, symObjAddr: 0x49D4, symBinAddr: 0x100006054, symSize: 0x14 }
  - { offsetInCU: 0x26747, offset: 0x26747, size: 0x8, addend: 0x0, symName: __ZSt11__addressofIPNSt8__detail15_Hash_node_baseEEPT_RS3_, symObjAddr: 0x49C0, symBinAddr: 0x100006040, symSize: 0x14 }
  - { offsetInCU: 0x26779, offset: 0x26779, size: 0x8, addend: 0x0, symName: __ZSt9addressofINSt8__detail10_Hash_nodeISt4pairIKNSt7__cxx1112basic_stringIcSt11char_traitsIcESaIcEEESt6vectorIS8_SaIS8_EEELb1EEEEPT_RSF_, symObjAddr: 0x49A4, symBinAddr: 0x100006024, symSize: 0x1C }
  - { offsetInCU: 0x2681D, offset: 0x2681D, size: 0x8, addend: 0x0, symName: __ZNSt6vectorINSt7__cxx1112basic_stringIcSt11char_traitsIcESaIcEEESaIS5_EED1Ev, symObjAddr: 0x4948, symBinAddr: 0x100005FC8, symSize: 0x5C }
  - { offsetInCU: 0x2682F, offset: 0x2682F, size: 0x8, addend: 0x0, symName: __ZNSt8_Rb_treeISt4pairIiNSt7__cxx1112basic_stringIcSt11char_traitsIcESaIcEEEES7_St9_IdentityIS7_ESt4lessIS7_ESaIS7_EE17_M_construct_nodeIJS7_EEEvPSt13_Rb_tree_nodeIS7_EDpOT_, symObjAddr: 0x4894, symBinAddr: 0x100005F14, symSize: 0xB4 }
  - { offsetInCU: 0x268F2, offset: 0x268F2, size: 0x8, addend: 0x0, symName: __ZNSt8_Rb_treeISt4pairIiNSt7__cxx1112basic_stringIcSt11char_traitsIcESaIcEEEES7_St9_IdentityIS7_ESt4lessIS7_ESaIS7_EE11_M_get_nodeEv, symObjAddr: 0x4858, symBinAddr: 0x100005ED8, symSize: 0x3C }
  - { offsetInCU: 0x26945, offset: 0x26945, size: 0x8, addend: 0x0, symName: __ZSt19__relocate_object_aINSt7__cxx1112basic_stringIcSt11char_traitsIcESaIcEEES5_SaIS5_EEvPT_PT0_RT1_, symObjAddr: 0x4788, symBinAddr: 0x100005E08, symSize: 0xD0 }
  - { offsetInCU: 0x26A91, offset: 0x26A91, size: 0x8, addend: 0x0, symName: __ZNSt8__detail16_Hashtable_allocISaINS_10_Hash_nodeISt4pairIKNSt7__cxx1112basic_stringIcSt11char_traitsIcESaIcEEESt6vectorIS8_SaIS8_EEELb1EEEEE19_M_allocate_bucketsEm, symObjAddr: 0x46D8, symBinAddr: 0x100005D58, symSize: 0xB0 }
  - { offsetInCU: 0x26BB8, offset: 0x26BB8, size: 0x8, addend: 0x0, symName: __ZNSt15__new_allocatorINSt8__detail10_Hash_nodeISt4pairIKNSt7__cxx1112basic_stringIcSt11char_traitsIcESaIcEEESt6vectorIS8_SaIS8_EEELb1EEEE10deallocateEPSE_m, symObjAddr: 0x469C, symBinAddr: 0x100005D1C, symSize: 0x3C }
  - { offsetInCU: 0x26CC0, offset: 0x26CC0, size: 0x8, addend: 0x0, symName: __ZNSt5tupleIJRKNSt7__cxx1112basic_stringIcSt11char_traitsIcESaIcEEEEEC1EOS8_, symObjAddr: 0x4674, symBinAddr: 0x100005CF4, symSize: 0x28 }
  - { offsetInCU: 0x26CA6, offset: 0x26CA6, size: 0x8, addend: 0x0, symName: __ZNSt15__new_allocatorINSt8__detail10_Hash_nodeISt4pairIKNSt7__cxx1112basic_stringIcSt11char_traitsIcESaIcEEESt6vectorIS8_SaIS8_EEELb1EEEE8allocateEmPKv, symObjAddr: 0x45DC, symBinAddr: 0x100005C5C, symSize: 0x98 }
  - { offsetInCU: 0x26D37, offset: 0x26D37, size: 0x8, addend: 0x0, symName: __ZN9__gnu_cxx16__aligned_bufferISt4pairIKNSt7__cxx1112basic_stringIcSt11char_traitsIcESaIcEEESt6vectorIS7_SaIS7_EEEE7_M_addrEv, symObjAddr: 0x45C8, symBinAddr: 0x100005C48, symSize: 0x14 }
  - { offsetInCU: 0x26D60, offset: 0x26D60, size: 0x8, addend: 0x0, symName: __ZNKSt8__detail15_Hashtable_baseINSt7__cxx1112basic_stringIcSt11char_traitsIcESaIcEEESt4pairIKS6_St6vectorIS6_SaIS6_EEENS_10_Select1stESt8equal_toIS6_ESt4hashIS6_ENS_18_Mod_range_hashingENS_20_Default_ranged_hashENS_17_Hashtable_traitsILb1ELb0ELb1EEEE13_M_key_equalsERS8_RKNS_16_Hash_node_valueISC_Lb1EEE, symObjAddr: 0x455C, symBinAddr: 0x100005BDC, symSize: 0x6C }
  - { offsetInCU: 0x26DF0, offset: 0x26DF0, size: 0x8, addend: 0x0, symName: __ZNSt8__detail15_Hashtable_baseINSt7__cxx1112basic_stringIcSt11char_traitsIcESaIcEEESt4pairIKS6_St6vectorIS6_SaIS6_EEENS_10_Select1stESt8equal_toIS6_ESt4hashIS6_ENS_18_Mod_range_hashingENS_20_Default_ranged_hashENS_17_Hashtable_traitsILb1ELb0ELb1EEEE9_S_equalsEmRKNS_21_Hash_node_code_cacheILb1EEE, symObjAddr: 0x4530, symBinAddr: 0x100005BB0, symSize: 0x2C }
  - { offsetInCU: 0x26E2F, offset: 0x26E2F, size: 0x8, addend: 0x0, symName: __ZNK9__gnu_cxx16__aligned_membufISt4pairIKNSt7__cxx1112basic_stringIcSt11char_traitsIcESaIcEEEiEE6_M_ptrEv, symObjAddr: 0x4514, symBinAddr: 0x100005B94, symSize: 0x1C }
  - { offsetInCU: 0x26E63, offset: 0x26E63, size: 0x8, addend: 0x0, symName: __ZSt7forwardIRPSt13_Rb_tree_nodeISt4pairIKNSt7__cxx1112basic_stringIcSt11char_traitsIcESaIcEEEiEEEOT_RNSt16remove_referenceISD_E4typeE, symObjAddr: 0x4500, symBinAddr: 0x100005B80, symSize: 0x14 }
  - { offsetInCU: 0x26F15, offset: 0x26F15, size: 0x8, addend: 0x0, symName: __ZNSt15__new_allocatorISt13_Rb_tree_nodeISt4pairIiNSt7__cxx1112basic_stringIcSt11char_traitsIcESaIcEEEEEE10deallocateEPS9_m, symObjAddr: 0x44C4, symBinAddr: 0x100005B44, symSize: 0x3C }
  - { offsetInCU: 0x26F8B, offset: 0x26F8B, size: 0x8, addend: 0x0, symName: __ZN9__gnu_cxx16__aligned_membufISt4pairIiNSt7__cxx1112basic_stringIcSt11char_traitsIcESaIcEEEEE6_M_ptrEv, symObjAddr: 0x44A8, symBinAddr: 0x100005B28, symSize: 0x1C }
  - { offsetInCU: 0x26FB5, offset: 0x26FB5, size: 0x8, addend: 0x0, symName: __ZNSt15__new_allocatorISt13_Rb_tree_nodeISt4pairIKNSt7__cxx1112basic_stringIcSt11char_traitsIcESaIcEEEiEEE10deallocateEPSA_m, symObjAddr: 0x446C, symBinAddr: 0x100005AEC, symSize: 0x3C }
  - { offsetInCU: 0x27096, offset: 0x27096, size: 0x8, addend: 0x0, symName: __ZNSt4pairIKNSt7__cxx1112basic_stringIcSt11char_traitsIcESaIcEEEiED1Ev, symObjAddr: 0x444C, symBinAddr: 0x100005ACC, symSize: 0x20 }
  - { offsetInCU: 0x27079, offset: 0x27079, size: 0x8, addend: 0x0, symName: __ZNSt15__new_allocatorIPNSt8__detail15_Hash_node_baseEE10deallocateEPS2_m, symObjAddr: 0x441C, symBinAddr: 0x100005A9C, symSize: 0x30 }
  - { offsetInCU: 0x2711F, offset: 0x2711F, size: 0x8, addend: 0x0, symName: __ZNSt15__new_allocatorIPNSt8__detail15_Hash_node_baseEED2Ev, symObjAddr: 0x4408, symBinAddr: 0x100005A88, symSize: 0x14 }
  - { offsetInCU: 0x2711F, offset: 0x2711F, size: 0x8, addend: 0x0, symName: __ZSt9addressofIPNSt8__detail15_Hash_node_baseEEPT_RS3_, symObjAddr: 0x43EC, symBinAddr: 0x100005A6C, symSize: 0x1C }
  - { offsetInCU: 0x27151, offset: 0x27151, size: 0x8, addend: 0x0, symName: __ZNSt19__ptr_traits_ptr_toIPNSt8__detail10_Hash_nodeISt4pairIKNSt7__cxx1112basic_stringIcSt11char_traitsIcESaIcEEESt6vectorIS8_SaIS8_EEELb1EEESE_Lb0EE10pointer_toERSE_, symObjAddr: 0x43D0, symBinAddr: 0x100005A50, symSize: 0x1C }
  - { offsetInCU: 0x27229, offset: 0x27229, size: 0x8, addend: 0x0, symName: __ZNSt4pairIKNSt7__cxx1112basic_stringIcSt11char_traitsIcESaIcEEESt6vectorIS5_SaIS5_EEED1Ev, symObjAddr: 0x43A4, symBinAddr: 0x100005A24, symSize: 0x2C }
  - { offsetInCU: 0x271F8, offset: 0x271F8, size: 0x8, addend: 0x0, symName: __ZNSt8__detail21_Hashtable_ebo_helperILi0ESaINS_10_Hash_nodeISt4pairIKNSt7__cxx1112basic_stringIcSt11char_traitsIcESaIcEEESt6vectorIS8_SaIS8_EEELb1EEEELb1EE6_M_getEv, symObjAddr: 0x4390, symBinAddr: 0x100005A10, symSize: 0x14 }
  - { offsetInCU: 0x27222, offset: 0x27222, size: 0x8, addend: 0x0, symName: __ZNSt8_Rb_treeISt4pairIiNSt7__cxx1112basic_stringIcSt11char_traitsIcESaIcEEEES7_St9_IdentityIS7_ESt4lessIS7_ESaIS7_EE14_M_create_nodeIJS7_EEEPSt13_Rb_tree_nodeIS7_EDpOT_, symObjAddr: 0x4350, symBinAddr: 0x1000059D0, symSize: 0x40 }
  - { offsetInCU: 0x27282, offset: 0x27282, size: 0x8, addend: 0x0, symName: __ZSt7forwardIRPSt13_Rb_tree_nodeISt4pairIiNSt7__cxx1112basic_stringIcSt11char_traitsIcESaIcEEEEEEOT_RNSt16remove_referenceISC_E4typeE, symObjAddr: 0x433C, symBinAddr: 0x1000059BC, symSize: 0x14 }
  - { offsetInCU: 0x272B4, offset: 0x272B4, size: 0x8, addend: 0x0, symName: __ZStltIiNSt7__cxx1112basic_stringIcSt11char_traitsIcESaIcEEEEbRKSt4pairIT_T0_ESB_, symObjAddr: 0x42C0, symBinAddr: 0x100005940, symSize: 0x7C }
  - { offsetInCU: 0x27305, offset: 0x27305, size: 0x8, addend: 0x0, symName: __ZNKSt9_IdentityISt4pairIiNSt7__cxx1112basic_stringIcSt11char_traitsIcESaIcEEEEEclERKS7_, symObjAddr: 0x42A8, symBinAddr: 0x100005928, symSize: 0x18 }
  - { offsetInCU: 0x2733C, offset: 0x2733C, size: 0x8, addend: 0x0, symName: __ZSt14__relocate_a_1IPNSt7__cxx1112basic_stringIcSt11char_traitsIcESaIcEEES6_SaIS5_EET0_T_S9_S8_RT1_, symObjAddr: 0x4224, symBinAddr: 0x1000058A4, symSize: 0x84 }
  - { offsetInCU: 0x273C5, offset: 0x273C5, size: 0x8, addend: 0x0, symName: __ZSt12__niter_baseIPNSt7__cxx1112basic_stringIcSt11char_traitsIcESaIcEEEET_S7_, symObjAddr: 0x4210, symBinAddr: 0x100005890, symSize: 0x14 }
  - { offsetInCU: 0x273FC, offset: 0x273FC, size: 0x8, addend: 0x0, symName: __ZNSt15__new_allocatorINSt7__cxx1112basic_stringIcSt11char_traitsIcESaIcEEEE8allocateEmPKv, symObjAddr: 0x4194, symBinAddr: 0x100005814, symSize: 0x7C }
  - { offsetInCU: 0x27488, offset: 0x27488, size: 0x8, addend: 0x0, symName: __ZNKSt12_Vector_baseINSt7__cxx1112basic_stringIcSt11char_traitsIcESaIcEEESaIS5_EE19_M_get_Tp_allocatorEv, symObjAddr: 0x4180, symBinAddr: 0x100005800, symSize: 0x14 }
  - { offsetInCU: 0x274AE, offset: 0x274AE, size: 0x8, addend: 0x0, symName: __ZNSt6vectorINSt7__cxx1112basic_stringIcSt11char_traitsIcESaIcEEESaIS5_EE11_S_max_sizeERKS6_, symObjAddr: 0x412C, symBinAddr: 0x1000057AC, symSize: 0x54 }
  - { offsetInCU: 0x27627, offset: 0x27627, size: 0x8, addend: 0x0, symName: __ZNSt8__detail19_Node_iterator_baseISt4pairIKNSt7__cxx1112basic_stringIcSt11char_traitsIcESaIcEEESt6vectorIS7_SaIS7_EEELb1EEC2EPNS_10_Hash_nodeISC_Lb1EEE, symObjAddr: 0x4108, symBinAddr: 0x100005788, symSize: 0x24 }
  - { offsetInCU: 0x275C0, offset: 0x275C0, size: 0x8, addend: 0x0, symName: __ZNKSt8__detail15_Hash_code_baseINSt7__cxx1112basic_stringIcSt11char_traitsIcESaIcEEESt4pairIKS6_St6vectorIS6_SaIS6_EEENS_10_Select1stESt4hashIS6_ENS_18_Mod_range_hashingENS_20_Default_ranged_hashELb1EE15_M_bucket_indexERKNS_16_Hash_node_valueISC_Lb1EEEm, symObjAddr: 0x40D8, symBinAddr: 0x100005758, symSize: 0x30 }
  - { offsetInCU: 0x2760C, offset: 0x2760C, size: 0x8, addend: 0x0, symName: __ZNSt10_HashtableINSt7__cxx1112basic_stringIcSt11char_traitsIcESaIcEEESt4pairIKS5_St6vectorIS5_SaIS5_EEESaISB_ENSt8__detail10_Select1stESt8equal_toIS5_ESt4hashIS5_ENSD_18_Mod_range_hashingENSD_20_Default_ranged_hashENSD_20_Prime_rehash_policyENSD_17_Hashtable_traitsILb1ELb0ELb1EEEE19_M_allocate_bucketsEm, symObjAddr: 0x4080, symBinAddr: 0x100005700, symSize: 0x58 }
  - { offsetInCU: 0x27643, offset: 0x27643, size: 0x8, addend: 0x0, symName: __ZSt11__addressofINSt8__detail20_Prime_rehash_policyEEPT_RS2_, symObjAddr: 0x406C, symBinAddr: 0x1000056EC, symSize: 0x14 }
  - { offsetInCU: 0x276FF, offset: 0x276FF, size: 0x8, addend: 0x0, symName: __ZSt12__to_addressINSt8__detail10_Hash_nodeISt4pairIKNSt7__cxx1112basic_stringIcSt11char_traitsIcESaIcEEESt6vectorIS8_SaIS8_EEELb1EEEEPT_SG_, symObjAddr: 0x4058, symBinAddr: 0x1000056D8, symSize: 0x14 }
  - { offsetInCU: 0x27759, offset: 0x27759, size: 0x8, addend: 0x0, symName: __ZN9__gnu_cxx16__aligned_bufferISt4pairIKNSt7__cxx1112basic_stringIcSt11char_traitsIcESaIcEEESt6vectorIS7_SaIS7_EEEE6_M_ptrEv, symObjAddr: 0x403C, symBinAddr: 0x1000056BC, symSize: 0x1C }
  - { offsetInCU: 0x27783, offset: 0x27783, size: 0x8, addend: 0x0, symName: __ZNKSt10_HashtableINSt7__cxx1112basic_stringIcSt11char_traitsIcESaIcEEESt4pairIKS5_St6vectorIS5_SaIS5_EEESaISB_ENSt8__detail10_Select1stESt8equal_toIS5_ESt4hashIS5_ENSD_18_Mod_range_hashingENSD_20_Default_ranged_hashENSD_20_Prime_rehash_policyENSD_17_Hashtable_traitsILb1ELb0ELb1EEEE15_M_bucket_indexERKNSD_16_Hash_node_valueISB_Lb1EEE, symObjAddr: 0x400C, symBinAddr: 0x10000568C, symSize: 0x30 }
  - { offsetInCU: 0x277BE, offset: 0x277BE, size: 0x8, addend: 0x0, symName: __ZNKSt8__detail15_Hashtable_baseINSt7__cxx1112basic_stringIcSt11char_traitsIcESaIcEEESt4pairIKS6_St6vectorIS6_SaIS6_EEENS_10_Select1stESt8equal_toIS6_ESt4hashIS6_ENS_18_Mod_range_hashingENS_20_Default_ranged_hashENS_17_Hashtable_traitsILb1ELb0ELb1EEEE9_M_equalsERS8_mRKNS_16_Hash_node_valueISC_Lb1EEE, symObjAddr: 0x3FA4, symBinAddr: 0x100005624, symSize: 0x68 }
  - { offsetInCU: 0x2781B, offset: 0x2781B, size: 0x8, addend: 0x0, symName: __ZNKSt8__detail21_Hashtable_ebo_helperILi1ESt4hashINSt7__cxx1112basic_stringIcSt11char_traitsIcESaIcEEEELb1EE7_M_cgetEv, symObjAddr: 0x3F90, symBinAddr: 0x100005610, symSize: 0x14 }
  - { offsetInCU: 0x27845, offset: 0x27845, size: 0x8, addend: 0x0, symName: __ZNKSt10_Select1stISt4pairIKNSt7__cxx1112basic_stringIcSt11char_traitsIcESaIcEEEiEEclERKS8_, symObjAddr: 0x3F78, symBinAddr: 0x1000055F8, symSize: 0x18 }
  - { offsetInCU: 0x27880, offset: 0x27880, size: 0x8, addend: 0x0, symName: __ZNKSt13_Rb_tree_nodeISt4pairIKNSt7__cxx1112basic_stringIcSt11char_traitsIcESaIcEEEiEE9_M_valptrEv, symObjAddr: 0x3F58, symBinAddr: 0x1000055D8, symSize: 0x20 }
  - { offsetInCU: 0x278AD, offset: 0x278AD, size: 0x8, addend: 0x0, symName: __ZSt7forwardIRPSt18_Rb_tree_node_baseEOT_RNSt16remove_referenceIS3_E4typeE, symObjAddr: 0x3F44, symBinAddr: 0x1000055C4, symSize: 0x14 }
  - { offsetInCU: 0x279B1, offset: 0x279B1, size: 0x8, addend: 0x0, symName: __ZNSt4pairIPSt18_Rb_tree_node_baseS1_EC1IRPSt13_Rb_tree_nodeIS_IKNSt7__cxx1112basic_stringIcSt11char_traitsIcESaIcEEEiEERS1_Lb1EEEOT_OT0_, symObjAddr: 0x3EFC, symBinAddr: 0x10000557C, symSize: 0x48 }
  - { offsetInCU: 0x27975, offset: 0x27975, size: 0x8, addend: 0x0, symName: __ZNSt8_Rb_treeINSt7__cxx1112basic_stringIcSt11char_traitsIcESaIcEEESt4pairIKS5_iESt10_Select1stIS8_ESt4lessIS5_ESaIS8_EE5beginEv, symObjAddr: 0x3ED4, symBinAddr: 0x100005554, symSize: 0x28 }
  - { offsetInCU: 0x2799F, offset: 0x2799F, size: 0x8, addend: 0x0, symName: __ZNSt8_Rb_treeINSt7__cxx1112basic_stringIcSt11char_traitsIcESaIcEEESt4pairIKS5_iESt10_Select1stIS8_ESt4lessIS5_ESaIS8_EE17_M_construct_nodeIJRKSt21piecewise_construct_tSt5tupleIJRS7_EESJ_IJEEEEEvPSt13_Rb_tree_nodeIS8_EDpOT_, symObjAddr: 0x3D58, symBinAddr: 0x1000053D8, symSize: 0x17C }
  - { offsetInCU: 0x27AA0, offset: 0x27AA0, size: 0x8, addend: 0x0, symName: __ZNSt8_Rb_treeINSt7__cxx1112basic_stringIcSt11char_traitsIcESaIcEEESt4pairIKS5_iESt10_Select1stIS8_ESt4lessIS5_ESaIS8_EE11_M_get_nodeEv, symObjAddr: 0x3D1C, symBinAddr: 0x10000539C, symSize: 0x3C }
  - { offsetInCU: 0x27AFC, offset: 0x27AFC, size: 0x8, addend: 0x0, symName: __ZN9__gnu_cxx16__aligned_membufISt4pairIKNSt7__cxx1112basic_stringIcSt11char_traitsIcESaIcEEEiEE7_M_addrEv, symObjAddr: 0x3D08, symBinAddr: 0x100005388, symSize: 0x14 }
  - { offsetInCU: 0x27B84, offset: 0x27B84, size: 0x8, addend: 0x0, symName: __ZNSt13_Rb_tree_nodeISt4pairIiNSt7__cxx1112basic_stringIcSt11char_traitsIcESaIcEEEEE9_M_valptrEv, symObjAddr: 0x3CE8, symBinAddr: 0x100005368, symSize: 0x20 }
  - { offsetInCU: 0x27BAE, offset: 0x27BAE, size: 0x8, addend: 0x0, symName: __ZNSt8_Rb_treeISt4pairIiNSt7__cxx1112basic_stringIcSt11char_traitsIcESaIcEEEES7_St9_IdentityIS7_ESt4lessIS7_ESaIS7_EE21_M_get_Node_allocatorEv, symObjAddr: 0x3CD4, symBinAddr: 0x100005354, symSize: 0x14 }
  - { offsetInCU: 0x27C37, offset: 0x27C37, size: 0x8, addend: 0x0, symName: __ZNSt8_Rb_treeINSt7__cxx1112basic_stringIcSt11char_traitsIcESaIcEEESt4pairIKS5_iESt10_Select1stIS8_ESt4lessIS5_ESaIS8_EE21_M_get_Node_allocatorEv, symObjAddr: 0x3CC0, symBinAddr: 0x100005340, symSize: 0x14 }
  - { offsetInCU: 0x27CD3, offset: 0x27CD3, size: 0x8, addend: 0x0, symName: __ZNSt19__ptr_traits_ptr_toIPPNSt8__detail15_Hash_node_baseES2_Lb0EE10pointer_toERS2_, symObjAddr: 0x3CA4, symBinAddr: 0x100005324, symSize: 0x1C }
  - { offsetInCU: 0x27D00, offset: 0x27D00, size: 0x8, addend: 0x0, symName: __ZNSt8__detail16_Hashtable_allocISaINS_10_Hash_nodeISt4pairIKNSt7__cxx1112basic_stringIcSt11char_traitsIcESaIcEEESt6vectorIS8_SaIS8_EEELb1EEEEE22_M_deallocate_node_ptrEPSE_, symObjAddr: 0x3C4C, symBinAddr: 0x1000052CC, symSize: 0x58 }
  - { offsetInCU: 0x27DAF, offset: 0x27DAF, size: 0x8, addend: 0x0, symName: __ZNSt8__detail16_Hashtable_allocISaINS_10_Hash_nodeISt4pairIKNSt7__cxx1112basic_stringIcSt11char_traitsIcESaIcEEESt6vectorIS8_SaIS8_EEELb1EEEEE17_M_node_allocatorEv, symObjAddr: 0x3C30, symBinAddr: 0x1000052B0, symSize: 0x1C }
  - { offsetInCU: 0x27DDE, offset: 0x27DDE, size: 0x8, addend: 0x0, symName: __ZNK9__gnu_cxx16__aligned_membufISt4pairIiNSt7__cxx1112basic_stringIcSt11char_traitsIcESaIcEEEEE7_M_addrEv, symObjAddr: 0x3C1C, symBinAddr: 0x10000529C, symSize: 0x14 }
  - { offsetInCU: 0x27E0A, offset: 0x27E0A, size: 0x8, addend: 0x0, symName: __ZSt7forwardISt17_Rb_tree_iteratorISt4pairIiNSt7__cxx1112basic_stringIcSt11char_traitsIcESaIcEEEEEEOT_RNSt16remove_referenceISA_E4typeE, symObjAddr: 0x3C08, symBinAddr: 0x100005288, symSize: 0x14 }
  - { offsetInCU: 0x27E4B, offset: 0x27E4B, size: 0x8, addend: 0x0, symName: __ZNKSt8_Rb_treeISt4pairIiNSt7__cxx1112basic_stringIcSt11char_traitsIcESaIcEEEES7_St9_IdentityIS7_ESt4lessIS7_ESaIS7_EE11_Alloc_nodeclIS7_EEPSt13_Rb_tree_nodeIS7_EOT_, symObjAddr: 0x3BCC, symBinAddr: 0x10000524C, symSize: 0x3C }
  - { offsetInCU: 0x27E8B, offset: 0x27E8B, size: 0x8, addend: 0x0, symName: __ZNSt8_Rb_treeISt4pairIiNSt7__cxx1112basic_stringIcSt11char_traitsIcESaIcEEEES7_St9_IdentityIS7_ESt4lessIS7_ESaIS7_EE6_S_keyEPKSt18_Rb_tree_node_base, symObjAddr: 0x3BB0, symBinAddr: 0x100005230, symSize: 0x1C }
  - { offsetInCU: 0x27EB9, offset: 0x27EB9, size: 0x8, addend: 0x0, symName: __ZNSt17_Rb_tree_iteratorISt4pairIiNSt7__cxx1112basic_stringIcSt11char_traitsIcESaIcEEEEEmmEv, symObjAddr: 0x3B80, symBinAddr: 0x100005200, symSize: 0x30 }
  - { offsetInCU: 0x27FB0, offset: 0x27FB0, size: 0x8, addend: 0x0, symName: __ZNSt4pairIPSt18_Rb_tree_node_baseS1_EC1IRPSt13_Rb_tree_nodeIS_IiNSt7__cxx1112basic_stringIcSt11char_traitsIcESaIcEEEEERS1_Lb1EEEOT_OT0_, symObjAddr: 0x3B38, symBinAddr: 0x1000051B8, symSize: 0x48 }
  - { offsetInCU: 0x27F78, offset: 0x27F78, size: 0x8, addend: 0x0, symName: __ZSteqRKSt17_Rb_tree_iteratorISt4pairIiNSt7__cxx1112basic_stringIcSt11char_traitsIcESaIcEEEEESA_, symObjAddr: 0x3B08, symBinAddr: 0x100005188, symSize: 0x30 }
  - { offsetInCU: 0x27FB7, offset: 0x27FB7, size: 0x8, addend: 0x0, symName: __ZNSt8_Rb_treeISt4pairIiNSt7__cxx1112basic_stringIcSt11char_traitsIcESaIcEEEES7_St9_IdentityIS7_ESt4lessIS7_ESaIS7_EE5beginEv, symObjAddr: 0x3AE0, symBinAddr: 0x100005160, symSize: 0x28 }
  - { offsetInCU: 0x27FE1, offset: 0x27FE1, size: 0x8, addend: 0x0, symName: __ZNKSt4lessISt4pairIiNSt7__cxx1112basic_stringIcSt11char_traitsIcESaIcEEEEEclERKS7_SA_, symObjAddr: 0x3AB8, symBinAddr: 0x100005138, symSize: 0x28 }
  - { offsetInCU: 0x28029, offset: 0x28029, size: 0x8, addend: 0x0, symName: __ZNSt8_Rb_treeISt4pairIiNSt7__cxx1112basic_stringIcSt11char_traitsIcESaIcEEEES7_St9_IdentityIS7_ESt4lessIS7_ESaIS7_EE6_S_keyEPKSt13_Rb_tree_nodeIS7_E, symObjAddr: 0x3A90, symBinAddr: 0x100005110, symSize: 0x28 }
  - { offsetInCU: 0x28057, offset: 0x28057, size: 0x8, addend: 0x0, symName: __ZNSt8_Rb_treeISt4pairIiNSt7__cxx1112basic_stringIcSt11char_traitsIcESaIcEEEES7_St9_IdentityIS7_ESt4lessIS7_ESaIS7_EE6_M_endEv, symObjAddr: 0x3A78, symBinAddr: 0x1000050F8, symSize: 0x18 }
  - { offsetInCU: 0x2807D, offset: 0x2807D, size: 0x8, addend: 0x0, symName: __ZSt12__relocate_aIPNSt7__cxx1112basic_stringIcSt11char_traitsIcESaIcEEES6_SaIS5_EET0_T_S9_S8_RT1_, symObjAddr: 0x3A1C, symBinAddr: 0x10000509C, symSize: 0x5C }
  - { offsetInCU: 0x280F9, offset: 0x280F9, size: 0x8, addend: 0x0, symName: __ZNSt15__new_allocatorINSt7__cxx1112basic_stringIcSt11char_traitsIcESaIcEEEE10deallocateEPS5_m, symObjAddr: 0x39EC, symBinAddr: 0x10000506C, symSize: 0x30 }
  - { offsetInCU: 0x28167, offset: 0x28167, size: 0x8, addend: 0x0, symName: __ZNKSt6vectorINSt7__cxx1112basic_stringIcSt11char_traitsIcESaIcEEESaIS5_EE4sizeEv, symObjAddr: 0x39C4, symBinAddr: 0x100005044, symSize: 0x28 }
  - { offsetInCU: 0x28191, offset: 0x28191, size: 0x8, addend: 0x0, symName: __ZNKSt6vectorINSt7__cxx1112basic_stringIcSt11char_traitsIcESaIcEEESaIS5_EE8max_sizeEv, symObjAddr: 0x39A4, symBinAddr: 0x100005024, symSize: 0x20 }
  - { offsetInCU: 0x28278, offset: 0x28278, size: 0x8, addend: 0x0, symName: __ZNSt8__detail14_Node_iteratorISt4pairIKNSt7__cxx1112basic_stringIcSt11char_traitsIcESaIcEEESt6vectorIS7_SaIS7_EEELb0ELb1EEC1EPNS_10_Hash_nodeISC_Lb1EEE, symObjAddr: 0x397C, symBinAddr: 0x100004FFC, symSize: 0x28 }
  - { offsetInCU: 0x28212, offset: 0x28212, size: 0x8, addend: 0x0, symName: __ZNSt10_HashtableINSt7__cxx1112basic_stringIcSt11char_traitsIcESaIcEEESt4pairIKS5_St6vectorIS5_SaIS5_EEESaISB_ENSt8__detail10_Select1stESt8equal_toIS5_ESt4hashIS5_ENSD_18_Mod_range_hashingENSD_20_Default_ranged_hashENSD_20_Prime_rehash_policyENSD_17_Hashtable_traitsILb1ELb0ELb1EEEE22_M_insert_bucket_beginEmPNSD_10_Hash_nodeISB_Lb1EEE, symObjAddr: 0x3870, symBinAddr: 0x100004EF0, symSize: 0x10C }
  - { offsetInCU: 0x2825E, offset: 0x2825E, size: 0x8, addend: 0x0, symName: __ZNKSt8__detail15_Hash_code_baseINSt7__cxx1112basic_stringIcSt11char_traitsIcESaIcEEESt4pairIKS6_St6vectorIS6_SaIS6_EEENS_10_Select1stESt4hashIS6_ENS_18_Mod_range_hashingENS_20_Default_ranged_hashELb1EE13_M_store_codeERNS_21_Hash_node_code_cacheILb1EEEm, symObjAddr: 0x3848, symBinAddr: 0x100004EC8, symSize: 0x28 }
  - { offsetInCU: 0x282AA, offset: 0x282AA, size: 0x8, addend: 0x0, symName: __ZNSt10_HashtableINSt7__cxx1112basic_stringIcSt11char_traitsIcESaIcEEESt4pairIKS5_St6vectorIS5_SaIS5_EEESaISB_ENSt8__detail10_Select1stESt8equal_toIS5_ESt4hashIS5_ENSD_18_Mod_range_hashingENSD_20_Default_ranged_hashENSD_20_Prime_rehash_policyENSD_17_Hashtable_traitsILb1ELb0ELb1EEEE9_M_rehashEmSt17integral_constantIbLb1EE, symObjAddr: 0x36DC, symBinAddr: 0x100004D5C, symSize: 0x16C }
  - { offsetInCU: 0x283B9, offset: 0x283B9, size: 0x8, addend: 0x0, symName: __ZNSt8__detail17_RehashStateGuardINS_20_Prime_rehash_policyEED1Ev, symObjAddr: 0x3698, symBinAddr: 0x100004D18, symSize: 0x44 }
  - { offsetInCU: 0x2840A, offset: 0x2840A, size: 0x8, addend: 0x0, symName: __ZNSt8__detail17_RehashStateGuardINS_20_Prime_rehash_policyEEC1ERS1_, symObjAddr: 0x3654, symBinAddr: 0x100004CD4, symSize: 0x44 }
  - { offsetInCU: 0x283F8, offset: 0x283F8, size: 0x8, addend: 0x0, symName: __ZNSt8__detail16_Hashtable_allocISaINS_10_Hash_nodeISt4pairIKNSt7__cxx1112basic_stringIcSt11char_traitsIcESaIcEEESt6vectorIS8_SaIS8_EEELb1EEEEE16_M_allocate_nodeIJRKSt21piecewise_construct_tSt5tupleIJRS9_EESL_IJEEEEEPSE_DpOT_, symObjAddr: 0x3468, symBinAddr: 0x100004AE8, symSize: 0x1EC }
  - { offsetInCU: 0x2863C, offset: 0x2863C, size: 0x8, addend: 0x0, symName: __ZNSt8__detail10_Hash_nodeISt4pairIKNSt7__cxx1112basic_stringIcSt11char_traitsIcESaIcEEESt6vectorIS7_SaIS7_EEELb1EEC1Ev, symObjAddr: 0x3448, symBinAddr: 0x100004AC8, symSize: 0x20 }
  - { offsetInCU: 0x28604, offset: 0x28604, size: 0x8, addend: 0x0, symName: __ZNKSt10_HashtableINSt7__cxx1112basic_stringIcSt11char_traitsIcESaIcEEESt4pairIKS5_St6vectorIS5_SaIS5_EEESaISB_ENSt8__detail10_Select1stESt8equal_toIS5_ESt4hashIS5_ENSD_18_Mod_range_hashingENSD_20_Default_ranged_hashENSD_20_Prime_rehash_policyENSD_17_Hashtable_traitsILb1ELb0ELb1EEEE19_M_find_before_nodeEmRS7_m, symObjAddr: 0x334C, symBinAddr: 0x1000049CC, symSize: 0xFC }
  - { offsetInCU: 0x28696, offset: 0x28696, size: 0x8, addend: 0x0, symName: __ZNKSt8__detail15_Hash_code_baseINSt7__cxx1112basic_stringIcSt11char_traitsIcESaIcEEESt4pairIKS6_St6vectorIS6_SaIS6_EEENS_10_Select1stESt4hashIS6_ENS_18_Mod_range_hashingENS_20_Default_ranged_hashELb1EE15_M_bucket_indexEmm, symObjAddr: 0x3320, symBinAddr: 0x1000049A0, symSize: 0x2C }
  - { offsetInCU: 0x286E2, offset: 0x286E2, size: 0x8, addend: 0x0, symName: __ZNKSt15__str_hash_baseIcSaIcENSt7__cxx1112basic_stringIcSt11char_traitsIcES0_EEEclERKS5_, symObjAddr: 0x32D8, symBinAddr: 0x100004958, symSize: 0x48 }
  - { offsetInCU: 0x2871D, offset: 0x2871D, size: 0x8, addend: 0x0, symName: __ZNKSt8__detail15_Hash_code_baseINSt7__cxx1112basic_stringIcSt11char_traitsIcESaIcEEESt4pairIKS6_St6vectorIS6_SaIS6_EEENS_10_Select1stESt4hashIS6_ENS_18_Mod_range_hashingENS_20_Default_ranged_hashELb1EE7_M_hashEv, symObjAddr: 0x32BC, symBinAddr: 0x10000493C, symSize: 0x1C }
  - { offsetInCU: 0x28747, offset: 0x28747, size: 0x8, addend: 0x0, symName: __ZNSt8_Rb_treeINSt7__cxx1112basic_stringIcSt11char_traitsIcESaIcEEESt4pairIKS5_iESt10_Select1stIS8_ESt4lessIS5_ESaIS8_EE14_M_insert_nodeEPSt18_Rb_tree_node_baseSG_PSt13_Rb_tree_nodeIS8_E, symObjAddr: 0x31EC, symBinAddr: 0x10000486C, symSize: 0xD0 }
  - { offsetInCU: 0x287B1, offset: 0x287B1, size: 0x8, addend: 0x0, symName: __ZNSt8_Rb_treeINSt7__cxx1112basic_stringIcSt11char_traitsIcESaIcEEESt4pairIKS5_iESt10_Select1stIS8_ESt4lessIS5_ESaIS8_EE6_S_keyEPKSt13_Rb_tree_nodeIS8_E, symObjAddr: 0x31C4, symBinAddr: 0x100004844, symSize: 0x28 }
  - { offsetInCU: 0x287DF, offset: 0x287DF, size: 0x8, addend: 0x0, symName: __ZNSt17_Rb_tree_iteratorISt4pairIKNSt7__cxx1112basic_stringIcSt11char_traitsIcESaIcEEEiEEppEv, symObjAddr: 0x3194, symBinAddr: 0x100004814, symSize: 0x30 }
  - { offsetInCU: 0x28809, offset: 0x28809, size: 0x8, addend: 0x0, symName: __ZNSt17_Rb_tree_iteratorISt4pairIKNSt7__cxx1112basic_stringIcSt11char_traitsIcESaIcEEEiEEmmEv, symObjAddr: 0x3164, symBinAddr: 0x1000047E4, symSize: 0x30 }
  - { offsetInCU: 0x288B5, offset: 0x288B5, size: 0x8, addend: 0x0, symName: __ZNSt4pairIPSt18_Rb_tree_node_baseS1_EC1IRS1_S4_Lb1EEEOT_OT0_, symObjAddr: 0x311C, symBinAddr: 0x10000479C, symSize: 0x48 }
  - { offsetInCU: 0x288C5, offset: 0x288C5, size: 0x8, addend: 0x0, symName: __ZNSt8_Rb_treeINSt7__cxx1112basic_stringIcSt11char_traitsIcESaIcEEESt4pairIKS5_iESt10_Select1stIS8_ESt4lessIS5_ESaIS8_EE11_M_leftmostEv, symObjAddr: 0x3104, symBinAddr: 0x100004784, symSize: 0x18 }
  - { offsetInCU: 0x288EF, offset: 0x288EF, size: 0x8, addend: 0x0, symName: __ZNSt8_Rb_treeINSt7__cxx1112basic_stringIcSt11char_traitsIcESaIcEEESt4pairIKS5_iESt10_Select1stIS8_ESt4lessIS5_ESaIS8_EE24_M_get_insert_unique_posERS7_, symObjAddr: 0x2FAC, symBinAddr: 0x10000462C, symSize: 0x158 }
  - { offsetInCU: 0x289F5, offset: 0x289F5, size: 0x8, addend: 0x0, symName: __ZNSt4pairIPSt18_Rb_tree_node_baseS1_EC1IS1_S1_Lb1EEERKS1_S5_, symObjAddr: 0x2F70, symBinAddr: 0x1000045F0, symSize: 0x3C }
  - { offsetInCU: 0x28A01, offset: 0x28A01, size: 0x8, addend: 0x0, symName: __ZNSt8_Rb_treeINSt7__cxx1112basic_stringIcSt11char_traitsIcESaIcEEESt4pairIKS5_iESt10_Select1stIS8_ESt4lessIS5_ESaIS8_EE6_S_keyEPKSt18_Rb_tree_node_base, symObjAddr: 0x2F54, symBinAddr: 0x1000045D4, symSize: 0x1C }
  - { offsetInCU: 0x28A2F, offset: 0x28A2F, size: 0x8, addend: 0x0, symName: __ZNSt8_Rb_treeINSt7__cxx1112basic_stringIcSt11char_traitsIcESaIcEEESt4pairIKS5_iESt10_Select1stIS8_ESt4lessIS5_ESaIS8_EE12_M_rightmostEv, symObjAddr: 0x2F3C, symBinAddr: 0x1000045BC, symSize: 0x18 }
  - { offsetInCU: 0x28A59, offset: 0x28A59, size: 0x8, addend: 0x0, symName: __ZNKSt8_Rb_treeINSt7__cxx1112basic_stringIcSt11char_traitsIcESaIcEEESt4pairIKS5_iESt10_Select1stIS8_ESt4lessIS5_ESaIS8_EE4sizeEv, symObjAddr: 0x2F24, symBinAddr: 0x1000045A4, symSize: 0x18 }
  - { offsetInCU: 0x28A83, offset: 0x28A83, size: 0x8, addend: 0x0, symName: __ZNKSt23_Rb_tree_const_iteratorISt4pairIKNSt7__cxx1112basic_stringIcSt11char_traitsIcESaIcEEEiEE13_M_const_castEv, symObjAddr: 0x2EFC, symBinAddr: 0x10000457C, symSize: 0x28 }
  - { offsetInCU: 0x28AAD, offset: 0x28AAD, size: 0x8, addend: 0x0, symName: __ZNSt8_Rb_treeINSt7__cxx1112basic_stringIcSt11char_traitsIcESaIcEEESt4pairIKS5_iESt10_Select1stIS8_ESt4lessIS5_ESaIS8_EE14_M_create_nodeIJRKSt21piecewise_construct_tSt5tupleIJRS7_EESJ_IJEEEEEPSt13_Rb_tree_nodeIS8_EDpOT_, symObjAddr: 0x2E8C, symBinAddr: 0x10000450C, symSize: 0x70 }
  - { offsetInCU: 0x28B9A, offset: 0x28B9A, size: 0x8, addend: 0x0, symName: __ZNSt10_Head_baseILm0ERKNSt7__cxx1112basic_stringIcSt11char_traitsIcESaIcEEELb0EEC2ES7_, symObjAddr: 0x2E68, symBinAddr: 0x1000044E8, symSize: 0x24 }
  - { offsetInCU: 0x28B75, offset: 0x28B75, size: 0x8, addend: 0x0, symName: __ZN9__gnu_cxx16__aligned_membufISt4pairIKNSt7__cxx1112basic_stringIcSt11char_traitsIcESaIcEEEiEE6_M_ptrEv, symObjAddr: 0x2E4C, symBinAddr: 0x1000044CC, symSize: 0x1C }
  - { offsetInCU: 0x28B9F, offset: 0x28B9F, size: 0x8, addend: 0x0, symName: __ZNSt8_Rb_treeINSt7__cxx1112basic_stringIcSt11char_traitsIcESaIcEEESt4pairIKS5_iESt10_Select1stIS8_ESt4lessIS5_ESaIS8_EE14_M_lower_boundEPSt13_Rb_tree_nodeIS8_EPSt18_Rb_tree_node_baseRS7_, symObjAddr: 0x2DB0, symBinAddr: 0x100004430, symSize: 0x9C }
  - { offsetInCU: 0x28BFC, offset: 0x28BFC, size: 0x8, addend: 0x0, symName: __ZNSt8_Rb_treeINSt7__cxx1112basic_stringIcSt11char_traitsIcESaIcEEESt4pairIKS5_iESt10_Select1stIS8_ESt4lessIS5_ESaIS8_EE6_M_endEv, symObjAddr: 0x2D98, symBinAddr: 0x100004418, symSize: 0x18 }
  - { offsetInCU: 0x28C26, offset: 0x28C26, size: 0x8, addend: 0x0, symName: __ZNSt8_Rb_treeISt4pairIiNSt7__cxx1112basic_stringIcSt11char_traitsIcESaIcEEEES7_St9_IdentityIS7_ESt4lessIS7_ESaIS7_EE11_M_put_nodeEPSt13_Rb_tree_nodeIS7_E, symObjAddr: 0x2D4C, symBinAddr: 0x1000043CC, symSize: 0x4C }
  - { offsetInCU: 0x28C97, offset: 0x28C97, size: 0x8, addend: 0x0, symName: __ZNSt8_Rb_treeISt4pairIiNSt7__cxx1112basic_stringIcSt11char_traitsIcESaIcEEEES7_St9_IdentityIS7_ESt4lessIS7_ESaIS7_EE15_M_destroy_nodeEPSt13_Rb_tree_nodeIS7_E, symObjAddr: 0x2CEC, symBinAddr: 0x10000436C, symSize: 0x60 }
  - { offsetInCU: 0x28D2C, offset: 0x28D2C, size: 0x8, addend: 0x0, symName: __ZNSt8_Rb_treeINSt7__cxx1112basic_stringIcSt11char_traitsIcESaIcEEESt4pairIKS5_iESt10_Select1stIS8_ESt4lessIS5_ESaIS8_EE11_M_put_nodeEPSt13_Rb_tree_nodeIS8_E, symObjAddr: 0x2CA0, symBinAddr: 0x100004320, symSize: 0x4C }
  - { offsetInCU: 0x28D9D, offset: 0x28D9D, size: 0x8, addend: 0x0, symName: __ZNSt8_Rb_treeINSt7__cxx1112basic_stringIcSt11char_traitsIcESaIcEEESt4pairIKS5_iESt10_Select1stIS8_ESt4lessIS5_ESaIS8_EE15_M_destroy_nodeEPSt13_Rb_tree_nodeIS8_E, symObjAddr: 0x2C40, symBinAddr: 0x1000042C0, symSize: 0x60 }
  - { offsetInCU: 0x28E32, offset: 0x28E32, size: 0x8, addend: 0x0, symName: __ZNSt8__detail16_Hashtable_allocISaINS_10_Hash_nodeISt4pairIKNSt7__cxx1112basic_stringIcSt11char_traitsIcESaIcEEESt6vectorIS8_SaIS8_EEELb1EEEEE21_M_deallocate_bucketsEPPNS_15_Hash_node_baseEm, symObjAddr: 0x2BC8, symBinAddr: 0x100004248, symSize: 0x78 }
  - { offsetInCU: 0x28F42, offset: 0x28F42, size: 0x8, addend: 0x0, symName: __ZNKSt10_HashtableINSt7__cxx1112basic_stringIcSt11char_traitsIcESaIcEEESt4pairIKS5_St6vectorIS5_SaIS5_EEESaISB_ENSt8__detail10_Select1stESt8equal_toIS5_ESt4hashIS5_ENSD_18_Mod_range_hashingENSD_20_Default_ranged_hashENSD_20_Prime_rehash_policyENSD_17_Hashtable_traitsILb1ELb0ELb1EEEE21_M_uses_single_bucketEPPNSD_15_Hash_node_baseE, symObjAddr: 0x2B8C, symBinAddr: 0x10000420C, symSize: 0x3C }
  - { offsetInCU: 0x28F7D, offset: 0x28F7D, size: 0x8, addend: 0x0, symName: __ZNSt8__detail16_Hashtable_allocISaINS_10_Hash_nodeISt4pairIKNSt7__cxx1112basic_stringIcSt11char_traitsIcESaIcEEESt6vectorIS8_SaIS8_EEELb1EEEEE18_M_deallocate_nodeEPSE_, symObjAddr: 0x2B10, symBinAddr: 0x100004190, symSize: 0x7C }
  - { offsetInCU: 0x29036, offset: 0x29036, size: 0x8, addend: 0x0, symName: __ZNKSt8__detail10_Hash_nodeISt4pairIKNSt7__cxx1112basic_stringIcSt11char_traitsIcESaIcEEESt6vectorIS7_SaIS7_EEELb1EE7_M_nextEv, symObjAddr: 0x2AF8, symBinAddr: 0x100004178, symSize: 0x18 }
  - { offsetInCU: 0x29060, offset: 0x29060, size: 0x8, addend: 0x0, symName: __ZNK9__gnu_cxx16__aligned_membufISt4pairIiNSt7__cxx1112basic_stringIcSt11char_traitsIcESaIcEEEEE6_M_ptrEv, symObjAddr: 0x2ADC, symBinAddr: 0x10000415C, symSize: 0x1C }
  - { offsetInCU: 0x29128, offset: 0x29128, size: 0x8, addend: 0x0, symName: __ZNSt23_Rb_tree_const_iteratorISt4pairIiNSt7__cxx1112basic_stringIcSt11char_traitsIcESaIcEEEEEC1EPKSt18_Rb_tree_node_base, symObjAddr: 0x2AB8, symBinAddr: 0x100004138, symSize: 0x24 }
  - { offsetInCU: 0x29183, offset: 0x29183, size: 0x8, addend: 0x0, symName: __ZNSt23_Rb_tree_const_iteratorISt4pairIiNSt7__cxx1112basic_stringIcSt11char_traitsIcESaIcEEEEEC1ERKSt17_Rb_tree_iteratorIS7_E, symObjAddr: 0x2A90, symBinAddr: 0x100004110, symSize: 0x28 }
  - { offsetInCU: 0x2913B, offset: 0x2913B, size: 0x8, addend: 0x0, symName: __ZSt7forwardIRbEOT_RNSt16remove_referenceIS1_E4typeE, symObjAddr: 0x2A7C, symBinAddr: 0x1000040FC, symSize: 0x14 }
  - { offsetInCU: 0x29174, offset: 0x29174, size: 0x8, addend: 0x0, symName: __ZSt7forwardIRSt17_Rb_tree_iteratorISt4pairIiNSt7__cxx1112basic_stringIcSt11char_traitsIcESaIcEEEEEEOT_RNSt16remove_referenceISB_E4typeE, symObjAddr: 0x2A68, symBinAddr: 0x1000040E8, symSize: 0x14 }
  - { offsetInCU: 0x29241, offset: 0x29241, size: 0x8, addend: 0x0, symName: __ZNSt17_Rb_tree_iteratorISt4pairIiNSt7__cxx1112basic_stringIcSt11char_traitsIcESaIcEEEEEC1EPSt18_Rb_tree_node_base, symObjAddr: 0x2A44, symBinAddr: 0x1000040C4, symSize: 0x24 }
  - { offsetInCU: 0x292B7, offset: 0x292B7, size: 0x8, addend: 0x0, symName: __ZNSt4pairISt17_Rb_tree_iteratorIS_IiNSt7__cxx1112basic_stringIcSt11char_traitsIcESaIcEEEEEbEC1IS8_bLb1EEEOT_OT0_, symObjAddr: 0x29F8, symBinAddr: 0x100004078, symSize: 0x4C }
  - { offsetInCU: 0x2929A, offset: 0x2929A, size: 0x8, addend: 0x0, symName: __ZNSt8_Rb_treeISt4pairIiNSt7__cxx1112basic_stringIcSt11char_traitsIcESaIcEEEES7_St9_IdentityIS7_ESt4lessIS7_ESaIS7_EE10_M_insert_IS7_NSD_11_Alloc_nodeEEESt17_Rb_tree_iteratorIS7_EPSt18_Rb_tree_node_baseSJ_OT_RT0_, symObjAddr: 0x2908, symBinAddr: 0x100003F88, symSize: 0xF0 }
  - { offsetInCU: 0x29340, offset: 0x29340, size: 0x8, addend: 0x0, symName: __ZSt7forwardISt4pairIiNSt7__cxx1112basic_stringIcSt11char_traitsIcESaIcEEEEEOT_RNSt16remove_referenceIS8_E4typeE, symObjAddr: 0x28F4, symBinAddr: 0x100003F74, symSize: 0x14 }
  - { offsetInCU: 0x29424, offset: 0x29424, size: 0x8, addend: 0x0, symName: __ZNSt8_Rb_treeISt4pairIiNSt7__cxx1112basic_stringIcSt11char_traitsIcESaIcEEEES7_St9_IdentityIS7_ESt4lessIS7_ESaIS7_EE11_Alloc_nodeC1ERSD_, symObjAddr: 0x28D0, symBinAddr: 0x100003F50, symSize: 0x24 }
  - { offsetInCU: 0x293CD, offset: 0x293CD, size: 0x8, addend: 0x0, symName: __ZNKSt9_IdentityISt4pairIiNSt7__cxx1112basic_stringIcSt11char_traitsIcESaIcEEEEEclERS7_, symObjAddr: 0x28B8, symBinAddr: 0x100003F38, symSize: 0x18 }
  - { offsetInCU: 0x29408, offset: 0x29408, size: 0x8, addend: 0x0, symName: __ZNSt8_Rb_treeISt4pairIiNSt7__cxx1112basic_stringIcSt11char_traitsIcESaIcEEEES7_St9_IdentityIS7_ESt4lessIS7_ESaIS7_EE24_M_get_insert_unique_posERKS7_, symObjAddr: 0x2760, symBinAddr: 0x100003DE0, symSize: 0x158 }
  - { offsetInCU: 0x2948C, offset: 0x2948C, size: 0x8, addend: 0x0, symName: __ZNSt12_Vector_baseINSt7__cxx1112basic_stringIcSt11char_traitsIcESaIcEEESaIS5_EE19_M_get_Tp_allocatorEv, symObjAddr: 0x274C, symBinAddr: 0x100003DCC, symSize: 0x14 }
  - { offsetInCU: 0x294B2, offset: 0x294B2, size: 0x8, addend: 0x0, symName: __ZNSt6vectorINSt7__cxx1112basic_stringIcSt11char_traitsIcESaIcEEESaIS5_EE11_S_relocateEPS5_S8_S8_RS6_, symObjAddr: 0x2718, symBinAddr: 0x100003D98, symSize: 0x34 }
  - { offsetInCU: 0x2950F, offset: 0x2950F, size: 0x8, addend: 0x0, symName: __ZSt12__to_addressINSt7__cxx1112basic_stringIcSt11char_traitsIcESaIcEEEEPT_S7_, symObjAddr: 0x2704, symBinAddr: 0x100003D84, symSize: 0x14 }
  - { offsetInCU: 0x29577, offset: 0x29577, size: 0x8, addend: 0x0, symName: __ZNSt12_Vector_baseINSt7__cxx1112basic_stringIcSt11char_traitsIcESaIcEEESaIS5_EE11_M_allocateEm, symObjAddr: 0x26B4, symBinAddr: 0x100003D34, symSize: 0x50 }
  - { offsetInCU: 0x295E2, offset: 0x295E2, size: 0x8, addend: 0x0, symName: __ZN9__gnu_cxxmiIPNSt7__cxx1112basic_stringIcSt11char_traitsIcESaIcEEESt6vectorIS6_SaIS6_EEEENS_17__normal_iteratorIT_T0_E15difference_typeERKSE_SH_, symObjAddr: 0x2674, symBinAddr: 0x100003CF4, symSize: 0x40 }
  - { offsetInCU: 0x29633, offset: 0x29633, size: 0x8, addend: 0x0, symName: __ZNKSt6vectorINSt7__cxx1112basic_stringIcSt11char_traitsIcESaIcEEESaIS5_EE12_M_check_lenEmPKc, symObjAddr: 0x25A4, symBinAddr: 0x100003C24, symSize: 0xD0 }
  - { offsetInCU: 0x296D5, offset: 0x296D5, size: 0x8, addend: 0x0, symName: __ZSt7forwardIRKNSt7__cxx1112basic_stringIcSt11char_traitsIcESaIcEEEEOT_RNSt16remove_referenceIS8_E4typeE, symObjAddr: 0x2590, symBinAddr: 0x100003C10, symSize: 0x14 }
  - { offsetInCU: 0x2970B, offset: 0x2970B, size: 0x8, addend: 0x0, symName: __ZNKSt8__detail14_Node_iteratorISt4pairIKNSt7__cxx1112basic_stringIcSt11char_traitsIcESaIcEEESt6vectorIS7_SaIS7_EEELb0ELb1EEptEv, symObjAddr: 0x2560, symBinAddr: 0x100003BE0, symSize: 0x30 }
  - { offsetInCU: 0x29759, offset: 0x29759, size: 0x8, addend: 0x0, symName: __ZNSt10_HashtableINSt7__cxx1112basic_stringIcSt11char_traitsIcESaIcEEESt4pairIKS5_St6vectorIS5_SaIS5_EEESaISB_ENSt8__detail10_Select1stESt8equal_toIS5_ESt4hashIS5_ENSD_18_Mod_range_hashingENSD_20_Default_ranged_hashENSD_20_Prime_rehash_policyENSD_17_Hashtable_traitsILb1ELb0ELb1EEEE21_M_insert_unique_nodeEmmPNSD_10_Hash_nodeISB_Lb1EEEm, symObjAddr: 0x2450, symBinAddr: 0x100003AD0, symSize: 0x110 }
  - { offsetInCU: 0x29939, offset: 0x29939, size: 0x8, addend: 0x0, symName: __ZNSt10_HashtableINSt7__cxx1112basic_stringIcSt11char_traitsIcESaIcEEESt4pairIKS5_St6vectorIS5_SaIS5_EEESaISB_ENSt8__detail10_Select1stESt8equal_toIS5_ESt4hashIS5_ENSD_18_Mod_range_hashingENSD_20_Default_ranged_hashENSD_20_Prime_rehash_policyENSD_17_Hashtable_traitsILb1ELb0ELb1EEEE12_Scoped_nodeD1Ev, symObjAddr: 0x240C, symBinAddr: 0x100003A8C, symSize: 0x44 }
  - { offsetInCU: 0x29A24, offset: 0x29A24, size: 0x8, addend: 0x0, symName: __ZNSt10_HashtableINSt7__cxx1112basic_stringIcSt11char_traitsIcESaIcEEESt4pairIKS5_St6vectorIS5_SaIS5_EEESaISB_ENSt8__detail10_Select1stESt8equal_toIS5_ESt4hashIS5_ENSD_18_Mod_range_hashingENSD_20_Default_ranged_hashENSD_20_Prime_rehash_policyENSD_17_Hashtable_traitsILb1ELb0ELb1EEEE12_Scoped_nodeC1IJRKSt21piecewise_construct_tSt5tupleIJRS7_EESU_IJEEEEEPNSD_16_Hashtable_allocISaINSD_10_Hash_nodeISB_Lb1EEEEEEDpOT_, symObjAddr: 0x2384, symBinAddr: 0x100003A04, symSize: 0x88 }
  - { offsetInCU: 0x29905, offset: 0x29905, size: 0x8, addend: 0x0, symName: __ZNKSt10_HashtableINSt7__cxx1112basic_stringIcSt11char_traitsIcESaIcEEESt4pairIKS5_St6vectorIS5_SaIS5_EEESaISB_ENSt8__detail10_Select1stESt8equal_toIS5_ESt4hashIS5_ENSD_18_Mod_range_hashingENSD_20_Default_ranged_hashENSD_20_Prime_rehash_policyENSD_17_Hashtable_traitsILb1ELb0ELb1EEEE12_M_find_nodeEmRS7_m, symObjAddr: 0x2330, symBinAddr: 0x1000039B0, symSize: 0x54 }
  - { offsetInCU: 0x29973, offset: 0x29973, size: 0x8, addend: 0x0, symName: __ZNKSt10_HashtableINSt7__cxx1112basic_stringIcSt11char_traitsIcESaIcEEESt4pairIKS5_St6vectorIS5_SaIS5_EEESaISB_ENSt8__detail10_Select1stESt8equal_toIS5_ESt4hashIS5_ENSD_18_Mod_range_hashingENSD_20_Default_ranged_hashENSD_20_Prime_rehash_policyENSD_17_Hashtable_traitsILb1ELb0ELb1EEEE15_M_bucket_indexEm, symObjAddr: 0x2300, symBinAddr: 0x100003980, symSize: 0x30 }
  - { offsetInCU: 0x299AE, offset: 0x299AE, size: 0x8, addend: 0x0, symName: __ZNKSt8__detail15_Hash_code_baseINSt7__cxx1112basic_stringIcSt11char_traitsIcESaIcEEESt4pairIKS6_St6vectorIS6_SaIS6_EEENS_10_Select1stESt4hashIS6_ENS_18_Mod_range_hashingENS_20_Default_ranged_hashELb1EE12_M_hash_codeERS8_, symObjAddr: 0x22D8, symBinAddr: 0x100003958, symSize: 0x28 }
  - { offsetInCU: 0x29A81, offset: 0x29A81, size: 0x8, addend: 0x0, symName: __ZNSt17_Rb_tree_iteratorISt4pairIKNSt7__cxx1112basic_stringIcSt11char_traitsIcESaIcEEEiEEC1EPSt18_Rb_tree_node_base, symObjAddr: 0x22B4, symBinAddr: 0x100003934, symSize: 0x24 }
  - { offsetInCU: 0x29A40, offset: 0x29A40, size: 0x8, addend: 0x0, symName: __ZNSt8_Rb_treeINSt7__cxx1112basic_stringIcSt11char_traitsIcESaIcEEESt4pairIKS5_iESt10_Select1stIS8_ESt4lessIS5_ESaIS8_EE10_Auto_node9_M_insertES6_IPSt18_Rb_tree_node_baseSH_E, symObjAddr: 0x2268, symBinAddr: 0x1000038E8, symSize: 0x4C }
  - { offsetInCU: 0x29A8C, offset: 0x29A8C, size: 0x8, addend: 0x0, symName: __ZNKSt8_Rb_treeINSt7__cxx1112basic_stringIcSt11char_traitsIcESaIcEEESt4pairIKS5_iESt10_Select1stIS8_ESt4lessIS5_ESaIS8_EE10_Auto_node6_M_keyEv, symObjAddr: 0x2248, symBinAddr: 0x1000038C8, symSize: 0x20 }
  - { offsetInCU: 0x29AB6, offset: 0x29AB6, size: 0x8, addend: 0x0, symName: __ZNSt8_Rb_treeINSt7__cxx1112basic_stringIcSt11char_traitsIcESaIcEEESt4pairIKS5_iESt10_Select1stIS8_ESt4lessIS5_ESaIS8_EE29_M_get_insert_hint_unique_posESt23_Rb_tree_const_iteratorIS8_ERS7_, symObjAddr: 0x1F24, symBinAddr: 0x1000035A4, symSize: 0x324 }
  - { offsetInCU: 0x29C0A, offset: 0x29C0A, size: 0x8, addend: 0x0, symName: __ZNSt8_Rb_treeINSt7__cxx1112basic_stringIcSt11char_traitsIcESaIcEEESt4pairIKS5_iESt10_Select1stIS8_ESt4lessIS5_ESaIS8_EE10_Auto_nodeD1Ev, symObjAddr: 0x1EE0, symBinAddr: 0x100003560, symSize: 0x44 }
  - { offsetInCU: 0x29CC1, offset: 0x29CC1, size: 0x8, addend: 0x0, symName: __ZNSt8_Rb_treeINSt7__cxx1112basic_stringIcSt11char_traitsIcESaIcEEESt4pairIKS5_iESt10_Select1stIS8_ESt4lessIS5_ESaIS8_EE10_Auto_nodeC1IJRKSt21piecewise_construct_tSt5tupleIJRS7_EESK_IJEEEEERSE_DpOT_, symObjAddr: 0x1E64, symBinAddr: 0x1000034E4, symSize: 0x7C }
  - { offsetInCU: 0x29C67, offset: 0x29C67, size: 0x8, addend: 0x0, symName: __ZSt7forwardISt5tupleIJEEEOT_RNSt16remove_referenceIS2_E4typeE, symObjAddr: 0x1E50, symBinAddr: 0x1000034D0, symSize: 0x14 }
  - { offsetInCU: 0x29CA0, offset: 0x29CA0, size: 0x8, addend: 0x0, symName: __ZSt7forwardISt5tupleIJRKNSt7__cxx1112basic_stringIcSt11char_traitsIcESaIcEEEEEEOT_RNSt16remove_referenceISA_E4typeE, symObjAddr: 0x1E3C, symBinAddr: 0x1000034BC, symSize: 0x14 }
  - { offsetInCU: 0x29CD9, offset: 0x29CD9, size: 0x8, addend: 0x0, symName: __ZSt7forwardIRKSt21piecewise_construct_tEOT_RNSt16remove_referenceIS3_E4typeE, symObjAddr: 0x1E28, symBinAddr: 0x1000034A8, symSize: 0x14 }
  - { offsetInCU: 0x29D8A, offset: 0x29D8A, size: 0x8, addend: 0x0, symName: __ZNSt11_Tuple_implILm0EJRKNSt7__cxx1112basic_stringIcSt11char_traitsIcESaIcEEEEEC2ES7_, symObjAddr: 0x1E00, symBinAddr: 0x100003480, symSize: 0x28 }
  - { offsetInCU: 0x29D62, offset: 0x29D62, size: 0x8, addend: 0x0, symName: __ZStltIcSt11char_traitsIcESaIcEEbRKNSt7__cxx1112basic_stringIT_T0_T1_EESA_, symObjAddr: 0x1DD4, symBinAddr: 0x100003454, symSize: 0x2C }
  - { offsetInCU: 0x29DBC, offset: 0x29DBC, size: 0x8, addend: 0x0, symName: __ZNSt13_Rb_tree_nodeISt4pairIKNSt7__cxx1112basic_stringIcSt11char_traitsIcESaIcEEEiEE9_M_valptrEv, symObjAddr: 0x1DB4, symBinAddr: 0x100003434, symSize: 0x20 }
  - { offsetInCU: 0x29DE6, offset: 0x29DE6, size: 0x8, addend: 0x0, symName: __ZNKSt8_Rb_treeINSt7__cxx1112basic_stringIcSt11char_traitsIcESaIcEEESt4pairIKS5_iESt10_Select1stIS8_ESt4lessIS5_ESaIS8_EE8key_compEv, symObjAddr: 0x1D9C, symBinAddr: 0x10000341C, symSize: 0x18 }
  - { offsetInCU: 0x29E10, offset: 0x29E10, size: 0x8, addend: 0x0, symName: __ZNSt8_Rb_treeINSt7__cxx1112basic_stringIcSt11char_traitsIcESaIcEEESt4pairIKS5_iESt10_Select1stIS8_ESt4lessIS5_ESaIS8_EE3endEv, symObjAddr: 0x1D74, symBinAddr: 0x1000033F4, symSize: 0x28 }
  - { offsetInCU: 0x29E3A, offset: 0x29E3A, size: 0x8, addend: 0x0, symName: __ZNSt8_Rb_treeINSt7__cxx1112basic_stringIcSt11char_traitsIcESaIcEEESt4pairIKS5_iESt10_Select1stIS8_ESt4lessIS5_ESaIS8_EE11lower_boundERS7_, symObjAddr: 0x1D2C, symBinAddr: 0x1000033AC, symSize: 0x48 }
  - { offsetInCU: 0x29E75, offset: 0x29E75, size: 0x8, addend: 0x0, symName: __ZNKSt8_Rb_treeISt4pairIiNSt7__cxx1112basic_stringIcSt11char_traitsIcESaIcEEEES7_St9_IdentityIS7_ESt4lessIS7_ESaIS7_EE9_M_mbeginEv, symObjAddr: 0x1D14, symBinAddr: 0x100003394, symSize: 0x18 }
  - { offsetInCU: 0x29E9F, offset: 0x29E9F, size: 0x8, addend: 0x0, symName: __ZNSt8_Rb_treeISt4pairIiNSt7__cxx1112basic_stringIcSt11char_traitsIcESaIcEEEES7_St9_IdentityIS7_ESt4lessIS7_ESaIS7_EE12_M_drop_nodeEPSt13_Rb_tree_nodeIS7_E, symObjAddr: 0x1CE0, symBinAddr: 0x100003360, symSize: 0x34 }
  - { offsetInCU: 0x29ED6, offset: 0x29ED6, size: 0x8, addend: 0x0, symName: __ZNSt8_Rb_treeISt4pairIiNSt7__cxx1112basic_stringIcSt11char_traitsIcESaIcEEEES7_St9_IdentityIS7_ESt4lessIS7_ESaIS7_EE7_S_leftEPSt18_Rb_tree_node_base, symObjAddr: 0x1CC8, symBinAddr: 0x100003348, symSize: 0x18 }
  - { offsetInCU: 0x29F00, offset: 0x29F00, size: 0x8, addend: 0x0, symName: __ZNSt8_Rb_treeISt4pairIiNSt7__cxx1112basic_stringIcSt11char_traitsIcESaIcEEEES7_St9_IdentityIS7_ESt4lessIS7_ESaIS7_EE8_S_rightEPSt18_Rb_tree_node_base, symObjAddr: 0x1CB0, symBinAddr: 0x100003330, symSize: 0x18 }
  - { offsetInCU: 0x29F44, offset: 0x29F44, size: 0x8, addend: 0x0, symName: __ZNKSt8_Rb_treeINSt7__cxx1112basic_stringIcSt11char_traitsIcESaIcEEESt4pairIKS5_iESt10_Select1stIS8_ESt4lessIS5_ESaIS8_EE9_M_mbeginEv, symObjAddr: 0x1C98, symBinAddr: 0x100003318, symSize: 0x18 }
  - { offsetInCU: 0x29F6E, offset: 0x29F6E, size: 0x8, addend: 0x0, symName: __ZNSt8_Rb_treeINSt7__cxx1112basic_stringIcSt11char_traitsIcESaIcEEESt4pairIKS5_iESt10_Select1stIS8_ESt4lessIS5_ESaIS8_EE12_M_drop_nodeEPSt13_Rb_tree_nodeIS8_E, symObjAddr: 0x1C64, symBinAddr: 0x1000032E4, symSize: 0x34 }
  - { offsetInCU: 0x29FA5, offset: 0x29FA5, size: 0x8, addend: 0x0, symName: __ZNSt8_Rb_treeINSt7__cxx1112basic_stringIcSt11char_traitsIcESaIcEEESt4pairIKS5_iESt10_Select1stIS8_ESt4lessIS5_ESaIS8_EE7_S_leftEPSt18_Rb_tree_node_base, symObjAddr: 0x1C4C, symBinAddr: 0x1000032CC, symSize: 0x18 }
  - { offsetInCU: 0x29FCF, offset: 0x29FCF, size: 0x8, addend: 0x0, symName: __ZNSt8_Rb_treeINSt7__cxx1112basic_stringIcSt11char_traitsIcESaIcEEESt4pairIKS5_iESt10_Select1stIS8_ESt4lessIS5_ESaIS8_EE8_S_rightEPSt18_Rb_tree_node_base, symObjAddr: 0x1C34, symBinAddr: 0x1000032B4, symSize: 0x18 }
  - { offsetInCU: 0x2A013, offset: 0x2A013, size: 0x8, addend: 0x0, symName: __ZNSt10_HashtableINSt7__cxx1112basic_stringIcSt11char_traitsIcESaIcEEESt4pairIKS5_St6vectorIS5_SaIS5_EEESaISB_ENSt8__detail10_Select1stESt8equal_toIS5_ESt4hashIS5_ENSD_18_Mod_range_hashingENSD_20_Default_ranged_hashENSD_20_Prime_rehash_policyENSD_17_Hashtable_traitsILb1ELb0ELb1EEEE21_M_deallocate_bucketsEPPNSD_15_Hash_node_baseEm, symObjAddr: 0x1BE8, symBinAddr: 0x100003268, symSize: 0x4C }
  - { offsetInCU: 0x2A05F, offset: 0x2A05F, size: 0x8, addend: 0x0, symName: __ZNSt8__detail16_Hashtable_allocISaINS_10_Hash_nodeISt4pairIKNSt7__cxx1112basic_stringIcSt11char_traitsIcESaIcEEESt6vectorIS8_SaIS8_EEELb1EEEEE19_M_deallocate_nodesEPSE_, symObjAddr: 0x1B98, symBinAddr: 0x100003218, symSize: 0x50 }
  - { offsetInCU: 0x2A0BE, offset: 0x2A0BE, size: 0x8, addend: 0x0, symName: __ZNKSt10_HashtableINSt7__cxx1112basic_stringIcSt11char_traitsIcESaIcEEESt4pairIKS5_St6vectorIS5_SaIS5_EEESaISB_ENSt8__detail10_Select1stESt8equal_toIS5_ESt4hashIS5_ENSD_18_Mod_range_hashingENSD_20_Default_ranged_hashENSD_20_Prime_rehash_policyENSD_17_Hashtable_traitsILb1ELb0ELb1EEEE8_M_beginEv, symObjAddr: 0x1B80, symBinAddr: 0x100003200, symSize: 0x18 }
  - { offsetInCU: 0x2A0FE, offset: 0x2A0FE, size: 0x8, addend: 0x0, symName: __ZNKSt13_Rb_tree_nodeISt4pairIiNSt7__cxx1112basic_stringIcSt11char_traitsIcESaIcEEEEE9_M_valptrEv, symObjAddr: 0x1B60, symBinAddr: 0x1000031E0, symSize: 0x20 }
  - { offsetInCU: 0x2A128, offset: 0x2A128, size: 0x8, addend: 0x0, symName: __ZNKSt8_Rb_treeISt4pairIiNSt7__cxx1112basic_stringIcSt11char_traitsIcESaIcEEEES7_St9_IdentityIS7_ESt4lessIS7_ESaIS7_EE3endEv, symObjAddr: 0x1B38, symBinAddr: 0x1000031B8, symSize: 0x28 }
  - { offsetInCU: 0x2A152, offset: 0x2A152, size: 0x8, addend: 0x0, symName: __ZNKSt8_Rb_treeISt4pairIiNSt7__cxx1112basic_stringIcSt11char_traitsIcESaIcEEEES7_St9_IdentityIS7_ESt4lessIS7_ESaIS7_EE5beginEv, symObjAddr: 0x1B10, symBinAddr: 0x100003190, symSize: 0x28 }
  - { offsetInCU: 0x2A17C, offset: 0x2A17C, size: 0x8, addend: 0x0, symName: __ZNKSt8_Rb_treeISt4pairIiNSt7__cxx1112basic_stringIcSt11char_traitsIcESaIcEEEES7_St9_IdentityIS7_ESt4lessIS7_ESaIS7_EE5emptyEv, symObjAddr: 0x1AEC, symBinAddr: 0x10000316C, symSize: 0x24 }
  - { offsetInCU: 0x2A27B, offset: 0x2A27B, size: 0x8, addend: 0x0, symName: __ZNSt4pairISt23_Rb_tree_const_iteratorIS_IiNSt7__cxx1112basic_stringIcSt11char_traitsIcESaIcEEEEEbEC1IRSt17_Rb_tree_iteratorIS7_ERbLb1EEEOT_OT0_, symObjAddr: 0x1A98, symBinAddr: 0x100003118, symSize: 0x54 }
  - { offsetInCU: 0x2A238, offset: 0x2A238, size: 0x8, addend: 0x0, symName: __ZNSt8_Rb_treeISt4pairIiNSt7__cxx1112basic_stringIcSt11char_traitsIcESaIcEEEES7_St9_IdentityIS7_ESt4lessIS7_ESaIS7_EE16_M_insert_uniqueIS7_EES0_ISt17_Rb_tree_iteratorIS7_EbEOT_, symObjAddr: 0x19CC, symBinAddr: 0x10000304C, symSize: 0xCC }
  - { offsetInCU: 0x2A2B8, offset: 0x2A2B8, size: 0x8, addend: 0x0, symName: __ZSt4moveIRSt4pairIiNSt7__cxx1112basic_stringIcSt11char_traitsIcESaIcEEEEEONSt16remove_referenceIT_E4typeEOSA_, symObjAddr: 0x19B8, symBinAddr: 0x100003038, symSize: 0x14 }
  - { offsetInCU: 0x2A2F1, offset: 0x2A2F1, size: 0x8, addend: 0x0, symName: __ZSt7forwardIRNSt7__cxx1112basic_stringIcSt11char_traitsIcESaIcEEEEOT_RNSt16remove_referenceIS7_E4typeE, symObjAddr: 0x19A4, symBinAddr: 0x100003024, symSize: 0x14 }
  - { offsetInCU: 0x2A32A, offset: 0x2A32A, size: 0x8, addend: 0x0, symName: __ZSt7forwardIRiEOT_RNSt16remove_referenceIS1_E4typeE, symObjAddr: 0x1990, symBinAddr: 0x100003010, symSize: 0x14 }
  - { offsetInCU: 0x2A35C, offset: 0x2A35C, size: 0x8, addend: 0x0, symName: __ZSteqIcSt11char_traitsIcESaIcEEbRKNSt7__cxx1112basic_stringIT_T0_T1_EESA_, symObjAddr: 0x1910, symBinAddr: 0x100002F90, symSize: 0x80 }
  - { offsetInCU: 0x2A3B6, offset: 0x2A3B6, size: 0x8, addend: 0x0, symName: __ZNK9__gnu_cxx17__normal_iteratorIPNSt7__cxx1112basic_stringIcSt11char_traitsIcESaIcEEESt6vectorIS6_SaIS6_EEE4baseEv, symObjAddr: 0x18FC, symBinAddr: 0x100002F7C, symSize: 0x14 }
  - { offsetInCU: 0x2A479, offset: 0x2A479, size: 0x8, addend: 0x0, symName: __ZN9__gnu_cxx17__normal_iteratorIPNSt7__cxx1112basic_stringIcSt11char_traitsIcESaIcEEESt6vectorIS6_SaIS6_EEEC1ERKS7_, symObjAddr: 0x18D4, symBinAddr: 0x100002F54, symSize: 0x28 }
  - { offsetInCU: 0x2A437, offset: 0x2A437, size: 0x8, addend: 0x0, symName: __ZNSt6vectorINSt7__cxx1112basic_stringIcSt11char_traitsIcESaIcEEESaIS5_EE17_M_realloc_appendIJRKS5_EEEvDpOT_, symObjAddr: 0x16D8, symBinAddr: 0x100002D58, symSize: 0x1FC }
  - { offsetInCU: 0x2A63B, offset: 0x2A63B, size: 0x8, addend: 0x0, symName: __ZZNSt6vectorINSt7__cxx1112basic_stringIcSt11char_traitsIcESaIcEEESaIS5_EE17_M_realloc_appendIJRKS5_EEEvDpOT_EN6_GuardC1EPS5_mRS6_, symObjAddr: 0x1634, symBinAddr: 0x100002CB4, symSize: 0x44 }
  - { offsetInCU: 0x2A679, offset: 0x2A679, size: 0x8, addend: 0x0, symName: __ZZNSt6vectorINSt7__cxx1112basic_stringIcSt11char_traitsIcESaIcEEESaIS5_EE17_M_realloc_appendIJRKS5_EEEvDpOT_EN6_GuardD1Ev, symObjAddr: 0x1678, symBinAddr: 0x100002CF8, symSize: 0x60 }
  - { offsetInCU: 0x2A734, offset: 0x2A734, size: 0x8, addend: 0x0, symName: __ZNSt8__detail9_Map_baseINSt7__cxx1112basic_stringIcSt11char_traitsIcESaIcEEESt4pairIKS6_St6vectorIS6_SaIS6_EEESaISC_ENS_10_Select1stESt8equal_toIS6_ESt4hashIS6_ENS_18_Mod_range_hashingENS_20_Default_ranged_hashENS_20_Prime_rehash_policyENS_17_Hashtable_traitsILb1ELb0ELb1EEELb1EEixERS8_, symObjAddr: 0x1514, symBinAddr: 0x100002B94, symSize: 0x120 }
  - { offsetInCU: 0x2A83A, offset: 0x2A83A, size: 0x8, addend: 0x0, symName: __ZNSt8_Rb_treeINSt7__cxx1112basic_stringIcSt11char_traitsIcESaIcEEESt4pairIKS5_iESt10_Select1stIS8_ESt4lessIS5_ESaIS8_EE22_M_emplace_hint_uniqueIJRKSt21piecewise_construct_tSt5tupleIJRS7_EESJ_IJEEEEESt17_Rb_tree_iteratorIS8_ESt23_Rb_tree_const_iteratorIS8_EDpOT_, symObjAddr: 0x143C, symBinAddr: 0x100002ABC, symSize: 0xD8 }
  - { offsetInCU: 0x2A974, offset: 0x2A974, size: 0x8, addend: 0x0, symName: __ZNSt23_Rb_tree_const_iteratorISt4pairIKNSt7__cxx1112basic_stringIcSt11char_traitsIcESaIcEEEiEEC1ERKSt17_Rb_tree_iteratorIS8_E, symObjAddr: 0x1414, symBinAddr: 0x100002A94, symSize: 0x28 }
  - { offsetInCU: 0x2A9AC, offset: 0x2A9AC, size: 0x8, addend: 0x0, symName: __ZNSt5tupleIJRKNSt7__cxx1112basic_stringIcSt11char_traitsIcESaIcEEEEEC1ILb1ELb1EEES7_, symObjAddr: 0x13EC, symBinAddr: 0x100002A6C, symSize: 0x28 }
  - { offsetInCU: 0x2A993, offset: 0x2A993, size: 0x8, addend: 0x0, symName: __ZNKSt4lessINSt7__cxx1112basic_stringIcSt11char_traitsIcESaIcEEEEclERKS5_S8_, symObjAddr: 0x13C4, symBinAddr: 0x100002A44, symSize: 0x28 }
  - { offsetInCU: 0x2A9DF, offset: 0x2A9DF, size: 0x8, addend: 0x0, symName: __ZNKSt17_Rb_tree_iteratorISt4pairIKNSt7__cxx1112basic_stringIcSt11char_traitsIcESaIcEEEiEEdeEv, symObjAddr: 0x13A4, symBinAddr: 0x100002A24, symSize: 0x20 }
  - { offsetInCU: 0x2AA09, offset: 0x2AA09, size: 0x8, addend: 0x0, symName: __ZNKSt3mapINSt7__cxx1112basic_stringIcSt11char_traitsIcESaIcEEEiSt4lessIS5_ESaISt4pairIKS5_iEEE8key_compEv, symObjAddr: 0x1378, symBinAddr: 0x1000029F8, symSize: 0x2C }
  - { offsetInCU: 0x2AA36, offset: 0x2AA36, size: 0x8, addend: 0x0, symName: __ZSteqRKSt17_Rb_tree_iteratorISt4pairIKNSt7__cxx1112basic_stringIcSt11char_traitsIcESaIcEEEiEESB_, symObjAddr: 0x1348, symBinAddr: 0x1000029C8, symSize: 0x30 }
  - { offsetInCU: 0x2AA75, offset: 0x2AA75, size: 0x8, addend: 0x0, symName: __ZNSt3mapINSt7__cxx1112basic_stringIcSt11char_traitsIcESaIcEEEiSt4lessIS5_ESaISt4pairIKS5_iEEE3endEv, symObjAddr: 0x132C, symBinAddr: 0x1000029AC, symSize: 0x1C }
  - { offsetInCU: 0x2AA9F, offset: 0x2AA9F, size: 0x8, addend: 0x0, symName: __ZNSt3mapINSt7__cxx1112basic_stringIcSt11char_traitsIcESaIcEEEiSt4lessIS5_ESaISt4pairIKS5_iEEE11lower_boundERS9_, symObjAddr: 0x1308, symBinAddr: 0x100002988, symSize: 0x24 }
  - { offsetInCU: 0x2AADA, offset: 0x2AADA, size: 0x8, addend: 0x0, symName: __ZNSt8_Rb_treeISt4pairIiNSt7__cxx1112basic_stringIcSt11char_traitsIcESaIcEEEES7_St9_IdentityIS7_ESt4lessIS7_ESaIS7_EE8_M_beginEv, symObjAddr: 0x12EC, symBinAddr: 0x10000296C, symSize: 0x1C }
  - { offsetInCU: 0x2AB04, offset: 0x2AB04, size: 0x8, addend: 0x0, symName: __ZNSt8_Rb_treeISt4pairIiNSt7__cxx1112basic_stringIcSt11char_traitsIcESaIcEEEES7_St9_IdentityIS7_ESt4lessIS7_ESaIS7_EE8_M_eraseEPSt13_Rb_tree_nodeIS7_E, symObjAddr: 0x1288, symBinAddr: 0x100002908, symSize: 0x64 }
  - { offsetInCU: 0x2ABF1, offset: 0x2ABF1, size: 0x8, addend: 0x0, symName: __ZNSt15__new_allocatorISt13_Rb_tree_nodeISt4pairIiNSt7__cxx1112basic_stringIcSt11char_traitsIcESaIcEEEEEED2Ev, symObjAddr: 0x1274, symBinAddr: 0x1000028F4, symSize: 0x14 }
  - { offsetInCU: 0x2AC2C, offset: 0x2AC2C, size: 0x8, addend: 0x0, symName: __ZNSt20_Rb_tree_key_compareISt4lessISt4pairIiNSt7__cxx1112basic_stringIcSt11char_traitsIcESaIcEEEEEEC2Ev, symObjAddr: 0x1260, symBinAddr: 0x1000028E0, symSize: 0x14 }
  - { offsetInCU: 0x2AC03, offset: 0x2AC03, size: 0x8, addend: 0x0, symName: __ZNSt8_Rb_treeINSt7__cxx1112basic_stringIcSt11char_traitsIcESaIcEEESt4pairIKS5_iESt10_Select1stIS8_ESt4lessIS5_ESaIS8_EE8_M_beginEv, symObjAddr: 0x1244, symBinAddr: 0x1000028C4, symSize: 0x1C }
  - { offsetInCU: 0x2AC2D, offset: 0x2AC2D, size: 0x8, addend: 0x0, symName: __ZNSt8_Rb_treeINSt7__cxx1112basic_stringIcSt11char_traitsIcESaIcEEESt4pairIKS5_iESt10_Select1stIS8_ESt4lessIS5_ESaIS8_EE8_M_eraseEPSt13_Rb_tree_nodeIS8_E, symObjAddr: 0x11E0, symBinAddr: 0x100002860, symSize: 0x64 }
  - { offsetInCU: 0x2AD1B, offset: 0x2AD1B, size: 0x8, addend: 0x0, symName: __ZNSt15__new_allocatorISt13_Rb_tree_nodeISt4pairIKNSt7__cxx1112basic_stringIcSt11char_traitsIcESaIcEEEiEEED2Ev, symObjAddr: 0x11CC, symBinAddr: 0x10000284C, symSize: 0x14 }
  - { offsetInCU: 0x2AD4B, offset: 0x2AD4B, size: 0x8, addend: 0x0, symName: __ZNSt20_Rb_tree_key_compareISt4lessINSt7__cxx1112basic_stringIcSt11char_traitsIcESaIcEEEEEC2Ev, symObjAddr: 0x11B8, symBinAddr: 0x100002838, symSize: 0x14 }
  - { offsetInCU: 0x2AD2C, offset: 0x2AD2C, size: 0x8, addend: 0x0, symName: __ZNSt10_HashtableINSt7__cxx1112basic_stringIcSt11char_traitsIcESaIcEEESt4pairIKS5_St6vectorIS5_SaIS5_EEESaISB_ENSt8__detail10_Select1stESt8equal_toIS5_ESt4hashIS5_ENSD_18_Mod_range_hashingENSD_20_Default_ranged_hashENSD_20_Prime_rehash_policyENSD_17_Hashtable_traitsILb1ELb0ELb1EEEE21_M_deallocate_bucketsEv, symObjAddr: 0x1184, symBinAddr: 0x100002804, symSize: 0x34 }
  - { offsetInCU: 0x2AD56, offset: 0x2AD56, size: 0x8, addend: 0x0, symName: __ZNSt10_HashtableINSt7__cxx1112basic_stringIcSt11char_traitsIcESaIcEEESt4pairIKS5_St6vectorIS5_SaIS5_EEESaISB_ENSt8__detail10_Select1stESt8equal_toIS5_ESt4hashIS5_ENSD_18_Mod_range_hashingENSD_20_Default_ranged_hashENSD_20_Prime_rehash_policyENSD_17_Hashtable_traitsILb1ELb0ELb1EEEE5clearEv, symObjAddr: 0x1124, symBinAddr: 0x1000027A4, symSize: 0x60 }
  - { offsetInCU: 0x2AE2F, offset: 0x2AE2F, size: 0x8, addend: 0x0, symName: __ZNSt15__new_allocatorINSt8__detail10_Hash_nodeISt4pairIKNSt7__cxx1112basic_stringIcSt11char_traitsIcESaIcEEESt6vectorIS8_SaIS8_EEELb1EEEED2Ev, symObjAddr: 0x1110, symBinAddr: 0x100002790, symSize: 0x14 }
  - { offsetInCU: 0x2ADE3, offset: 0x2ADE3, size: 0x8, addend: 0x0, symName: __ZSt7forwardIbEOT_RNSt16remove_referenceIS0_E4typeE, symObjAddr: 0x10FC, symBinAddr: 0x10000277C, symSize: 0x14 }
  - { offsetInCU: 0x2AE15, offset: 0x2AE15, size: 0x8, addend: 0x0, symName: __ZN9__gnu_cxx11char_traitsIcE2eqERKcS3_, symObjAddr: 0x10CC, symBinAddr: 0x10000274C, symSize: 0x30 }
  - { offsetInCU: 0x2AE52, offset: 0x2AE52, size: 0x8, addend: 0x0, symName: __ZNKSt23_Rb_tree_const_iteratorISt4pairIiNSt7__cxx1112basic_stringIcSt11char_traitsIcESaIcEEEEEdeEv, symObjAddr: 0x10AC, symBinAddr: 0x10000272C, symSize: 0x20 }
  - { offsetInCU: 0x2AE7C, offset: 0x2AE7C, size: 0x8, addend: 0x0, symName: __ZNSt23_Rb_tree_const_iteratorISt4pairIiNSt7__cxx1112basic_stringIcSt11char_traitsIcESaIcEEEEEppEv, symObjAddr: 0x107C, symBinAddr: 0x1000026FC, symSize: 0x30 }
  - { offsetInCU: 0x2AEA9, offset: 0x2AEA9, size: 0x8, addend: 0x0, symName: __ZStneRKSt23_Rb_tree_const_iteratorISt4pairIiNSt7__cxx1112basic_stringIcSt11char_traitsIcESaIcEEEEESA_, symObjAddr: 0x104C, symBinAddr: 0x1000026CC, symSize: 0x30 }
  - { offsetInCU: 0x2AEE8, offset: 0x2AEE8, size: 0x8, addend: 0x0, symName: __ZNKSt3setISt4pairIiNSt7__cxx1112basic_stringIcSt11char_traitsIcESaIcEEEESt4lessIS7_ESaIS7_EE3endEv, symObjAddr: 0x1030, symBinAddr: 0x1000026B0, symSize: 0x1C }
  - { offsetInCU: 0x2AF12, offset: 0x2AF12, size: 0x8, addend: 0x0, symName: __ZNKSt3setISt4pairIiNSt7__cxx1112basic_stringIcSt11char_traitsIcESaIcEEEESt4lessIS7_ESaIS7_EE5beginEv, symObjAddr: 0x1014, symBinAddr: 0x100002694, symSize: 0x1C }
  - { offsetInCU: 0x2AF3C, offset: 0x2AF3C, size: 0x8, addend: 0x0, symName: __ZNKSt3setISt4pairIiNSt7__cxx1112basic_stringIcSt11char_traitsIcESaIcEEEESt4lessIS7_ESaIS7_EE5emptyEv, symObjAddr: 0xFF8, symBinAddr: 0x100002678, symSize: 0x1C }
  - { offsetInCU: 0x2AF66, offset: 0x2AF66, size: 0x8, addend: 0x0, symName: __ZNSt3setISt4pairIiNSt7__cxx1112basic_stringIcSt11char_traitsIcESaIcEEEESt4lessIS7_ESaIS7_EE6insertEOS7_, symObjAddr: 0xFA4, symBinAddr: 0x100002624, symSize: 0x54 }
  - { offsetInCU: 0x2B04E, offset: 0x2B04E, size: 0x8, addend: 0x0, symName: __ZNSt4pairIiNSt7__cxx1112basic_stringIcSt11char_traitsIcESaIcEEEEC1IRiRS5_Lb1EEEOT_OT0_, symObjAddr: 0xF4C, symBinAddr: 0x1000025CC, symSize: 0x58 }
  - { offsetInCU: 0x2B040, offset: 0x2B040, size: 0x8, addend: 0x0, symName: __ZStneIcSt11char_traitsIcESaIcEEbRKNSt7__cxx1112basic_stringIT_T0_T1_EESA_, symObjAddr: 0xF20, symBinAddr: 0x1000025A0, symSize: 0x2C }
  - { offsetInCU: 0x2B09A, offset: 0x2B09A, size: 0x8, addend: 0x0, symName: __ZNK9__gnu_cxx17__normal_iteratorIPNSt7__cxx1112basic_stringIcSt11char_traitsIcESaIcEEESt6vectorIS6_SaIS6_EEEdeEv, symObjAddr: 0xF08, symBinAddr: 0x100002588, symSize: 0x18 }
  - { offsetInCU: 0x2B0C4, offset: 0x2B0C4, size: 0x8, addend: 0x0, symName: __ZN9__gnu_cxx17__normal_iteratorIPNSt7__cxx1112basic_stringIcSt11char_traitsIcESaIcEEESt6vectorIS6_SaIS6_EEEppEv, symObjAddr: 0xEE0, symBinAddr: 0x100002560, symSize: 0x28 }
  - { offsetInCU: 0x2B0EA, offset: 0x2B0EA, size: 0x8, addend: 0x0, symName: __ZN9__gnu_cxxneIPNSt7__cxx1112basic_stringIcSt11char_traitsIcESaIcEEESt6vectorIS6_SaIS6_EEEEbRKNS_17__normal_iteratorIT_T0_EESG_, symObjAddr: 0xE9C, symBinAddr: 0x10000251C, symSize: 0x44 }
  - { offsetInCU: 0x2B13B, offset: 0x2B13B, size: 0x8, addend: 0x0, symName: __ZNSt6vectorINSt7__cxx1112basic_stringIcSt11char_traitsIcESaIcEEESaIS5_EE3endEv, symObjAddr: 0xE74, symBinAddr: 0x1000024F4, symSize: 0x28 }
  - { offsetInCU: 0x2B165, offset: 0x2B165, size: 0x8, addend: 0x0, symName: __ZNSt6vectorINSt7__cxx1112basic_stringIcSt11char_traitsIcESaIcEEESaIS5_EE5beginEv, symObjAddr: 0xE50, symBinAddr: 0x1000024D0, symSize: 0x24 }
  - { offsetInCU: 0x2B18F, offset: 0x2B18F, size: 0x8, addend: 0x0, symName: __ZNSt6vectorINSt7__cxx1112basic_stringIcSt11char_traitsIcESaIcEEESaIS5_EE9push_backERKS5_, symObjAddr: 0xD54, symBinAddr: 0x1000023D4, symSize: 0xFC }
  - { offsetInCU: 0x2B22E, offset: 0x2B22E, size: 0x8, addend: 0x0, symName: __ZNSt13unordered_mapINSt7__cxx1112basic_stringIcSt11char_traitsIcESaIcEEESt6vectorIS5_SaIS5_EESt4hashIS5_ESt8equal_toIS5_ESaISt4pairIKS5_S8_EEEixERSE_, symObjAddr: 0xD30, symBinAddr: 0x1000023B0, symSize: 0x24 }
  - { offsetInCU: 0x2B265, offset: 0x2B265, size: 0x8, addend: 0x0, symName: __ZSteqIcSt11char_traitsIcESaIcEEbRKNSt7__cxx1112basic_stringIT_T0_T1_EEPKS5_, symObjAddr: 0xCBC, symBinAddr: 0x10000233C, symSize: 0x74 }
  - { offsetInCU: 0x2B2BF, offset: 0x2B2BF, size: 0x8, addend: 0x0, symName: __ZNSt3mapINSt7__cxx1112basic_stringIcSt11char_traitsIcESaIcEEEiSt4lessIS5_ESaISt4pairIKS5_iEEEixERS9_, symObjAddr: 0xBD0, symBinAddr: 0x100002250, symSize: 0xEC }
  - { offsetInCU: 0x2B3A5, offset: 0x2B3A5, size: 0x8, addend: 0x0, symName: __ZNSt8_Rb_treeISt4pairIiNSt7__cxx1112basic_stringIcSt11char_traitsIcESaIcEEEES7_St9_IdentityIS7_ESt4lessIS7_ESaIS7_EED1Ev, symObjAddr: 0xB9C, symBinAddr: 0x10000221C, symSize: 0x34 }
  - { offsetInCU: 0x2B41D, offset: 0x2B41D, size: 0x8, addend: 0x0, symName: __ZNSt8_Rb_treeISt4pairIiNSt7__cxx1112basic_stringIcSt11char_traitsIcESaIcEEEES7_St9_IdentityIS7_ESt4lessIS7_ESaIS7_EE13_Rb_tree_implISB_Lb1EEC1Ev, symObjAddr: 0xB58, symBinAddr: 0x1000021D8, symSize: 0x44 }
  - { offsetInCU: 0x2B499, offset: 0x2B499, size: 0x8, addend: 0x0, symName: __ZNSt8_Rb_treeINSt7__cxx1112basic_stringIcSt11char_traitsIcESaIcEEESt4pairIKS5_iESt10_Select1stIS8_ESt4lessIS5_ESaIS8_EED1Ev, symObjAddr: 0xB24, symBinAddr: 0x1000021A4, symSize: 0x34 }
  - { offsetInCU: 0x2B511, offset: 0x2B511, size: 0x8, addend: 0x0, symName: __ZNSt8_Rb_treeINSt7__cxx1112basic_stringIcSt11char_traitsIcESaIcEEESt4pairIKS5_iESt10_Select1stIS8_ESt4lessIS5_ESaIS8_EE13_Rb_tree_implISC_Lb1EEC1Ev, symObjAddr: 0xAE0, symBinAddr: 0x100002160, symSize: 0x44 }
  - { offsetInCU: 0x2B62C, offset: 0x2B62C, size: 0x8, addend: 0x0, symName: __ZNSt10_HashtableINSt7__cxx1112basic_stringIcSt11char_traitsIcESaIcEEESt4pairIKS5_St6vectorIS5_SaIS5_EEESaISB_ENSt8__detail10_Select1stESt8equal_toIS5_ESt4hashIS5_ENSD_18_Mod_range_hashingENSD_20_Default_ranged_hashENSD_20_Prime_rehash_policyENSD_17_Hashtable_traitsILb1ELb0ELb1EEEED1Ev, symObjAddr: 0xAB0, symBinAddr: 0x100002130, symSize: 0x30 }
  - { offsetInCU: 0x2B60E, offset: 0x2B60E, size: 0x8, addend: 0x0, symName: __ZNSt8__detail21_Hashtable_ebo_helperILi0ESaINS_10_Hash_nodeISt4pairIKNSt7__cxx1112basic_stringIcSt11char_traitsIcESaIcEEESt6vectorIS8_SaIS8_EEELb1EEEELb1EEC2Ev, symObjAddr: 0xA84, symBinAddr: 0x100002104, symSize: 0x2C }
  - { offsetInCU: 0x2B669, offset: 0x2B669, size: 0x8, addend: 0x0, symName: __ZNSt8__detail21_Hashtable_ebo_helperILi0ESt8equal_toINSt7__cxx1112basic_stringIcSt11char_traitsIcESaIcEEEELb1EEC2Ev, symObjAddr: 0xA70, symBinAddr: 0x1000020F0, symSize: 0x14 }
  - { offsetInCU: 0x2B6A5, offset: 0x2B6A5, size: 0x8, addend: 0x0, symName: __ZNSt8__detail21_Hashtable_ebo_helperILi1ESt4hashINSt7__cxx1112basic_stringIcSt11char_traitsIcESaIcEEEELb1EEC2Ev, symObjAddr: 0xA5C, symBinAddr: 0x1000020DC, symSize: 0x14 }
  - { offsetInCU: 0x2B65A, offset: 0x2B65A, size: 0x8, addend: 0x0, symName: __ZSt11__addressofINSt7__cxx1112basic_stringIcSt11char_traitsIcESaIcEEEEPT_RS6_, symObjAddr: 0xA48, symBinAddr: 0x1000020C8, symSize: 0x14 }
  - { offsetInCU: 0x2B693, offset: 0x2B693, size: 0x8, addend: 0x0, symName: __ZSt4moveIRNSt7__cxx1112basic_stringIcSt11char_traitsIcESaIcEEEEONSt16remove_referenceIT_E4typeEOS8_, symObjAddr: 0xA34, symBinAddr: 0x1000020B4, symSize: 0x14 }
  - { offsetInCU: 0x2B6C5, offset: 0x2B6C5, size: 0x8, addend: 0x0, symName: __ZSt3maxImERKT_S2_S2_, symObjAddr: 0x9FC, symBinAddr: 0x10000207C, symSize: 0x38 }
  - { offsetInCU: 0x2B709, offset: 0x2B709, size: 0x8, addend: 0x0, symName: __ZN9__gnu_cxx11char_traitsIcE6lengthEPKc, symObjAddr: 0x9A4, symBinAddr: 0x100002024, symSize: 0x58 }
  - { offsetInCU: 0x2B74B, offset: 0x2B74B, size: 0x8, addend: 0x0, symName: _main, symObjAddr: 0x5B4, symBinAddr: 0x100001C34, symSize: 0x3F0 }
  - { offsetInCU: 0x2B8E4, offset: 0x2B8E4, size: 0x8, addend: 0x0, symName: __ZNSt4pairIiNSt7__cxx1112basic_stringIcSt11char_traitsIcESaIcEEEEC1ERKS6_, symObjAddr: 0x56C, symBinAddr: 0x100001BEC, symSize: 0x48 }
  - { offsetInCU: 0x2B937, offset: 0x2B937, size: 0x8, addend: 0x0, symName: __ZNSt4pairIiNSt7__cxx1112basic_stringIcSt11char_traitsIcESaIcEEEED1Ev, symObjAddr: 0x548, symBinAddr: 0x100001BC8, symSize: 0x24 }
  - { offsetInCU: 0x2B992, offset: 0x2B992, size: 0x8, addend: 0x0, symName: __ZNSt3setISt4pairIiNSt7__cxx1112basic_stringIcSt11char_traitsIcESaIcEEEESt4lessIS7_ESaIS7_EEC1Ev, symObjAddr: 0x528, symBinAddr: 0x100001BA8, symSize: 0x20 }
  - { offsetInCU: 0x2B9EB, offset: 0x2B9EB, size: 0x8, addend: 0x0, symName: __ZNSt8_Rb_treeISt4pairIiNSt7__cxx1112basic_stringIcSt11char_traitsIcESaIcEEEES7_St9_IdentityIS7_ESt4lessIS7_ESaIS7_EEC1Ev, symObjAddr: 0x508, symBinAddr: 0x100001B88, symSize: 0x20 }
  - { offsetInCU: 0x2BA51, offset: 0x2BA51, size: 0x8, addend: 0x0, symName: __ZNSt8_Rb_treeISt4pairIiNSt7__cxx1112basic_stringIcSt11char_traitsIcESaIcEEEES7_St9_IdentityIS7_ESt4lessIS7_ESaIS7_EE13_Rb_tree_implISB_Lb1EED1Ev, symObjAddr: 0x4DC, symBinAddr: 0x100001B5C, symSize: 0x2C }
  - { offsetInCU: 0x2BA86, offset: 0x2BA86, size: 0x8, addend: 0x0, symName: __ZNSt3mapINSt7__cxx1112basic_stringIcSt11char_traitsIcESaIcEEEiSt4lessIS5_ESaISt4pairIKS5_iEEEC1Ev, symObjAddr: 0x4BC, symBinAddr: 0x100001B3C, symSize: 0x20 }
  - { offsetInCU: 0x2BAE0, offset: 0x2BAE0, size: 0x8, addend: 0x0, symName: __ZNSt8_Rb_treeINSt7__cxx1112basic_stringIcSt11char_traitsIcESaIcEEESt4pairIKS5_iESt10_Select1stIS8_ESt4lessIS5_ESaIS8_EEC1Ev, symObjAddr: 0x49C, symBinAddr: 0x100001B1C, symSize: 0x20 }
  - { offsetInCU: 0x2BB46, offset: 0x2BB46, size: 0x8, addend: 0x0, symName: __ZNSt8_Rb_treeINSt7__cxx1112basic_stringIcSt11char_traitsIcESaIcEEESt4pairIKS5_iESt10_Select1stIS8_ESt4lessIS5_ESaIS8_EE13_Rb_tree_implISC_Lb1EED1Ev, symObjAddr: 0x470, symBinAddr: 0x100001AF0, symSize: 0x2C }
  - { offsetInCU: 0x2BBA9, offset: 0x2BBA9, size: 0x8, addend: 0x0, symName: __ZNSt13unordered_mapINSt7__cxx1112basic_stringIcSt11char_traitsIcESaIcEEESt6vectorIS5_SaIS5_EESt4hashIS5_ESt8equal_toIS5_ESaISt4pairIKS5_S8_EEEC1Ev, symObjAddr: 0x450, symBinAddr: 0x100001AD0, symSize: 0x20 }
  - { offsetInCU: 0x2BC74, offset: 0x2BC74, size: 0x8, addend: 0x0, symName: __ZNSt10_HashtableINSt7__cxx1112basic_stringIcSt11char_traitsIcESaIcEEESt4pairIKS5_St6vectorIS5_SaIS5_EEESaISB_ENSt8__detail10_Select1stESt8equal_toIS5_ESt4hashIS5_ENSD_18_Mod_range_hashingENSD_20_Default_ranged_hashENSD_20_Prime_rehash_policyENSD_17_Hashtable_traitsILb1ELb0ELb1EEEEC1Ev, symObjAddr: 0x3E0, symBinAddr: 0x100001A60, symSize: 0x70 }
  - { offsetInCU: 0x2BC37, offset: 0x2BC37, size: 0x8, addend: 0x0, symName: __ZNSt8__detail16_Hashtable_allocISaINS_10_Hash_nodeISt4pairIKNSt7__cxx1112basic_stringIcSt11char_traitsIcESaIcEEESt6vectorIS8_SaIS8_EEELb1EEEEED2Ev, symObjAddr: 0x3C0, symBinAddr: 0x100001A40, symSize: 0x20 }
  - { offsetInCU: 0x2BC77, offset: 0x2BC77, size: 0x8, addend: 0x0, symName: __ZNSt8__detail16_Hashtable_allocISaINS_10_Hash_nodeISt4pairIKNSt7__cxx1112basic_stringIcSt11char_traitsIcESaIcEEESt6vectorIS8_SaIS8_EEELb1EEEEEC2Ev, symObjAddr: 0x3A0, symBinAddr: 0x100001A20, symSize: 0x20 }
  - { offsetInCU: 0x2BCD2, offset: 0x2BCD2, size: 0x8, addend: 0x0, symName: __ZNSt8__detail21_Hashtable_ebo_helperILi0ESaINS_10_Hash_nodeISt4pairIKNSt7__cxx1112basic_stringIcSt11char_traitsIcESaIcEEESt6vectorIS8_SaIS8_EEELb1EEEELb1EED2Ev, symObjAddr: 0x374, symBinAddr: 0x1000019F4, symSize: 0x2C }
  - { offsetInCU: 0x2BD94, offset: 0x2BD94, size: 0x8, addend: 0x0, symName: __ZNSt8__detail15_Hashtable_baseINSt7__cxx1112basic_stringIcSt11char_traitsIcESaIcEEESt4pairIKS6_St6vectorIS6_SaIS6_EEENS_10_Select1stESt8equal_toIS6_ESt4hashIS6_ENS_18_Mod_range_hashingENS_20_Default_ranged_hashENS_17_Hashtable_traitsILb1ELb0ELb1EEEEC2Ev, symObjAddr: 0x34C, symBinAddr: 0x1000019CC, symSize: 0x28 }
  - { offsetInCU: 0x2BDA3, offset: 0x2BDA3, size: 0x8, addend: 0x0, symName: __ZNSt8__detail15_Hash_code_baseINSt7__cxx1112basic_stringIcSt11char_traitsIcESaIcEEESt4pairIKS6_St6vectorIS6_SaIS6_EEENS_10_Select1stESt4hashIS6_ENS_18_Mod_range_hashingENS_20_Default_ranged_hashELb1EEC2Ev, symObjAddr: 0x32C, symBinAddr: 0x1000019AC, symSize: 0x20 }
  - { offsetInCU: 0x2BCFF, offset: 0x2BCFF, size: 0x8, addend: 0x0, symName: __ZNSt15_Rb_tree_header8_M_resetEv, symObjAddr: 0x2F0, symBinAddr: 0x100001970, symSize: 0x3C }
  - { offsetInCU: 0x2BD5A, offset: 0x2BD5A, size: 0x8, addend: 0x0, symName: __ZNSt15_Rb_tree_headerC2Ev, symObjAddr: 0x2C8, symBinAddr: 0x100001948, symSize: 0x28 }
  - { offsetInCU: 0x2BD65, offset: 0x2BD65, size: 0x8, addend: 0x0, symName: __ZSt3minImERKT_S2_S2_, symObjAddr: 0x290, symBinAddr: 0x100001910, symSize: 0x38 }
  - { offsetInCU: 0x2BDAB, offset: 0x2BDAB, size: 0x8, addend: 0x0, symName: __ZNSt8__detail20_Prime_rehash_policy8_M_resetEm, symObjAddr: 0x26C, symBinAddr: 0x1000018EC, symSize: 0x24 }
  - { offsetInCU: 0x2BDE6, offset: 0x2BDE6, size: 0x8, addend: 0x0, symName: __ZNKSt8__detail20_Prime_rehash_policy8_M_stateEv, symObjAddr: 0x254, symBinAddr: 0x1000018D4, symSize: 0x18 }
  - { offsetInCU: 0x2BE5D, offset: 0x2BE5D, size: 0x8, addend: 0x0, symName: __ZNSt8__detail20_Prime_rehash_policyC1Ef, symObjAddr: 0x228, symBinAddr: 0x1000018A8, symSize: 0x2C }
  - { offsetInCU: 0x2BE67, offset: 0x2BE67, size: 0x8, addend: 0x0, symName: __ZNKSt8__detail18_Mod_range_hashingclEmm, symObjAddr: 0x1F8, symBinAddr: 0x100001878, symSize: 0x30 }
  - { offsetInCU: 0x2BEED, offset: 0x2BEED, size: 0x8, addend: 0x0, symName: __ZNSt8__detail15_Hash_node_baseC1Ev, symObjAddr: 0x1DC, symBinAddr: 0x10000185C, symSize: 0x1C }
  - { offsetInCU: 0x2BF17, offset: 0x2BF17, size: 0x8, addend: 0x0, symName: __ZNSt8__detail15_Hash_node_baseC2Ev, symObjAddr: 0x1C0, symBinAddr: 0x100001840, symSize: 0x1C }
  - { offsetInCU: 0x2BF19, offset: 0x2BF19, size: 0x8, addend: 0x0, symName: __ZNSt10_Hash_impl4hashEPKvmm, symObjAddr: 0x194, symBinAddr: 0x100001814, symSize: 0x2C }
  - { offsetInCU: 0x2BF62, offset: 0x2BF62, size: 0x8, addend: 0x0, symName: __ZNSt11char_traitsIcE6lengthEPKc, symObjAddr: 0x158, symBinAddr: 0x1000017D8, symSize: 0x3C }
  - { offsetInCU: 0x2BFA6, offset: 0x2BFA6, size: 0x8, addend: 0x0, symName: __ZNSt11char_traitsIcE7compareEPKcS2_m, symObjAddr: 0x68, symBinAddr: 0x1000016E8, symSize: 0xF0 }
  - { offsetInCU: 0x2C030, offset: 0x2C030, size: 0x8, addend: 0x0, symName: __ZNSt11char_traitsIcE2ltERKcS2_, symObjAddr: 0x30, symBinAddr: 0x1000016B0, symSize: 0x38 }
  - { offsetInCU: 0x2C078, offset: 0x2C078, size: 0x8, addend: 0x0, symName: __ZdlPvS_, symObjAddr: 0x18, symBinAddr: 0x100001698, symSize: 0x18 }
  - { offsetInCU: 0x2C0AD, offset: 0x2C0AD, size: 0x8, addend: 0x0, symName: __ZnwmPv, symObjAddr: 0x0, symBinAddr: 0x100001680, symSize: 0x18 }
...
