---
triple:          'arm64-apple-darwin'
binary-path:     '/Users/pai/code/CU Grader/output/Texting'
relocations:
  - { offsetInCU: 0x1F5EB, offset: 0x1F5EB, size: 0x8, addend: 0x0, symName: __ZStL8__ioinit, symObjAddr: 0xAA588, symBinAddr: 0x100010000, symSize: 0x0 }
  - { offsetInCU: 0x1FB3E, offset: 0x1FB3E, size: 0x8, addend: 0x0, symName: __Z3t2kB5cxx11, symObjAddr: 0xAA590, symBinAddr: 0x100010008, symSize: 0x0 }
  - { offsetInCU: 0x1FD33, offset: 0x1FD33, size: 0x8, addend: 0x0, symName: __Z3k2tB5cxx11, symObjAddr: 0xAA5C0, symBinAddr: 0x100010038, symSize: 0x0 }
  - { offsetInCU: 0x20161, offset: 0x20161, size: 0x8, addend: 0x0, symName: __ZNSt3mapINSt7__cxx1112basic_stringIcSt11char_traitsIcESaIcEEEcSt4lessIS5_ESaISt4pairIKS5_cEEED1Ev, symObjAddr: 0x43B8, symBinAddr: 0x1000071F4, symSize: 0x20 }
  - { offsetInCU: 0x201A9, offset: 0x201A9, size: 0x8, addend: 0x0, symName: __ZNSt3mapIcNSt7__cxx1112basic_stringIcSt11char_traitsIcESaIcEEESt4lessIcESaISt4pairIKcS5_EEED1Ev, symObjAddr: 0x4398, symBinAddr: 0x1000071D4, symSize: 0x20 }
  - { offsetInCU: 0x2016E, offset: 0x2016E, size: 0x8, addend: 0x0, symName: __ZNSt10_Head_baseILm0ERKNSt7__cxx1112basic_stringIcSt11char_traitsIcESaIcEEELb0EE7_M_headERS8_, symObjAddr: 0x4380, symBinAddr: 0x1000071BC, symSize: 0x18 }
  - { offsetInCU: 0x20197, offset: 0x20197, size: 0x8, addend: 0x0, symName: __ZNSt10_Head_baseILm0ERKcLb0EE7_M_headERS2_, symObjAddr: 0x4368, symBinAddr: 0x1000071A4, symSize: 0x18 }
  - { offsetInCU: 0x201C0, offset: 0x201C0, size: 0x8, addend: 0x0, symName: __ZNSt11_Tuple_implILm0EJRKNSt7__cxx1112basic_stringIcSt11char_traitsIcESaIcEEEEE7_M_headERS8_, symObjAddr: 0x434C, symBinAddr: 0x100007188, symSize: 0x1C }
  - { offsetInCU: 0x201EA, offset: 0x201EA, size: 0x8, addend: 0x0, symName: __ZNSt11_Tuple_implILm0EJRKcEE7_M_headERS2_, symObjAddr: 0x4330, symBinAddr: 0x10000716C, symSize: 0x1C }
  - { offsetInCU: 0x20214, offset: 0x20214, size: 0x8, addend: 0x0, symName: __ZSt12__get_helperILm0ERKNSt7__cxx1112basic_stringIcSt11char_traitsIcESaIcEEEJEERT0_RSt11_Tuple_implIXT_EJS8_DpT1_EE, symObjAddr: 0x4314, symBinAddr: 0x100007150, symSize: 0x1C }
  - { offsetInCU: 0x20256, offset: 0x20256, size: 0x8, addend: 0x0, symName: __ZSt12__get_helperILm0ERKcJEERT0_RSt11_Tuple_implIXT_EJS2_DpT1_EE, symObjAddr: 0x42F8, symBinAddr: 0x100007134, symSize: 0x1C }
  - { offsetInCU: 0x2029E, offset: 0x2029E, size: 0x8, addend: 0x0, symName: __ZSt7forwardIRKNSt7__cxx1112basic_stringIcSt11char_traitsIcESaIcEEEEOT_RNSt16remove_referenceIS8_E4typeE, symObjAddr: 0x42E4, symBinAddr: 0x100007120, symSize: 0x14 }
  - { offsetInCU: 0x202D0, offset: 0x202D0, size: 0x8, addend: 0x0, symName: __ZSt3getILm0EJRKNSt7__cxx1112basic_stringIcSt11char_traitsIcESaIcEEEEERNSt13tuple_elementIXT_ESt5tupleIJDpT0_EEE4typeERSC_, symObjAddr: 0x42C8, symBinAddr: 0x100007104, symSize: 0x1C }
  - { offsetInCU: 0x20315, offset: 0x20315, size: 0x8, addend: 0x0, symName: __ZSt7forwardIRKcEOT_RNSt16remove_referenceIS2_E4typeE, symObjAddr: 0x42B4, symBinAddr: 0x1000070F0, symSize: 0x14 }
  - { offsetInCU: 0x20347, offset: 0x20347, size: 0x8, addend: 0x0, symName: __ZSt3getILm0EJRKcEERNSt13tuple_elementIXT_ESt5tupleIJDpT0_EEE4typeERS6_, symObjAddr: 0x4298, symBinAddr: 0x1000070D4, symSize: 0x1C }
  - { offsetInCU: 0x2048E, offset: 0x2048E, size: 0x8, addend: 0x0, symName: __ZNSt4pairIKNSt7__cxx1112basic_stringIcSt11char_traitsIcESaIcEEEcEC1IJRS6_EJLm0EEJEJEEERSt5tupleIJDpT_EERSA_IJDpT1_EESt12_Index_tupleIJXspT0_EEESJ_IJXspT2_EEE, symObjAddr: 0x4244, symBinAddr: 0x100007080, symSize: 0x54 }
  - { offsetInCU: 0x2056A, offset: 0x2056A, size: 0x8, addend: 0x0, symName: __ZNSt4pairIKcNSt7__cxx1112basic_stringIcSt11char_traitsIcESaIcEEEEC1IJRS0_EJLm0EEJEJEEERSt5tupleIJDpT_EERSA_IJDpT1_EESt12_Index_tupleIJXspT0_EEESJ_IJXspT2_EEE, symObjAddr: 0x41F8, symBinAddr: 0x100007034, symSize: 0x4C }
  - { offsetInCU: 0x205EA, offset: 0x205EA, size: 0x8, addend: 0x0, symName: __ZNSt4pairIKNSt7__cxx1112basic_stringIcSt11char_traitsIcESaIcEEEcEC1ERKS7_, symObjAddr: 0x41C0, symBinAddr: 0x100006FFC, symSize: 0x38 }
  - { offsetInCU: 0x2067A, offset: 0x2067A, size: 0x8, addend: 0x0, symName: __ZNSt4pairIKcNSt7__cxx1112basic_stringIcSt11char_traitsIcESaIcEEEEC1ERKS7_, symObjAddr: 0x4178, symBinAddr: 0x100006FB4, symSize: 0x48 }
  - { offsetInCU: 0x2072E, offset: 0x2072E, size: 0x8, addend: 0x0, symName: __ZNSt4pairIKNSt7__cxx1112basic_stringIcSt11char_traitsIcESaIcEEEcEC1IJRS6_EJEEESt21piecewise_construct_tSt5tupleIJDpT_EESB_IJDpT0_EE, symObjAddr: 0x413C, symBinAddr: 0x100006F78, symSize: 0x3C }
  - { offsetInCU: 0x2077B, offset: 0x2077B, size: 0x8, addend: 0x0, symName: __ZNSt11_Tuple_implILm0EJRKNSt7__cxx1112basic_stringIcSt11char_traitsIcESaIcEEEEEC2EOS8_, symObjAddr: 0x4114, symBinAddr: 0x100006F50, symSize: 0x28 }
  - { offsetInCU: 0x20822, offset: 0x20822, size: 0x8, addend: 0x0, symName: __ZNSt4pairIKcNSt7__cxx1112basic_stringIcSt11char_traitsIcESaIcEEEEC1IJRS0_EJEEESt21piecewise_construct_tSt5tupleIJDpT_EESB_IJDpT0_EE, symObjAddr: 0x40D8, symBinAddr: 0x100006F14, symSize: 0x3C }
  - { offsetInCU: 0x2083C, offset: 0x2083C, size: 0x8, addend: 0x0, symName: __ZNSt11_Tuple_implILm0EJRKcEEC2EOS2_, symObjAddr: 0x40B0, symBinAddr: 0x100006EEC, symSize: 0x28 }
  - { offsetInCU: 0x208D7, offset: 0x208D7, size: 0x8, addend: 0x0, symName: __ZNK9__gnu_cxx16__aligned_membufISt4pairIKNSt7__cxx1112basic_stringIcSt11char_traitsIcESaIcEEEcEE7_M_addrEv, symObjAddr: 0x409C, symBinAddr: 0x100006ED8, symSize: 0x14 }
  - { offsetInCU: 0x209CB, offset: 0x209CB, size: 0x8, addend: 0x0, symName: __ZNSt5tupleIJRKNSt7__cxx1112basic_stringIcSt11char_traitsIcESaIcEEEEEC1EOS8_, symObjAddr: 0x4074, symBinAddr: 0x100006EB0, symSize: 0x28 }
  - { offsetInCU: 0x209B1, offset: 0x209B1, size: 0x8, addend: 0x0, symName: __ZNSt15__new_allocatorISt13_Rb_tree_nodeISt4pairIKNSt7__cxx1112basic_stringIcSt11char_traitsIcESaIcEEEcEEE8allocateEmPKv, symObjAddr: 0x3FDC, symBinAddr: 0x100006E18, symSize: 0x98 }
  - { offsetInCU: 0x20A42, offset: 0x20A42, size: 0x8, addend: 0x0, symName: __ZNK9__gnu_cxx16__aligned_membufISt4pairIKcNSt7__cxx1112basic_stringIcSt11char_traitsIcESaIcEEEEE7_M_addrEv, symObjAddr: 0x3FC8, symBinAddr: 0x100006E04, symSize: 0x14 }
  - { offsetInCU: 0x20AF6, offset: 0x20AF6, size: 0x8, addend: 0x0, symName: __ZNSt5tupleIJRKcEEC1EOS2_, symObjAddr: 0x3FA0, symBinAddr: 0x100006DDC, symSize: 0x28 }
  - { offsetInCU: 0x20B0F, offset: 0x20B0F, size: 0x8, addend: 0x0, symName: __ZNSt15__new_allocatorISt13_Rb_tree_nodeISt4pairIKcNSt7__cxx1112basic_stringIcSt11char_traitsIcESaIcEEEEEE8allocateEmPKv, symObjAddr: 0x3F08, symBinAddr: 0x100006D44, symSize: 0x98 }
  - { offsetInCU: 0x20B9B, offset: 0x20B9B, size: 0x8, addend: 0x0, symName: __ZNSt8_Rb_treeINSt7__cxx1112basic_stringIcSt11char_traitsIcESaIcEEESt4pairIKS5_cESt10_Select1stIS8_ESt4lessIS5_ESaIS8_EE17_M_construct_nodeIJRKS8_EEEvPSt13_Rb_tree_nodeIS8_EDpOT_, symObjAddr: 0x3E04, symBinAddr: 0x100006C40, symSize: 0x104 }
  - { offsetInCU: 0x20C56, offset: 0x20C56, size: 0x8, addend: 0x0, symName: __ZNSt15__new_allocatorISt13_Rb_tree_nodeISt4pairIKNSt7__cxx1112basic_stringIcSt11char_traitsIcESaIcEEEcEEE10deallocateEPSA_m, symObjAddr: 0x3DC8, symBinAddr: 0x100006C04, symSize: 0x3C }
  - { offsetInCU: 0x20CCC, offset: 0x20CCC, size: 0x8, addend: 0x0, symName: __ZNSt8_Rb_treeIcSt4pairIKcNSt7__cxx1112basic_stringIcSt11char_traitsIcESaIcEEEESt10_Select1stIS8_ESt4lessIcESaIS8_EE17_M_construct_nodeIJRKS8_EEEvPSt13_Rb_tree_nodeIS8_EDpOT_, symObjAddr: 0x3CC4, symBinAddr: 0x100006B00, symSize: 0x104 }
  - { offsetInCU: 0x20D87, offset: 0x20D87, size: 0x8, addend: 0x0, symName: __ZNSt15__new_allocatorISt13_Rb_tree_nodeISt4pairIKcNSt7__cxx1112basic_stringIcSt11char_traitsIcESaIcEEEEEE10deallocateEPSA_m, symObjAddr: 0x3C88, symBinAddr: 0x100006AC4, symSize: 0x3C }
  - { offsetInCU: 0x20DFD, offset: 0x20DFD, size: 0x8, addend: 0x0, symName: __ZNK9__gnu_cxx16__aligned_membufISt4pairIKNSt7__cxx1112basic_stringIcSt11char_traitsIcESaIcEEEcEE6_M_ptrEv, symObjAddr: 0x3C6C, symBinAddr: 0x100006AA8, symSize: 0x1C }
  - { offsetInCU: 0x20E2F, offset: 0x20E2F, size: 0x8, addend: 0x0, symName: __ZSt7forwardIRPSt13_Rb_tree_nodeISt4pairIKNSt7__cxx1112basic_stringIcSt11char_traitsIcESaIcEEEcEEEOT_RNSt16remove_referenceISD_E4typeE, symObjAddr: 0x3C58, symBinAddr: 0x100006A94, symSize: 0x14 }
  - { offsetInCU: 0x20EE1, offset: 0x20EE1, size: 0x8, addend: 0x0, symName: __ZNK9__gnu_cxx16__aligned_membufISt4pairIKcNSt7__cxx1112basic_stringIcSt11char_traitsIcESaIcEEEEE6_M_ptrEv, symObjAddr: 0x3C3C, symBinAddr: 0x100006A78, symSize: 0x1C }
  - { offsetInCU: 0x20F13, offset: 0x20F13, size: 0x8, addend: 0x0, symName: __ZSt7forwardIRPSt13_Rb_tree_nodeISt4pairIKcNSt7__cxx1112basic_stringIcSt11char_traitsIcESaIcEEEEEEOT_RNSt16remove_referenceISD_E4typeE, symObjAddr: 0x3C28, symBinAddr: 0x100006A64, symSize: 0x14 }
  - { offsetInCU: 0x20FC5, offset: 0x20FC5, size: 0x8, addend: 0x0, symName: __ZNSt8_Rb_treeINSt7__cxx1112basic_stringIcSt11char_traitsIcESaIcEEESt4pairIKS5_cESt10_Select1stIS8_ESt4lessIS5_ESaIS8_EE14_M_create_nodeIJRKS8_EEEPSt13_Rb_tree_nodeIS8_EDpOT_, symObjAddr: 0x3BE8, symBinAddr: 0x100006A24, symSize: 0x40 }
  - { offsetInCU: 0x2107A, offset: 0x2107A, size: 0x8, addend: 0x0, symName: __ZNSt8_Rb_treeINSt7__cxx1112basic_stringIcSt11char_traitsIcESaIcEEESt4pairIKS5_cESt10_Select1stIS8_ESt4lessIS5_ESaIS8_EE21_M_get_Node_allocatorEv, symObjAddr: 0x3BD4, symBinAddr: 0x100006A10, symSize: 0x14 }
  - { offsetInCU: 0x210A4, offset: 0x210A4, size: 0x8, addend: 0x0, symName: __ZNSt8_Rb_treeIcSt4pairIKcNSt7__cxx1112basic_stringIcSt11char_traitsIcESaIcEEEESt10_Select1stIS8_ESt4lessIcESaIS8_EE14_M_create_nodeIJRKS8_EEEPSt13_Rb_tree_nodeIS8_EDpOT_, symObjAddr: 0x3B94, symBinAddr: 0x1000069D0, symSize: 0x40 }
  - { offsetInCU: 0x21159, offset: 0x21159, size: 0x8, addend: 0x0, symName: __ZNSt8_Rb_treeIcSt4pairIKcNSt7__cxx1112basic_stringIcSt11char_traitsIcESaIcEEEESt10_Select1stIS8_ESt4lessIcESaIS8_EE21_M_get_Node_allocatorEv, symObjAddr: 0x3B80, symBinAddr: 0x1000069BC, symSize: 0x14 }
  - { offsetInCU: 0x21183, offset: 0x21183, size: 0x8, addend: 0x0, symName: __ZNKSt13_Rb_tree_nodeISt4pairIKNSt7__cxx1112basic_stringIcSt11char_traitsIcESaIcEEEcEE9_M_valptrEv, symObjAddr: 0x3B60, symBinAddr: 0x10000699C, symSize: 0x20 }
  - { offsetInCU: 0x2127B, offset: 0x2127B, size: 0x8, addend: 0x0, symName: __ZNSt4pairIPSt18_Rb_tree_node_baseS1_EC1IRPSt13_Rb_tree_nodeIS_IKNSt7__cxx1112basic_stringIcSt11char_traitsIcESaIcEEEcEERS1_Lb1EEEOT_OT0_, symObjAddr: 0x3B18, symBinAddr: 0x100006954, symSize: 0x48 }
  - { offsetInCU: 0x2123F, offset: 0x2123F, size: 0x8, addend: 0x0, symName: __ZNSt8_Rb_treeINSt7__cxx1112basic_stringIcSt11char_traitsIcESaIcEEESt4pairIKS5_cESt10_Select1stIS8_ESt4lessIS5_ESaIS8_EE5beginEv, symObjAddr: 0x3AF0, symBinAddr: 0x10000692C, symSize: 0x28 }
  - { offsetInCU: 0x21269, offset: 0x21269, size: 0x8, addend: 0x0, symName: __ZNSt8_Rb_treeINSt7__cxx1112basic_stringIcSt11char_traitsIcESaIcEEESt4pairIKS5_cESt10_Select1stIS8_ESt4lessIS5_ESaIS8_EE17_M_construct_nodeIJRKSt21piecewise_construct_tSt5tupleIJRS7_EESJ_IJEEEEEvPSt13_Rb_tree_nodeIS8_EDpOT_, symObjAddr: 0x3974, symBinAddr: 0x1000067B0, symSize: 0x17C }
  - { offsetInCU: 0x2136A, offset: 0x2136A, size: 0x8, addend: 0x0, symName: __ZNSt8_Rb_treeINSt7__cxx1112basic_stringIcSt11char_traitsIcESaIcEEESt4pairIKS5_cESt10_Select1stIS8_ESt4lessIS5_ESaIS8_EE11_M_get_nodeEv, symObjAddr: 0x3938, symBinAddr: 0x100006774, symSize: 0x3C }
  - { offsetInCU: 0x213C6, offset: 0x213C6, size: 0x8, addend: 0x0, symName: __ZN9__gnu_cxx16__aligned_membufISt4pairIKNSt7__cxx1112basic_stringIcSt11char_traitsIcESaIcEEEcEE7_M_addrEv, symObjAddr: 0x3924, symBinAddr: 0x100006760, symSize: 0x14 }
  - { offsetInCU: 0x213EF, offset: 0x213EF, size: 0x8, addend: 0x0, symName: __ZNKSt13_Rb_tree_nodeISt4pairIKcNSt7__cxx1112basic_stringIcSt11char_traitsIcESaIcEEEEE9_M_valptrEv, symObjAddr: 0x3904, symBinAddr: 0x100006740, symSize: 0x20 }
  - { offsetInCU: 0x2141B, offset: 0x2141B, size: 0x8, addend: 0x0, symName: __ZSt7forwardIRPSt18_Rb_tree_node_baseEOT_RNSt16remove_referenceIS3_E4typeE, symObjAddr: 0x38F0, symBinAddr: 0x10000672C, symSize: 0x14 }
  - { offsetInCU: 0x2151F, offset: 0x2151F, size: 0x8, addend: 0x0, symName: __ZNSt4pairIPSt18_Rb_tree_node_baseS1_EC1IRPSt13_Rb_tree_nodeIS_IKcNSt7__cxx1112basic_stringIcSt11char_traitsIcESaIcEEEEERS1_Lb1EEEOT_OT0_, symObjAddr: 0x38A8, symBinAddr: 0x1000066E4, symSize: 0x48 }
  - { offsetInCU: 0x214E3, offset: 0x214E3, size: 0x8, addend: 0x0, symName: __ZNSt8_Rb_treeIcSt4pairIKcNSt7__cxx1112basic_stringIcSt11char_traitsIcESaIcEEEESt10_Select1stIS8_ESt4lessIcESaIS8_EE5beginEv, symObjAddr: 0x3880, symBinAddr: 0x1000066BC, symSize: 0x28 }
  - { offsetInCU: 0x2150D, offset: 0x2150D, size: 0x8, addend: 0x0, symName: __ZNSt8_Rb_treeIcSt4pairIKcNSt7__cxx1112basic_stringIcSt11char_traitsIcESaIcEEEESt10_Select1stIS8_ESt4lessIcESaIS8_EE17_M_construct_nodeIJRKSt21piecewise_construct_tSt5tupleIJRS1_EESJ_IJEEEEEvPSt13_Rb_tree_nodeIS8_EDpOT_, symObjAddr: 0x3704, symBinAddr: 0x100006540, symSize: 0x17C }
  - { offsetInCU: 0x2160E, offset: 0x2160E, size: 0x8, addend: 0x0, symName: __ZNSt8_Rb_treeIcSt4pairIKcNSt7__cxx1112basic_stringIcSt11char_traitsIcESaIcEEEESt10_Select1stIS8_ESt4lessIcESaIS8_EE11_M_get_nodeEv, symObjAddr: 0x36C8, symBinAddr: 0x100006504, symSize: 0x3C }
  - { offsetInCU: 0x2166A, offset: 0x2166A, size: 0x8, addend: 0x0, symName: __ZN9__gnu_cxx16__aligned_membufISt4pairIKcNSt7__cxx1112basic_stringIcSt11char_traitsIcESaIcEEEEE7_M_addrEv, symObjAddr: 0x36B4, symBinAddr: 0x1000064F0, symSize: 0x14 }
  - { offsetInCU: 0x2169E, offset: 0x2169E, size: 0x8, addend: 0x0, symName: __ZNKSt8_Rb_treeINSt7__cxx1112basic_stringIcSt11char_traitsIcESaIcEEESt4pairIKS5_cESt10_Select1stIS8_ESt4lessIS5_ESaIS8_EE11_Alloc_nodeclIRKS8_EEPSt13_Rb_tree_nodeIS8_EOT_, symObjAddr: 0x3678, symBinAddr: 0x1000064B4, symSize: 0x3C }
  - { offsetInCU: 0x216E2, offset: 0x216E2, size: 0x8, addend: 0x0, symName: __ZNSt8_Rb_treeINSt7__cxx1112basic_stringIcSt11char_traitsIcESaIcEEESt4pairIKS5_cESt10_Select1stIS8_ESt4lessIS5_ESaIS8_EE11_M_put_nodeEPSt13_Rb_tree_nodeIS8_E, symObjAddr: 0x362C, symBinAddr: 0x100006468, symSize: 0x4C }
  - { offsetInCU: 0x21753, offset: 0x21753, size: 0x8, addend: 0x0, symName: __ZNSt8_Rb_treeINSt7__cxx1112basic_stringIcSt11char_traitsIcESaIcEEESt4pairIKS5_cESt10_Select1stIS8_ESt4lessIS5_ESaIS8_EE15_M_destroy_nodeEPSt13_Rb_tree_nodeIS8_E, symObjAddr: 0x35CC, symBinAddr: 0x100006408, symSize: 0x60 }
  - { offsetInCU: 0x2180E, offset: 0x2180E, size: 0x8, addend: 0x0, symName: __ZNKSt8_Rb_treeIcSt4pairIKcNSt7__cxx1112basic_stringIcSt11char_traitsIcESaIcEEEESt10_Select1stIS8_ESt4lessIcESaIS8_EE11_Alloc_nodeclIRKS8_EEPSt13_Rb_tree_nodeIS8_EOT_, symObjAddr: 0x3590, symBinAddr: 0x1000063CC, symSize: 0x3C }
  - { offsetInCU: 0x21852, offset: 0x21852, size: 0x8, addend: 0x0, symName: __ZNSt8_Rb_treeIcSt4pairIKcNSt7__cxx1112basic_stringIcSt11char_traitsIcESaIcEEEESt10_Select1stIS8_ESt4lessIcESaIS8_EE11_M_put_nodeEPSt13_Rb_tree_nodeIS8_E, symObjAddr: 0x3544, symBinAddr: 0x100006380, symSize: 0x4C }
  - { offsetInCU: 0x218C3, offset: 0x218C3, size: 0x8, addend: 0x0, symName: __ZNSt8_Rb_treeIcSt4pairIKcNSt7__cxx1112basic_stringIcSt11char_traitsIcESaIcEEEESt10_Select1stIS8_ESt4lessIcESaIS8_EE15_M_destroy_nodeEPSt13_Rb_tree_nodeIS8_E, symObjAddr: 0x34E4, symBinAddr: 0x100006320, symSize: 0x60 }
  - { offsetInCU: 0x21973, offset: 0x21973, size: 0x8, addend: 0x0, symName: __ZNSt8_Rb_treeINSt7__cxx1112basic_stringIcSt11char_traitsIcESaIcEEESt4pairIKS5_cESt10_Select1stIS8_ESt4lessIS5_ESaIS8_EE14_M_insert_nodeEPSt18_Rb_tree_node_baseSG_PSt13_Rb_tree_nodeIS8_E, symObjAddr: 0x3414, symBinAddr: 0x100006250, symSize: 0xD0 }
  - { offsetInCU: 0x219DD, offset: 0x219DD, size: 0x8, addend: 0x0, symName: __ZNSt8_Rb_treeINSt7__cxx1112basic_stringIcSt11char_traitsIcESaIcEEESt4pairIKS5_cESt10_Select1stIS8_ESt4lessIS5_ESaIS8_EE6_S_keyEPKSt13_Rb_tree_nodeIS8_E, symObjAddr: 0x33EC, symBinAddr: 0x100006228, symSize: 0x28 }
  - { offsetInCU: 0x21A0B, offset: 0x21A0B, size: 0x8, addend: 0x0, symName: __ZNSt17_Rb_tree_iteratorISt4pairIKNSt7__cxx1112basic_stringIcSt11char_traitsIcESaIcEEEcEEppEv, symObjAddr: 0x33BC, symBinAddr: 0x1000061F8, symSize: 0x30 }
  - { offsetInCU: 0x21A35, offset: 0x21A35, size: 0x8, addend: 0x0, symName: __ZNSt17_Rb_tree_iteratorISt4pairIKNSt7__cxx1112basic_stringIcSt11char_traitsIcESaIcEEEcEEmmEv, symObjAddr: 0x338C, symBinAddr: 0x1000061C8, symSize: 0x30 }
  - { offsetInCU: 0x21A5F, offset: 0x21A5F, size: 0x8, addend: 0x0, symName: __ZNSt8_Rb_treeINSt7__cxx1112basic_stringIcSt11char_traitsIcESaIcEEESt4pairIKS5_cESt10_Select1stIS8_ESt4lessIS5_ESaIS8_EE11_M_leftmostEv, symObjAddr: 0x3374, symBinAddr: 0x1000061B0, symSize: 0x18 }
  - { offsetInCU: 0x21A89, offset: 0x21A89, size: 0x8, addend: 0x0, symName: __ZNSt8_Rb_treeINSt7__cxx1112basic_stringIcSt11char_traitsIcESaIcEEESt4pairIKS5_cESt10_Select1stIS8_ESt4lessIS5_ESaIS8_EE24_M_get_insert_unique_posERS7_, symObjAddr: 0x321C, symBinAddr: 0x100006058, symSize: 0x158 }
  - { offsetInCU: 0x21B09, offset: 0x21B09, size: 0x8, addend: 0x0, symName: __ZNSt8_Rb_treeINSt7__cxx1112basic_stringIcSt11char_traitsIcESaIcEEESt4pairIKS5_cESt10_Select1stIS8_ESt4lessIS5_ESaIS8_EE6_S_keyEPKSt18_Rb_tree_node_base, symObjAddr: 0x3200, symBinAddr: 0x10000603C, symSize: 0x1C }
  - { offsetInCU: 0x21B37, offset: 0x21B37, size: 0x8, addend: 0x0, symName: __ZNSt8_Rb_treeINSt7__cxx1112basic_stringIcSt11char_traitsIcESaIcEEESt4pairIKS5_cESt10_Select1stIS8_ESt4lessIS5_ESaIS8_EE12_M_rightmostEv, symObjAddr: 0x31E8, symBinAddr: 0x100006024, symSize: 0x18 }
  - { offsetInCU: 0x21B61, offset: 0x21B61, size: 0x8, addend: 0x0, symName: __ZNKSt8_Rb_treeINSt7__cxx1112basic_stringIcSt11char_traitsIcESaIcEEESt4pairIKS5_cESt10_Select1stIS8_ESt4lessIS5_ESaIS8_EE4sizeEv, symObjAddr: 0x31D0, symBinAddr: 0x10000600C, symSize: 0x18 }
  - { offsetInCU: 0x21B8B, offset: 0x21B8B, size: 0x8, addend: 0x0, symName: __ZNKSt23_Rb_tree_const_iteratorISt4pairIKNSt7__cxx1112basic_stringIcSt11char_traitsIcESaIcEEEcEE13_M_const_castEv, symObjAddr: 0x31A8, symBinAddr: 0x100005FE4, symSize: 0x28 }
  - { offsetInCU: 0x21BB5, offset: 0x21BB5, size: 0x8, addend: 0x0, symName: __ZNSt8_Rb_treeINSt7__cxx1112basic_stringIcSt11char_traitsIcESaIcEEESt4pairIKS5_cESt10_Select1stIS8_ESt4lessIS5_ESaIS8_EE14_M_create_nodeIJRKSt21piecewise_construct_tSt5tupleIJRS7_EESJ_IJEEEEEPSt13_Rb_tree_nodeIS8_EDpOT_, symObjAddr: 0x3138, symBinAddr: 0x100005F74, symSize: 0x70 }
  - { offsetInCU: 0x21CA2, offset: 0x21CA2, size: 0x8, addend: 0x0, symName: __ZNSt10_Head_baseILm0ERKNSt7__cxx1112basic_stringIcSt11char_traitsIcESaIcEEELb0EEC2ES7_, symObjAddr: 0x3114, symBinAddr: 0x100005F50, symSize: 0x24 }
  - { offsetInCU: 0x21C7D, offset: 0x21C7D, size: 0x8, addend: 0x0, symName: __ZN9__gnu_cxx16__aligned_membufISt4pairIKNSt7__cxx1112basic_stringIcSt11char_traitsIcESaIcEEEcEE6_M_ptrEv, symObjAddr: 0x30F8, symBinAddr: 0x100005F34, symSize: 0x1C }
  - { offsetInCU: 0x21CA7, offset: 0x21CA7, size: 0x8, addend: 0x0, symName: __ZNSt8_Rb_treeINSt7__cxx1112basic_stringIcSt11char_traitsIcESaIcEEESt4pairIKS5_cESt10_Select1stIS8_ESt4lessIS5_ESaIS8_EE14_M_lower_boundEPSt13_Rb_tree_nodeIS8_EPSt18_Rb_tree_node_baseRS7_, symObjAddr: 0x305C, symBinAddr: 0x100005E98, symSize: 0x9C }
  - { offsetInCU: 0x21D04, offset: 0x21D04, size: 0x8, addend: 0x0, symName: __ZNSt8_Rb_treeINSt7__cxx1112basic_stringIcSt11char_traitsIcESaIcEEESt4pairIKS5_cESt10_Select1stIS8_ESt4lessIS5_ESaIS8_EE6_M_endEv, symObjAddr: 0x3044, symBinAddr: 0x100005E80, symSize: 0x18 }
  - { offsetInCU: 0x21D2E, offset: 0x21D2E, size: 0x8, addend: 0x0, symName: __ZNSt8_Rb_treeIcSt4pairIKcNSt7__cxx1112basic_stringIcSt11char_traitsIcESaIcEEEESt10_Select1stIS8_ESt4lessIcESaIS8_EE14_M_insert_nodeEPSt18_Rb_tree_node_baseSG_PSt13_Rb_tree_nodeIS8_E, symObjAddr: 0x2F74, symBinAddr: 0x100005DB0, symSize: 0xD0 }
  - { offsetInCU: 0x21D98, offset: 0x21D98, size: 0x8, addend: 0x0, symName: __ZNSt8_Rb_treeIcSt4pairIKcNSt7__cxx1112basic_stringIcSt11char_traitsIcESaIcEEEESt10_Select1stIS8_ESt4lessIcESaIS8_EE6_S_keyEPKSt13_Rb_tree_nodeIS8_E, symObjAddr: 0x2F4C, symBinAddr: 0x100005D88, symSize: 0x28 }
  - { offsetInCU: 0x21DC6, offset: 0x21DC6, size: 0x8, addend: 0x0, symName: __ZNSt17_Rb_tree_iteratorISt4pairIKcNSt7__cxx1112basic_stringIcSt11char_traitsIcESaIcEEEEEppEv, symObjAddr: 0x2F1C, symBinAddr: 0x100005D58, symSize: 0x30 }
  - { offsetInCU: 0x21DF0, offset: 0x21DF0, size: 0x8, addend: 0x0, symName: __ZNSt17_Rb_tree_iteratorISt4pairIKcNSt7__cxx1112basic_stringIcSt11char_traitsIcESaIcEEEEEmmEv, symObjAddr: 0x2EEC, symBinAddr: 0x100005D28, symSize: 0x30 }
  - { offsetInCU: 0x21E9C, offset: 0x21E9C, size: 0x8, addend: 0x0, symName: __ZNSt4pairIPSt18_Rb_tree_node_baseS1_EC1IRS1_S4_Lb1EEEOT_OT0_, symObjAddr: 0x2EA4, symBinAddr: 0x100005CE0, symSize: 0x48 }
  - { offsetInCU: 0x21EAC, offset: 0x21EAC, size: 0x8, addend: 0x0, symName: __ZNSt8_Rb_treeIcSt4pairIKcNSt7__cxx1112basic_stringIcSt11char_traitsIcESaIcEEEESt10_Select1stIS8_ESt4lessIcESaIS8_EE11_M_leftmostEv, symObjAddr: 0x2E8C, symBinAddr: 0x100005CC8, symSize: 0x18 }
  - { offsetInCU: 0x21ED6, offset: 0x21ED6, size: 0x8, addend: 0x0, symName: __ZNSt8_Rb_treeIcSt4pairIKcNSt7__cxx1112basic_stringIcSt11char_traitsIcESaIcEEEESt10_Select1stIS8_ESt4lessIcESaIS8_EE24_M_get_insert_unique_posERS1_, symObjAddr: 0x2D34, symBinAddr: 0x100005B70, symSize: 0x158 }
  - { offsetInCU: 0x21FDC, offset: 0x21FDC, size: 0x8, addend: 0x0, symName: __ZNSt4pairIPSt18_Rb_tree_node_baseS1_EC1IS1_S1_Lb1EEERKS1_S5_, symObjAddr: 0x2CF8, symBinAddr: 0x100005B34, symSize: 0x3C }
  - { offsetInCU: 0x21FE8, offset: 0x21FE8, size: 0x8, addend: 0x0, symName: __ZNSt8_Rb_treeIcSt4pairIKcNSt7__cxx1112basic_stringIcSt11char_traitsIcESaIcEEEESt10_Select1stIS8_ESt4lessIcESaIS8_EE6_S_keyEPKSt18_Rb_tree_node_base, symObjAddr: 0x2CDC, symBinAddr: 0x100005B18, symSize: 0x1C }
  - { offsetInCU: 0x22016, offset: 0x22016, size: 0x8, addend: 0x0, symName: __ZNSt8_Rb_treeIcSt4pairIKcNSt7__cxx1112basic_stringIcSt11char_traitsIcESaIcEEEESt10_Select1stIS8_ESt4lessIcESaIS8_EE12_M_rightmostEv, symObjAddr: 0x2CC4, symBinAddr: 0x100005B00, symSize: 0x18 }
  - { offsetInCU: 0x22040, offset: 0x22040, size: 0x8, addend: 0x0, symName: __ZNKSt8_Rb_treeIcSt4pairIKcNSt7__cxx1112basic_stringIcSt11char_traitsIcESaIcEEEESt10_Select1stIS8_ESt4lessIcESaIS8_EE4sizeEv, symObjAddr: 0x2CAC, symBinAddr: 0x100005AE8, symSize: 0x18 }
  - { offsetInCU: 0x2206A, offset: 0x2206A, size: 0x8, addend: 0x0, symName: __ZNKSt23_Rb_tree_const_iteratorISt4pairIKcNSt7__cxx1112basic_stringIcSt11char_traitsIcESaIcEEEEE13_M_const_castEv, symObjAddr: 0x2C84, symBinAddr: 0x100005AC0, symSize: 0x28 }
  - { offsetInCU: 0x22094, offset: 0x22094, size: 0x8, addend: 0x0, symName: __ZNSt8_Rb_treeIcSt4pairIKcNSt7__cxx1112basic_stringIcSt11char_traitsIcESaIcEEEESt10_Select1stIS8_ESt4lessIcESaIS8_EE14_M_create_nodeIJRKSt21piecewise_construct_tSt5tupleIJRS1_EESJ_IJEEEEEPSt13_Rb_tree_nodeIS8_EDpOT_, symObjAddr: 0x2C14, symBinAddr: 0x100005A50, symSize: 0x70 }
  - { offsetInCU: 0x2214E, offset: 0x2214E, size: 0x8, addend: 0x0, symName: __ZNSt10_Head_baseILm0ERKcLb0EEC2ES1_, symObjAddr: 0x2BF0, symBinAddr: 0x100005A2C, symSize: 0x24 }
  - { offsetInCU: 0x2215C, offset: 0x2215C, size: 0x8, addend: 0x0, symName: __ZN9__gnu_cxx16__aligned_membufISt4pairIKcNSt7__cxx1112basic_stringIcSt11char_traitsIcESaIcEEEEE6_M_ptrEv, symObjAddr: 0x2BD4, symBinAddr: 0x100005A10, symSize: 0x1C }
  - { offsetInCU: 0x22186, offset: 0x22186, size: 0x8, addend: 0x0, symName: __ZNSt8_Rb_treeIcSt4pairIKcNSt7__cxx1112basic_stringIcSt11char_traitsIcESaIcEEEESt10_Select1stIS8_ESt4lessIcESaIS8_EE14_M_lower_boundEPSt13_Rb_tree_nodeIS8_EPSt18_Rb_tree_node_baseRS1_, symObjAddr: 0x2B38, symBinAddr: 0x100005974, symSize: 0x9C }
  - { offsetInCU: 0x221E3, offset: 0x221E3, size: 0x8, addend: 0x0, symName: __ZNSt8_Rb_treeIcSt4pairIKcNSt7__cxx1112basic_stringIcSt11char_traitsIcESaIcEEEESt10_Select1stIS8_ESt4lessIcESaIS8_EE6_M_endEv, symObjAddr: 0x2B20, symBinAddr: 0x10000595C, symSize: 0x18 }
  - { offsetInCU: 0x22213, offset: 0x22213, size: 0x8, addend: 0x0, symName: __ZNSt8_Rb_treeINSt7__cxx1112basic_stringIcSt11char_traitsIcESaIcEEESt4pairIKS5_cESt10_Select1stIS8_ESt4lessIS5_ESaIS8_EE10_M_insert_IRKS8_NSE_11_Alloc_nodeEEESt17_Rb_tree_iteratorIS8_EPSt18_Rb_tree_node_baseSM_OT_RT0_, symObjAddr: 0x2A30, symBinAddr: 0x10000586C, symSize: 0xF0 }
  - { offsetInCU: 0x222B8, offset: 0x222B8, size: 0x8, addend: 0x0, symName: __ZSt7forwardIRKSt4pairIKNSt7__cxx1112basic_stringIcSt11char_traitsIcESaIcEEEcEEOT_RNSt16remove_referenceISB_E4typeE, symObjAddr: 0x2A1C, symBinAddr: 0x100005858, symSize: 0x14 }
  - { offsetInCU: 0x222EE, offset: 0x222EE, size: 0x8, addend: 0x0, symName: __ZNKSt10_Select1stISt4pairIKNSt7__cxx1112basic_stringIcSt11char_traitsIcESaIcEEEcEEclERKS8_, symObjAddr: 0x2A04, symBinAddr: 0x100005840, symSize: 0x18 }
  - { offsetInCU: 0x22329, offset: 0x22329, size: 0x8, addend: 0x0, symName: __ZNKSt8_Rb_treeINSt7__cxx1112basic_stringIcSt11char_traitsIcESaIcEEESt4pairIKS5_cESt10_Select1stIS8_ESt4lessIS5_ESaIS8_EE9_M_mbeginEv, symObjAddr: 0x29EC, symBinAddr: 0x100005828, symSize: 0x18 }
  - { offsetInCU: 0x22353, offset: 0x22353, size: 0x8, addend: 0x0, symName: __ZNSt8_Rb_treeINSt7__cxx1112basic_stringIcSt11char_traitsIcESaIcEEESt4pairIKS5_cESt10_Select1stIS8_ESt4lessIS5_ESaIS8_EE12_M_drop_nodeEPSt13_Rb_tree_nodeIS8_E, symObjAddr: 0x29B8, symBinAddr: 0x1000057F4, symSize: 0x34 }
  - { offsetInCU: 0x2238A, offset: 0x2238A, size: 0x8, addend: 0x0, symName: __ZNSt8_Rb_treeINSt7__cxx1112basic_stringIcSt11char_traitsIcESaIcEEESt4pairIKS5_cESt10_Select1stIS8_ESt4lessIS5_ESaIS8_EE7_S_leftEPSt18_Rb_tree_node_base, symObjAddr: 0x29A0, symBinAddr: 0x1000057DC, symSize: 0x18 }
  - { offsetInCU: 0x223B4, offset: 0x223B4, size: 0x8, addend: 0x0, symName: __ZNSt8_Rb_treeINSt7__cxx1112basic_stringIcSt11char_traitsIcESaIcEEESt4pairIKS5_cESt10_Select1stIS8_ESt4lessIS5_ESaIS8_EE8_S_rightEPSt18_Rb_tree_node_base, symObjAddr: 0x2988, symBinAddr: 0x1000057C4, symSize: 0x18 }
  - { offsetInCU: 0x22468, offset: 0x22468, size: 0x8, addend: 0x0, symName: __ZNSt20_Rb_tree_key_compareISt4lessINSt7__cxx1112basic_stringIcSt11char_traitsIcESaIcEEEEEC2ERKS7_, symObjAddr: 0x2970, symBinAddr: 0x1000057AC, symSize: 0x18 }
  - { offsetInCU: 0x2245E, offset: 0x2245E, size: 0x8, addend: 0x0, symName: __ZSt4moveIRSaISt13_Rb_tree_nodeISt4pairIKNSt7__cxx1112basic_stringIcSt11char_traitsIcESaIcEEEcEEEEONSt16remove_referenceIT_E4typeEOSE_, symObjAddr: 0x295C, symBinAddr: 0x100005798, symSize: 0x14 }
  - { offsetInCU: 0x22523, offset: 0x22523, size: 0x8, addend: 0x0, symName: __ZNSt15__new_allocatorISt13_Rb_tree_nodeISt4pairIKNSt7__cxx1112basic_stringIcSt11char_traitsIcESaIcEEEcEEED2Ev, symObjAddr: 0x2948, symBinAddr: 0x100005784, symSize: 0x14 }
  - { offsetInCU: 0x224FA, offset: 0x224FA, size: 0x8, addend: 0x0, symName: __ZNSt8_Rb_treeIcSt4pairIKcNSt7__cxx1112basic_stringIcSt11char_traitsIcESaIcEEEESt10_Select1stIS8_ESt4lessIcESaIS8_EE10_M_insert_IRKS8_NSE_11_Alloc_nodeEEESt17_Rb_tree_iteratorIS8_EPSt18_Rb_tree_node_baseSM_OT_RT0_, symObjAddr: 0x2858, symBinAddr: 0x100005694, symSize: 0xF0 }
  - { offsetInCU: 0x2259F, offset: 0x2259F, size: 0x8, addend: 0x0, symName: __ZSt7forwardIRKSt4pairIKcNSt7__cxx1112basic_stringIcSt11char_traitsIcESaIcEEEEEOT_RNSt16remove_referenceISB_E4typeE, symObjAddr: 0x2844, symBinAddr: 0x100005680, symSize: 0x14 }
  - { offsetInCU: 0x225D5, offset: 0x225D5, size: 0x8, addend: 0x0, symName: __ZNKSt10_Select1stISt4pairIKcNSt7__cxx1112basic_stringIcSt11char_traitsIcESaIcEEEEEclERKS8_, symObjAddr: 0x282C, symBinAddr: 0x100005668, symSize: 0x18 }
  - { offsetInCU: 0x22610, offset: 0x22610, size: 0x8, addend: 0x0, symName: __ZNKSt8_Rb_treeIcSt4pairIKcNSt7__cxx1112basic_stringIcSt11char_traitsIcESaIcEEEESt10_Select1stIS8_ESt4lessIcESaIS8_EE9_M_mbeginEv, symObjAddr: 0x2814, symBinAddr: 0x100005650, symSize: 0x18 }
  - { offsetInCU: 0x2263A, offset: 0x2263A, size: 0x8, addend: 0x0, symName: __ZNSt8_Rb_treeIcSt4pairIKcNSt7__cxx1112basic_stringIcSt11char_traitsIcESaIcEEEESt10_Select1stIS8_ESt4lessIcESaIS8_EE12_M_drop_nodeEPSt13_Rb_tree_nodeIS8_E, symObjAddr: 0x27E0, symBinAddr: 0x10000561C, symSize: 0x34 }
  - { offsetInCU: 0x22671, offset: 0x22671, size: 0x8, addend: 0x0, symName: __ZNSt8_Rb_treeIcSt4pairIKcNSt7__cxx1112basic_stringIcSt11char_traitsIcESaIcEEEESt10_Select1stIS8_ESt4lessIcESaIS8_EE7_S_leftEPSt18_Rb_tree_node_base, symObjAddr: 0x27C8, symBinAddr: 0x100005604, symSize: 0x18 }
  - { offsetInCU: 0x2269B, offset: 0x2269B, size: 0x8, addend: 0x0, symName: __ZNSt8_Rb_treeIcSt4pairIKcNSt7__cxx1112basic_stringIcSt11char_traitsIcESaIcEEEESt10_Select1stIS8_ESt4lessIcESaIS8_EE8_S_rightEPSt18_Rb_tree_node_base, symObjAddr: 0x27B0, symBinAddr: 0x1000055EC, symSize: 0x18 }
  - { offsetInCU: 0x2271C, offset: 0x2271C, size: 0x8, addend: 0x0, symName: __ZNSt20_Rb_tree_key_compareISt4lessIcEEC2ERKS1_, symObjAddr: 0x2798, symBinAddr: 0x1000055D4, symSize: 0x18 }
  - { offsetInCU: 0x22745, offset: 0x22745, size: 0x8, addend: 0x0, symName: __ZSt4moveIRSaISt13_Rb_tree_nodeISt4pairIKcNSt7__cxx1112basic_stringIcSt11char_traitsIcESaIcEEEEEEEONSt16remove_referenceIT_E4typeEOSE_, symObjAddr: 0x2784, symBinAddr: 0x1000055C0, symSize: 0x14 }
  - { offsetInCU: 0x2280A, offset: 0x2280A, size: 0x8, addend: 0x0, symName: __ZNSt15__new_allocatorISt13_Rb_tree_nodeISt4pairIKcNSt7__cxx1112basic_stringIcSt11char_traitsIcESaIcEEEEEED2Ev, symObjAddr: 0x2770, symBinAddr: 0x1000055AC, symSize: 0x14 }
  - { offsetInCU: 0x228A3, offset: 0x228A3, size: 0x8, addend: 0x0, symName: __ZNSt17_Rb_tree_iteratorISt4pairIKNSt7__cxx1112basic_stringIcSt11char_traitsIcESaIcEEEcEEC1EPSt18_Rb_tree_node_base, symObjAddr: 0x274C, symBinAddr: 0x100005588, symSize: 0x24 }
  - { offsetInCU: 0x22862, offset: 0x22862, size: 0x8, addend: 0x0, symName: __ZNSt8_Rb_treeINSt7__cxx1112basic_stringIcSt11char_traitsIcESaIcEEESt4pairIKS5_cESt10_Select1stIS8_ESt4lessIS5_ESaIS8_EE10_Auto_node9_M_insertES6_IPSt18_Rb_tree_node_baseSH_E, symObjAddr: 0x2700, symBinAddr: 0x10000553C, symSize: 0x4C }
  - { offsetInCU: 0x228AE, offset: 0x228AE, size: 0x8, addend: 0x0, symName: __ZNKSt8_Rb_treeINSt7__cxx1112basic_stringIcSt11char_traitsIcESaIcEEESt4pairIKS5_cESt10_Select1stIS8_ESt4lessIS5_ESaIS8_EE10_Auto_node6_M_keyEv, symObjAddr: 0x26E0, symBinAddr: 0x10000551C, symSize: 0x20 }
  - { offsetInCU: 0x228D8, offset: 0x228D8, size: 0x8, addend: 0x0, symName: __ZNSt8_Rb_treeINSt7__cxx1112basic_stringIcSt11char_traitsIcESaIcEEESt4pairIKS5_cESt10_Select1stIS8_ESt4lessIS5_ESaIS8_EE29_M_get_insert_hint_unique_posESt23_Rb_tree_const_iteratorIS8_ERS7_, symObjAddr: 0x23BC, symBinAddr: 0x1000051F8, symSize: 0x324 }
  - { offsetInCU: 0x22A2C, offset: 0x22A2C, size: 0x8, addend: 0x0, symName: __ZNSt8_Rb_treeINSt7__cxx1112basic_stringIcSt11char_traitsIcESaIcEEESt4pairIKS5_cESt10_Select1stIS8_ESt4lessIS5_ESaIS8_EE10_Auto_nodeD1Ev, symObjAddr: 0x2378, symBinAddr: 0x1000051B4, symSize: 0x44 }
  - { offsetInCU: 0x22AE3, offset: 0x22AE3, size: 0x8, addend: 0x0, symName: __ZNSt8_Rb_treeINSt7__cxx1112basic_stringIcSt11char_traitsIcESaIcEEESt4pairIKS5_cESt10_Select1stIS8_ESt4lessIS5_ESaIS8_EE10_Auto_nodeC1IJRKSt21piecewise_construct_tSt5tupleIJRS7_EESK_IJEEEEERSE_DpOT_, symObjAddr: 0x22FC, symBinAddr: 0x100005138, symSize: 0x7C }
  - { offsetInCU: 0x22A88, offset: 0x22A88, size: 0x8, addend: 0x0, symName: __ZSt7forwardISt5tupleIJRKNSt7__cxx1112basic_stringIcSt11char_traitsIcESaIcEEEEEEOT_RNSt16remove_referenceISA_E4typeE, symObjAddr: 0x22E8, symBinAddr: 0x100005124, symSize: 0x14 }
  - { offsetInCU: 0x22B39, offset: 0x22B39, size: 0x8, addend: 0x0, symName: __ZNSt11_Tuple_implILm0EJRKNSt7__cxx1112basic_stringIcSt11char_traitsIcESaIcEEEEEC2ES7_, symObjAddr: 0x22C0, symBinAddr: 0x1000050FC, symSize: 0x28 }
  - { offsetInCU: 0x22B11, offset: 0x22B11, size: 0x8, addend: 0x0, symName: __ZStltIcSt11char_traitsIcESaIcEEbRKNSt7__cxx1112basic_stringIT_T0_T1_EESA_, symObjAddr: 0x2294, symBinAddr: 0x1000050D0, symSize: 0x2C }
  - { offsetInCU: 0x22B6B, offset: 0x22B6B, size: 0x8, addend: 0x0, symName: __ZNSt13_Rb_tree_nodeISt4pairIKNSt7__cxx1112basic_stringIcSt11char_traitsIcESaIcEEEcEE9_M_valptrEv, symObjAddr: 0x2274, symBinAddr: 0x1000050B0, symSize: 0x20 }
  - { offsetInCU: 0x22B95, offset: 0x22B95, size: 0x8, addend: 0x0, symName: __ZNKSt8_Rb_treeINSt7__cxx1112basic_stringIcSt11char_traitsIcESaIcEEESt4pairIKS5_cESt10_Select1stIS8_ESt4lessIS5_ESaIS8_EE8key_compEv, symObjAddr: 0x225C, symBinAddr: 0x100005098, symSize: 0x18 }
  - { offsetInCU: 0x22BBF, offset: 0x22BBF, size: 0x8, addend: 0x0, symName: __ZNSt8_Rb_treeINSt7__cxx1112basic_stringIcSt11char_traitsIcESaIcEEESt4pairIKS5_cESt10_Select1stIS8_ESt4lessIS5_ESaIS8_EE11lower_boundERS7_, symObjAddr: 0x2214, symBinAddr: 0x100005050, symSize: 0x48 }
  - { offsetInCU: 0x22C92, offset: 0x22C92, size: 0x8, addend: 0x0, symName: __ZNSt17_Rb_tree_iteratorISt4pairIKcNSt7__cxx1112basic_stringIcSt11char_traitsIcESaIcEEEEEC1EPSt18_Rb_tree_node_base, symObjAddr: 0x21F0, symBinAddr: 0x10000502C, symSize: 0x24 }
  - { offsetInCU: 0x22C51, offset: 0x22C51, size: 0x8, addend: 0x0, symName: __ZNSt8_Rb_treeIcSt4pairIKcNSt7__cxx1112basic_stringIcSt11char_traitsIcESaIcEEEESt10_Select1stIS8_ESt4lessIcESaIS8_EE10_Auto_node9_M_insertES0_IPSt18_Rb_tree_node_baseSH_E, symObjAddr: 0x21A4, symBinAddr: 0x100004FE0, symSize: 0x4C }
  - { offsetInCU: 0x22C9D, offset: 0x22C9D, size: 0x8, addend: 0x0, symName: __ZNKSt8_Rb_treeIcSt4pairIKcNSt7__cxx1112basic_stringIcSt11char_traitsIcESaIcEEEESt10_Select1stIS8_ESt4lessIcESaIS8_EE10_Auto_node6_M_keyEv, symObjAddr: 0x2184, symBinAddr: 0x100004FC0, symSize: 0x20 }
  - { offsetInCU: 0x22CC7, offset: 0x22CC7, size: 0x8, addend: 0x0, symName: __ZNSt8_Rb_treeIcSt4pairIKcNSt7__cxx1112basic_stringIcSt11char_traitsIcESaIcEEEESt10_Select1stIS8_ESt4lessIcESaIS8_EE29_M_get_insert_hint_unique_posESt23_Rb_tree_const_iteratorIS8_ERS1_, symObjAddr: 0x1E60, symBinAddr: 0x100004C9C, symSize: 0x324 }
  - { offsetInCU: 0x22E17, offset: 0x22E17, size: 0x8, addend: 0x0, symName: __ZNSt8_Rb_treeIcSt4pairIKcNSt7__cxx1112basic_stringIcSt11char_traitsIcESaIcEEEESt10_Select1stIS8_ESt4lessIcESaIS8_EE10_Auto_nodeD1Ev, symObjAddr: 0x1E1C, symBinAddr: 0x100004C58, symSize: 0x44 }
  - { offsetInCU: 0x22ECE, offset: 0x22ECE, size: 0x8, addend: 0x0, symName: __ZNSt8_Rb_treeIcSt4pairIKcNSt7__cxx1112basic_stringIcSt11char_traitsIcESaIcEEEESt10_Select1stIS8_ESt4lessIcESaIS8_EE10_Auto_nodeC1IJRKSt21piecewise_construct_tSt5tupleIJRS1_EESK_IJEEEEERSE_DpOT_, symObjAddr: 0x1DA0, symBinAddr: 0x100004BDC, symSize: 0x7C }
  - { offsetInCU: 0x22E77, offset: 0x22E77, size: 0x8, addend: 0x0, symName: __ZSt7forwardISt5tupleIJEEEOT_RNSt16remove_referenceIS2_E4typeE, symObjAddr: 0x1D8C, symBinAddr: 0x100004BC8, symSize: 0x14 }
  - { offsetInCU: 0x22EAF, offset: 0x22EAF, size: 0x8, addend: 0x0, symName: __ZSt7forwardISt5tupleIJRKcEEEOT_RNSt16remove_referenceIS4_E4typeE, symObjAddr: 0x1D78, symBinAddr: 0x100004BB4, symSize: 0x14 }
  - { offsetInCU: 0x22EE7, offset: 0x22EE7, size: 0x8, addend: 0x0, symName: __ZSt7forwardIRKSt21piecewise_construct_tEOT_RNSt16remove_referenceIS3_E4typeE, symObjAddr: 0x1D64, symBinAddr: 0x100004BA0, symSize: 0x14 }
  - { offsetInCU: 0x22F65, offset: 0x22F65, size: 0x8, addend: 0x0, symName: __ZNSt11_Tuple_implILm0EJRKcEEC2ES1_, symObjAddr: 0x1D3C, symBinAddr: 0x100004B78, symSize: 0x28 }
  - { offsetInCU: 0x22F74, offset: 0x22F74, size: 0x8, addend: 0x0, symName: __ZNSt13_Rb_tree_nodeISt4pairIKcNSt7__cxx1112basic_stringIcSt11char_traitsIcESaIcEEEEE9_M_valptrEv, symObjAddr: 0x1D1C, symBinAddr: 0x100004B58, symSize: 0x20 }
  - { offsetInCU: 0x22F9E, offset: 0x22F9E, size: 0x8, addend: 0x0, symName: __ZNKSt8_Rb_treeIcSt4pairIKcNSt7__cxx1112basic_stringIcSt11char_traitsIcESaIcEEEESt10_Select1stIS8_ESt4lessIcESaIS8_EE8key_compEv, symObjAddr: 0x1D04, symBinAddr: 0x100004B40, symSize: 0x18 }
  - { offsetInCU: 0x22FC8, offset: 0x22FC8, size: 0x8, addend: 0x0, symName: __ZNSt8_Rb_treeIcSt4pairIKcNSt7__cxx1112basic_stringIcSt11char_traitsIcESaIcEEEESt10_Select1stIS8_ESt4lessIcESaIS8_EE11lower_boundERS1_, symObjAddr: 0x1CBC, symBinAddr: 0x100004AF8, symSize: 0x48 }
  - { offsetInCU: 0x23003, offset: 0x23003, size: 0x8, addend: 0x0, symName: __ZNSt8_Rb_treeINSt7__cxx1112basic_stringIcSt11char_traitsIcESaIcEEESt4pairIKS5_cESt10_Select1stIS8_ESt4lessIS5_ESaIS8_EE17_M_insert_unique_IRKS8_NSE_11_Alloc_nodeEEESt17_Rb_tree_iteratorIS8_ESt23_Rb_tree_const_iteratorIS8_EOT_RT0_, symObjAddr: 0x1C2C, symBinAddr: 0x100004A68, symSize: 0x90 }
  - { offsetInCU: 0x23083, offset: 0x23083, size: 0x8, addend: 0x0, symName: __ZNSt8_Rb_treeINSt7__cxx1112basic_stringIcSt11char_traitsIcESaIcEEESt4pairIKS5_cESt10_Select1stIS8_ESt4lessIS5_ESaIS8_EE3endEv, symObjAddr: 0x1C04, symBinAddr: 0x100004A40, symSize: 0x28 }
  - { offsetInCU: 0x2315E, offset: 0x2315E, size: 0x8, addend: 0x0, symName: __ZNSt8_Rb_treeINSt7__cxx1112basic_stringIcSt11char_traitsIcESaIcEEESt4pairIKS5_cESt10_Select1stIS8_ESt4lessIS5_ESaIS8_EE11_Alloc_nodeC1ERSE_, symObjAddr: 0x1BE0, symBinAddr: 0x100004A1C, symSize: 0x24 }
  - { offsetInCU: 0x23104, offset: 0x23104, size: 0x8, addend: 0x0, symName: __ZNKSt16initializer_listISt4pairIKNSt7__cxx1112basic_stringIcSt11char_traitsIcESaIcEEEcEE4sizeEv, symObjAddr: 0x1BC8, symBinAddr: 0x100004A04, symSize: 0x18 }
  - { offsetInCU: 0x2312E, offset: 0x2312E, size: 0x8, addend: 0x0, symName: __ZNSt8_Rb_treeINSt7__cxx1112basic_stringIcSt11char_traitsIcESaIcEEESt4pairIKS5_cESt10_Select1stIS8_ESt4lessIS5_ESaIS8_EE8_M_beginEv, symObjAddr: 0x1BAC, symBinAddr: 0x1000049E8, symSize: 0x1C }
  - { offsetInCU: 0x23158, offset: 0x23158, size: 0x8, addend: 0x0, symName: __ZNSt8_Rb_treeINSt7__cxx1112basic_stringIcSt11char_traitsIcESaIcEEESt4pairIKS5_cESt10_Select1stIS8_ESt4lessIS5_ESaIS8_EE8_M_eraseEPSt13_Rb_tree_nodeIS8_E, symObjAddr: 0x1B48, symBinAddr: 0x100004984, symSize: 0x64 }
  - { offsetInCU: 0x2329D, offset: 0x2329D, size: 0x8, addend: 0x0, symName: __ZNSt8_Rb_treeINSt7__cxx1112basic_stringIcSt11char_traitsIcESaIcEEESt4pairIKS5_cESt10_Select1stIS8_ESt4lessIS5_ESaIS8_EE13_Rb_tree_implISC_Lb1EEC1ERKSC_OSaISt13_Rb_tree_nodeIS8_EE, symObjAddr: 0x1AE0, symBinAddr: 0x10000491C, symSize: 0x68 }
  - { offsetInCU: 0x232DD, offset: 0x232DD, size: 0x8, addend: 0x0, symName: __ZNSt8_Rb_treeIcSt4pairIKcNSt7__cxx1112basic_stringIcSt11char_traitsIcESaIcEEEESt10_Select1stIS8_ESt4lessIcESaIS8_EE17_M_insert_unique_IRKS8_NSE_11_Alloc_nodeEEESt17_Rb_tree_iteratorIS8_ESt23_Rb_tree_const_iteratorIS8_EOT_RT0_, symObjAddr: 0x1A50, symBinAddr: 0x10000488C, symSize: 0x90 }
  - { offsetInCU: 0x2335D, offset: 0x2335D, size: 0x8, addend: 0x0, symName: __ZNSt8_Rb_treeIcSt4pairIKcNSt7__cxx1112basic_stringIcSt11char_traitsIcESaIcEEEESt10_Select1stIS8_ESt4lessIcESaIS8_EE3endEv, symObjAddr: 0x1A28, symBinAddr: 0x100004864, symSize: 0x28 }
  - { offsetInCU: 0x23434, offset: 0x23434, size: 0x8, addend: 0x0, symName: __ZNSt8_Rb_treeIcSt4pairIKcNSt7__cxx1112basic_stringIcSt11char_traitsIcESaIcEEEESt10_Select1stIS8_ESt4lessIcESaIS8_EE11_Alloc_nodeC1ERSE_, symObjAddr: 0x1A04, symBinAddr: 0x100004840, symSize: 0x24 }
  - { offsetInCU: 0x233DE, offset: 0x233DE, size: 0x8, addend: 0x0, symName: __ZNKSt16initializer_listISt4pairIKcNSt7__cxx1112basic_stringIcSt11char_traitsIcESaIcEEEEE4sizeEv, symObjAddr: 0x19EC, symBinAddr: 0x100004828, symSize: 0x18 }
  - { offsetInCU: 0x23408, offset: 0x23408, size: 0x8, addend: 0x0, symName: __ZNSt8_Rb_treeIcSt4pairIKcNSt7__cxx1112basic_stringIcSt11char_traitsIcESaIcEEEESt10_Select1stIS8_ESt4lessIcESaIS8_EE8_M_beginEv, symObjAddr: 0x19D0, symBinAddr: 0x10000480C, symSize: 0x1C }
  - { offsetInCU: 0x23432, offset: 0x23432, size: 0x8, addend: 0x0, symName: __ZNSt8_Rb_treeIcSt4pairIKcNSt7__cxx1112basic_stringIcSt11char_traitsIcESaIcEEEESt10_Select1stIS8_ESt4lessIcESaIS8_EE8_M_eraseEPSt13_Rb_tree_nodeIS8_E, symObjAddr: 0x196C, symBinAddr: 0x1000047A8, symSize: 0x64 }
  - { offsetInCU: 0x23573, offset: 0x23573, size: 0x8, addend: 0x0, symName: __ZNSt8_Rb_treeIcSt4pairIKcNSt7__cxx1112basic_stringIcSt11char_traitsIcESaIcEEEESt10_Select1stIS8_ESt4lessIcESaIS8_EE13_Rb_tree_implISC_Lb1EEC1ERKSC_OSaISt13_Rb_tree_nodeIS8_EE, symObjAddr: 0x1904, symBinAddr: 0x100004740, symSize: 0x68 }
  - { offsetInCU: 0x235E2, offset: 0x235E2, size: 0x8, addend: 0x0, symName: __ZNSt8_Rb_treeINSt7__cxx1112basic_stringIcSt11char_traitsIcESaIcEEESt4pairIKS5_cESt10_Select1stIS8_ESt4lessIS5_ESaIS8_EE22_M_emplace_hint_uniqueIJRKSt21piecewise_construct_tSt5tupleIJRS7_EESJ_IJEEEEESt17_Rb_tree_iteratorIS8_ESt23_Rb_tree_const_iteratorIS8_EDpOT_, symObjAddr: 0x182C, symBinAddr: 0x100004668, symSize: 0xD8 }
  - { offsetInCU: 0x2371C, offset: 0x2371C, size: 0x8, addend: 0x0, symName: __ZNSt23_Rb_tree_const_iteratorISt4pairIKNSt7__cxx1112basic_stringIcSt11char_traitsIcESaIcEEEcEEC1ERKSt17_Rb_tree_iteratorIS8_E, symObjAddr: 0x1804, symBinAddr: 0x100004640, symSize: 0x28 }
  - { offsetInCU: 0x23754, offset: 0x23754, size: 0x8, addend: 0x0, symName: __ZNSt5tupleIJRKNSt7__cxx1112basic_stringIcSt11char_traitsIcESaIcEEEEEC1ILb1ELb1EEES7_, symObjAddr: 0x17DC, symBinAddr: 0x100004618, symSize: 0x28 }
  - { offsetInCU: 0x2373B, offset: 0x2373B, size: 0x8, addend: 0x0, symName: __ZNKSt4lessINSt7__cxx1112basic_stringIcSt11char_traitsIcESaIcEEEEclERKS5_S8_, symObjAddr: 0x17B4, symBinAddr: 0x1000045F0, symSize: 0x28 }
  - { offsetInCU: 0x23787, offset: 0x23787, size: 0x8, addend: 0x0, symName: __ZNKSt17_Rb_tree_iteratorISt4pairIKNSt7__cxx1112basic_stringIcSt11char_traitsIcESaIcEEEcEEdeEv, symObjAddr: 0x1794, symBinAddr: 0x1000045D0, symSize: 0x20 }
  - { offsetInCU: 0x237B1, offset: 0x237B1, size: 0x8, addend: 0x0, symName: __ZNKSt3mapINSt7__cxx1112basic_stringIcSt11char_traitsIcESaIcEEEcSt4lessIS5_ESaISt4pairIKS5_cEEE8key_compEv, symObjAddr: 0x1768, symBinAddr: 0x1000045A4, symSize: 0x2C }
  - { offsetInCU: 0x237DD, offset: 0x237DD, size: 0x8, addend: 0x0, symName: __ZSteqRKSt17_Rb_tree_iteratorISt4pairIKNSt7__cxx1112basic_stringIcSt11char_traitsIcESaIcEEEcEESB_, symObjAddr: 0x1738, symBinAddr: 0x100004574, symSize: 0x30 }
  - { offsetInCU: 0x2381C, offset: 0x2381C, size: 0x8, addend: 0x0, symName: __ZNSt3mapINSt7__cxx1112basic_stringIcSt11char_traitsIcESaIcEEEcSt4lessIS5_ESaISt4pairIKS5_cEEE3endEv, symObjAddr: 0x171C, symBinAddr: 0x100004558, symSize: 0x1C }
  - { offsetInCU: 0x23846, offset: 0x23846, size: 0x8, addend: 0x0, symName: __ZNSt3mapINSt7__cxx1112basic_stringIcSt11char_traitsIcESaIcEEEcSt4lessIS5_ESaISt4pairIKS5_cEEE11lower_boundERS9_, symObjAddr: 0x16F8, symBinAddr: 0x100004534, symSize: 0x24 }
  - { offsetInCU: 0x23881, offset: 0x23881, size: 0x8, addend: 0x0, symName: __ZNSt8_Rb_treeIcSt4pairIKcNSt7__cxx1112basic_stringIcSt11char_traitsIcESaIcEEEESt10_Select1stIS8_ESt4lessIcESaIS8_EE22_M_emplace_hint_uniqueIJRKSt21piecewise_construct_tSt5tupleIJRS1_EESJ_IJEEEEESt17_Rb_tree_iteratorIS8_ESt23_Rb_tree_const_iteratorIS8_EDpOT_, symObjAddr: 0x1620, symBinAddr: 0x10000445C, symSize: 0xD8 }
  - { offsetInCU: 0x239BB, offset: 0x239BB, size: 0x8, addend: 0x0, symName: __ZNSt23_Rb_tree_const_iteratorISt4pairIKcNSt7__cxx1112basic_stringIcSt11char_traitsIcESaIcEEEEEC1ERKSt17_Rb_tree_iteratorIS8_E, symObjAddr: 0x15F8, symBinAddr: 0x100004434, symSize: 0x28 }
  - { offsetInCU: 0x239C0, offset: 0x239C0, size: 0x8, addend: 0x0, symName: __ZNSt5tupleIJRKcEEC1ILb1ELb1EEES1_, symObjAddr: 0x15D0, symBinAddr: 0x10000440C, symSize: 0x28 }
  - { offsetInCU: 0x239DA, offset: 0x239DA, size: 0x8, addend: 0x0, symName: __ZNKSt4lessIcEclERKcS2_, symObjAddr: 0x159C, symBinAddr: 0x1000043D8, symSize: 0x34 }
  - { offsetInCU: 0x23A26, offset: 0x23A26, size: 0x8, addend: 0x0, symName: __ZNKSt17_Rb_tree_iteratorISt4pairIKcNSt7__cxx1112basic_stringIcSt11char_traitsIcESaIcEEEEEdeEv, symObjAddr: 0x157C, symBinAddr: 0x1000043B8, symSize: 0x20 }
  - { offsetInCU: 0x23A50, offset: 0x23A50, size: 0x8, addend: 0x0, symName: __ZNKSt3mapIcNSt7__cxx1112basic_stringIcSt11char_traitsIcESaIcEEESt4lessIcESaISt4pairIKcS5_EEE8key_compEv, symObjAddr: 0x1550, symBinAddr: 0x10000438C, symSize: 0x2C }
  - { offsetInCU: 0x23A7C, offset: 0x23A7C, size: 0x8, addend: 0x0, symName: __ZSteqRKSt17_Rb_tree_iteratorISt4pairIKcNSt7__cxx1112basic_stringIcSt11char_traitsIcESaIcEEEEESB_, symObjAddr: 0x1520, symBinAddr: 0x10000435C, symSize: 0x30 }
  - { offsetInCU: 0x23ABB, offset: 0x23ABB, size: 0x8, addend: 0x0, symName: __ZNSt3mapIcNSt7__cxx1112basic_stringIcSt11char_traitsIcESaIcEEESt4lessIcESaISt4pairIKcS5_EEE3endEv, symObjAddr: 0x1504, symBinAddr: 0x100004340, symSize: 0x1C }
  - { offsetInCU: 0x23AE5, offset: 0x23AE5, size: 0x8, addend: 0x0, symName: __ZNSt3mapIcNSt7__cxx1112basic_stringIcSt11char_traitsIcESaIcEEESt4lessIcESaISt4pairIKcS5_EEE11lower_boundERS9_, symObjAddr: 0x14E0, symBinAddr: 0x10000431C, symSize: 0x24 }
  - { offsetInCU: 0x23B20, offset: 0x23B20, size: 0x8, addend: 0x0, symName: __ZNSt8_Rb_treeINSt7__cxx1112basic_stringIcSt11char_traitsIcESaIcEEESt4pairIKS5_cESt10_Select1stIS8_ESt4lessIS5_ESaIS8_EE22_M_insert_range_uniqueIPKS8_EENSt9enable_ifIXsrSt7is_sameIS8_NSt15iterator_traitsIT_E10value_typeEE5valueEvE4typeESL_SL_, symObjAddr: 0x1460, symBinAddr: 0x10000429C, symSize: 0x80 }
  - { offsetInCU: 0x23B86, offset: 0x23B86, size: 0x8, addend: 0x0, symName: __ZNKSt16initializer_listISt4pairIKNSt7__cxx1112basic_stringIcSt11char_traitsIcESaIcEEEcEE3endEv, symObjAddr: 0x1418, symBinAddr: 0x100004254, symSize: 0x48 }
  - { offsetInCU: 0x23BB0, offset: 0x23BB0, size: 0x8, addend: 0x0, symName: __ZNKSt16initializer_listISt4pairIKNSt7__cxx1112basic_stringIcSt11char_traitsIcESaIcEEEcEE5beginEv, symObjAddr: 0x1400, symBinAddr: 0x10000423C, symSize: 0x18 }
  - { offsetInCU: 0x23C77, offset: 0x23C77, size: 0x8, addend: 0x0, symName: __ZNSt8_Rb_treeINSt7__cxx1112basic_stringIcSt11char_traitsIcESaIcEEESt4pairIKS5_cESt10_Select1stIS8_ESt4lessIS5_ESaIS8_EED1Ev, symObjAddr: 0x13CC, symBinAddr: 0x100004208, symSize: 0x34 }
  - { offsetInCU: 0x23CDC, offset: 0x23CDC, size: 0x8, addend: 0x0, symName: __ZNSt8_Rb_treeINSt7__cxx1112basic_stringIcSt11char_traitsIcESaIcEEESt4pairIKS5_cESt10_Select1stIS8_ESt4lessIS5_ESaIS8_EEC1ERKSC_RKSD_, symObjAddr: 0x1354, symBinAddr: 0x100004190, symSize: 0x78 }
  - { offsetInCU: 0x23DDA, offset: 0x23DDA, size: 0x8, addend: 0x0, symName: __ZNSt8_Rb_treeINSt7__cxx1112basic_stringIcSt11char_traitsIcESaIcEEESt4pairIKS5_cESt10_Select1stIS8_ESt4lessIS5_ESaIS8_EE13_Rb_tree_implISC_Lb1EED1Ev, symObjAddr: 0x1328, symBinAddr: 0x100004164, symSize: 0x2C }
  - { offsetInCU: 0x23E32, offset: 0x23E32, size: 0x8, addend: 0x0, symName: __ZNSt15__new_allocatorISt4pairIKNSt7__cxx1112basic_stringIcSt11char_traitsIcESaIcEEEcEED2Ev, symObjAddr: 0x1314, symBinAddr: 0x100004150, symSize: 0x14 }
  - { offsetInCU: 0x23E00, offset: 0x23E00, size: 0x8, addend: 0x0, symName: __ZNSt8_Rb_treeIcSt4pairIKcNSt7__cxx1112basic_stringIcSt11char_traitsIcESaIcEEEESt10_Select1stIS8_ESt4lessIcESaIS8_EE22_M_insert_range_uniqueIPKS8_EENSt9enable_ifIXsrSt7is_sameIS8_NSt15iterator_traitsIT_E10value_typeEE5valueEvE4typeESL_SL_, symObjAddr: 0x1294, symBinAddr: 0x1000040D0, symSize: 0x80 }
  - { offsetInCU: 0x23E66, offset: 0x23E66, size: 0x8, addend: 0x0, symName: __ZNKSt16initializer_listISt4pairIKcNSt7__cxx1112basic_stringIcSt11char_traitsIcESaIcEEEEE3endEv, symObjAddr: 0x124C, symBinAddr: 0x100004088, symSize: 0x48 }
  - { offsetInCU: 0x23E90, offset: 0x23E90, size: 0x8, addend: 0x0, symName: __ZNKSt16initializer_listISt4pairIKcNSt7__cxx1112basic_stringIcSt11char_traitsIcESaIcEEEEE5beginEv, symObjAddr: 0x1234, symBinAddr: 0x100004070, symSize: 0x18 }
  - { offsetInCU: 0x23F53, offset: 0x23F53, size: 0x8, addend: 0x0, symName: __ZNSt8_Rb_treeIcSt4pairIKcNSt7__cxx1112basic_stringIcSt11char_traitsIcESaIcEEEESt10_Select1stIS8_ESt4lessIcESaIS8_EED1Ev, symObjAddr: 0x1200, symBinAddr: 0x10000403C, symSize: 0x34 }
  - { offsetInCU: 0x23FB8, offset: 0x23FB8, size: 0x8, addend: 0x0, symName: __ZNSt8_Rb_treeIcSt4pairIKcNSt7__cxx1112basic_stringIcSt11char_traitsIcESaIcEEEESt10_Select1stIS8_ESt4lessIcESaIS8_EEC1ERKSC_RKSD_, symObjAddr: 0x1188, symBinAddr: 0x100003FC4, symSize: 0x78 }
  - { offsetInCU: 0x240B6, offset: 0x240B6, size: 0x8, addend: 0x0, symName: __ZNSt8_Rb_treeIcSt4pairIKcNSt7__cxx1112basic_stringIcSt11char_traitsIcESaIcEEEESt10_Select1stIS8_ESt4lessIcESaIS8_EE13_Rb_tree_implISC_Lb1EED1Ev, symObjAddr: 0x115C, symBinAddr: 0x100003F98, symSize: 0x2C }
  - { offsetInCU: 0x24112, offset: 0x24112, size: 0x8, addend: 0x0, symName: __ZNSt15__new_allocatorISt4pairIKcNSt7__cxx1112basic_stringIcSt11char_traitsIcESaIcEEEEED2Ev, symObjAddr: 0x1148, symBinAddr: 0x100003F84, symSize: 0x14 }
  - { offsetInCU: 0x240E0, offset: 0x240E0, size: 0x8, addend: 0x0, symName: __ZNSt7__cxx1112basic_stringIcSt11char_traitsIcESaIcEE12_M_constructIPKcEEvT_S8_St20forward_iterator_tag, symObjAddr: 0x1048, symBinAddr: 0x100003E84, symSize: 0x100 }
  - { offsetInCU: 0x2425D, offset: 0x2425D, size: 0x8, addend: 0x0, symName: __ZZNSt7__cxx1112basic_stringIcSt11char_traitsIcESaIcEE12_M_constructIPKcEEvT_S8_St20forward_iterator_tagEN6_GuardC1EPS4_, symObjAddr: 0xFF0, symBinAddr: 0x100003E2C, symSize: 0x24 }
  - { offsetInCU: 0x2428E, offset: 0x2428E, size: 0x8, addend: 0x0, symName: __ZZNSt7__cxx1112basic_stringIcSt11char_traitsIcESaIcEE12_M_constructIPKcEEvT_S8_St20forward_iterator_tagEN6_GuardD1Ev, symObjAddr: 0x1014, symBinAddr: 0x100003E50, symSize: 0x34 }
  - { offsetInCU: 0x24335, offset: 0x24335, size: 0x8, addend: 0x0, symName: __ZNSt15__new_allocatorIcED2Ev, symObjAddr: 0xFDC, symBinAddr: 0x100003E18, symSize: 0x14 }
  - { offsetInCU: 0x2437F, offset: 0x2437F, size: 0x8, addend: 0x0, symName: __ZN9__gnu_cxx11char_traitsIcE2eqERKcS3_, symObjAddr: 0xFAC, symBinAddr: 0x100003DE8, symSize: 0x30 }
  - { offsetInCU: 0x243BC, offset: 0x243BC, size: 0x8, addend: 0x0, symName: __ZNSt3mapINSt7__cxx1112basic_stringIcSt11char_traitsIcESaIcEEEcSt4lessIS5_ESaISt4pairIKS5_cEEEixERS9_, symObjAddr: 0xEC0, symBinAddr: 0x100003CFC, symSize: 0xEC }
  - { offsetInCU: 0x24408, offset: 0x24408, size: 0x8, addend: 0x0, symName: __ZNSt3mapIcNSt7__cxx1112basic_stringIcSt11char_traitsIcESaIcEEESt4lessIcESaISt4pairIKcS5_EEEixERS9_, symObjAddr: 0xDD4, symBinAddr: 0x100003C10, symSize: 0xEC }
  - { offsetInCU: 0x24450, offset: 0x24450, size: 0x8, addend: 0x0, symName: __ZSteqIcSt11char_traitsIcESaIcEEbRKNSt7__cxx1112basic_stringIT_T0_T1_EEPKS5_, symObjAddr: 0xD60, symBinAddr: 0x100003B9C, symSize: 0x74 }
  - { offsetInCU: 0x2456C, offset: 0x2456C, size: 0x8, addend: 0x0, symName: __ZNSt3mapINSt7__cxx1112basic_stringIcSt11char_traitsIcESaIcEEEcSt4lessIS5_ESaISt4pairIKS5_cEEEC1ESt16initializer_listISA_ERKS7_RKSB_, symObjAddr: 0xCA0, symBinAddr: 0x100003ADC, symSize: 0xC0 }
  - { offsetInCU: 0x246A2, offset: 0x246A2, size: 0x8, addend: 0x0, symName: __ZNSt3mapIcNSt7__cxx1112basic_stringIcSt11char_traitsIcESaIcEEESt4lessIcESaISt4pairIKcS5_EEEC1ESt16initializer_listISA_ERKS7_RKSB_, symObjAddr: 0xBE0, symBinAddr: 0x100003A1C, symSize: 0xC0 }
  - { offsetInCU: 0x24722, offset: 0x24722, size: 0x8, addend: 0x0, symName: __ZSt7forwardIRA5_KcEOT_RNSt16remove_referenceIS3_E4typeE, symObjAddr: 0xBCC, symBinAddr: 0x100003A08, symSize: 0x14 }
  - { offsetInCU: 0x24760, offset: 0x24760, size: 0x8, addend: 0x0, symName: __ZSt7forwardIRA4_KcEOT_RNSt16remove_referenceIS3_E4typeE, symObjAddr: 0xBB8, symBinAddr: 0x1000039F4, symSize: 0x14 }
  - { offsetInCU: 0x2479E, offset: 0x2479E, size: 0x8, addend: 0x0, symName: __ZSt7forwardIRA3_KcEOT_RNSt16remove_referenceIS3_E4typeE, symObjAddr: 0xBA4, symBinAddr: 0x1000039E0, symSize: 0x14 }
  - { offsetInCU: 0x247DC, offset: 0x247DC, size: 0x8, addend: 0x0, symName: __ZSt7forwardIRA2_KcEOT_RNSt16remove_referenceIS3_E4typeE, symObjAddr: 0xB90, symBinAddr: 0x1000039CC, symSize: 0x14 }
  - { offsetInCU: 0x2489B, offset: 0x2489B, size: 0x8, addend: 0x0, symName: __ZNSt7__cxx1112basic_stringIcSt11char_traitsIcESaIcEEC1IS3_EEPKcRKS3_, symObjAddr: 0xAF4, symBinAddr: 0x100003930, symSize: 0x9C }
  - { offsetInCU: 0x2495F, offset: 0x2495F, size: 0x8, addend: 0x0, symName: __ZNSt7__cxx1112basic_stringIcSt11char_traitsIcESaIcEE12_Alloc_hiderD1Ev, symObjAddr: 0xAC8, symBinAddr: 0x100003904, symSize: 0x2C }
  - { offsetInCU: 0x24960, offset: 0x24960, size: 0x8, addend: 0x0, symName: __ZN9__gnu_cxx11char_traitsIcE6lengthEPKc, symObjAddr: 0xA70, symBinAddr: 0x1000038AC, symSize: 0x58 }
  - { offsetInCU: 0x249A2, offset: 0x249A2, size: 0x8, addend: 0x0, symName: _main, symObjAddr: 0x6E0, symBinAddr: 0x10000351C, symSize: 0x390 }
  - { offsetInCU: 0x24B5E, offset: 0x24B5E, size: 0x8, addend: 0x0, symName: __ZNSt4pairIKNSt7__cxx1112basic_stringIcSt11char_traitsIcESaIcEEEcEC1IRA5_KccLb1EEEOT_OT0_, symObjAddr: 0x650, symBinAddr: 0x10000348C, symSize: 0x90 }
  - { offsetInCU: 0x24C76, offset: 0x24C76, size: 0x8, addend: 0x0, symName: __ZNSt4pairIKNSt7__cxx1112basic_stringIcSt11char_traitsIcESaIcEEEcEC1IRA4_KccLb1EEEOT_OT0_, symObjAddr: 0x5C0, symBinAddr: 0x1000033FC, symSize: 0x90 }
  - { offsetInCU: 0x24D8E, offset: 0x24D8E, size: 0x8, addend: 0x0, symName: __ZNSt4pairIKNSt7__cxx1112basic_stringIcSt11char_traitsIcESaIcEEEcEC1IRA3_KccLb1EEEOT_OT0_, symObjAddr: 0x530, symBinAddr: 0x10000336C, symSize: 0x90 }
  - { offsetInCU: 0x24EA6, offset: 0x24EA6, size: 0x8, addend: 0x0, symName: __ZNSt4pairIKNSt7__cxx1112basic_stringIcSt11char_traitsIcESaIcEEEcEC1IRA2_KccLb1EEEOT_OT0_, symObjAddr: 0x4A0, symBinAddr: 0x1000032DC, symSize: 0x90 }
  - { offsetInCU: 0x24F8B, offset: 0x24F8B, size: 0x8, addend: 0x0, symName: __ZNSt4pairIKNSt7__cxx1112basic_stringIcSt11char_traitsIcESaIcEEEcED1Ev, symObjAddr: 0x480, symBinAddr: 0x1000032BC, symSize: 0x20 }
  - { offsetInCU: 0x2500D, offset: 0x2500D, size: 0x8, addend: 0x0, symName: __ZNSt4pairIKcNSt7__cxx1112basic_stringIcSt11char_traitsIcESaIcEEEEC1IcRA5_S0_Lb1EEEOT_OT0_, symObjAddr: 0x3EC, symBinAddr: 0x100003228, symSize: 0x94 }
  - { offsetInCU: 0x25125, offset: 0x25125, size: 0x8, addend: 0x0, symName: __ZNSt4pairIKcNSt7__cxx1112basic_stringIcSt11char_traitsIcESaIcEEEEC1IcRA4_S0_Lb1EEEOT_OT0_, symObjAddr: 0x358, symBinAddr: 0x100003194, symSize: 0x94 }
  - { offsetInCU: 0x2523D, offset: 0x2523D, size: 0x8, addend: 0x0, symName: __ZNSt4pairIKcNSt7__cxx1112basic_stringIcSt11char_traitsIcESaIcEEEEC1IcRA3_S0_Lb1EEEOT_OT0_, symObjAddr: 0x2C4, symBinAddr: 0x100003100, symSize: 0x94 }
  - { offsetInCU: 0x25355, offset: 0x25355, size: 0x8, addend: 0x0, symName: __ZNSt4pairIKcNSt7__cxx1112basic_stringIcSt11char_traitsIcESaIcEEEEC1IcRA2_S0_Lb1EEEOT_OT0_, symObjAddr: 0x230, symBinAddr: 0x10000306C, symSize: 0x94 }
  - { offsetInCU: 0x25439, offset: 0x25439, size: 0x8, addend: 0x0, symName: __ZNSt4pairIKcNSt7__cxx1112basic_stringIcSt11char_traitsIcESaIcEEEED1Ev, symObjAddr: 0x20C, symBinAddr: 0x100003048, symSize: 0x24 }
  - { offsetInCU: 0x2541E, offset: 0x2541E, size: 0x8, addend: 0x0, symName: __ZSt7forwardIcEOT_RNSt16remove_referenceIS0_E4typeE, symObjAddr: 0x1F8, symBinAddr: 0x100003034, symSize: 0x14 }
  - { offsetInCU: 0x25454, offset: 0x25454, size: 0x8, addend: 0x0, symName: __ZNSt15_Rb_tree_header8_M_resetEv, symObjAddr: 0x1BC, symBinAddr: 0x100002FF8, symSize: 0x3C }
  - { offsetInCU: 0x254AF, offset: 0x254AF, size: 0x8, addend: 0x0, symName: __ZNSt15_Rb_tree_headerC2Ev, symObjAddr: 0x194, symBinAddr: 0x100002FD0, symSize: 0x28 }
  - { offsetInCU: 0x254BA, offset: 0x254BA, size: 0x8, addend: 0x0, symName: __ZNSt11char_traitsIcE6lengthEPKc, symObjAddr: 0x158, symBinAddr: 0x100002F94, symSize: 0x3C }
  - { offsetInCU: 0x254FE, offset: 0x254FE, size: 0x8, addend: 0x0, symName: __ZNSt11char_traitsIcE7compareEPKcS2_m, symObjAddr: 0x68, symBinAddr: 0x100002EA4, symSize: 0xF0 }
  - { offsetInCU: 0x25588, offset: 0x25588, size: 0x8, addend: 0x0, symName: __ZNSt11char_traitsIcE2ltERKcS2_, symObjAddr: 0x30, symBinAddr: 0x100002E6C, symSize: 0x38 }
  - { offsetInCU: 0x255D0, offset: 0x255D0, size: 0x8, addend: 0x0, symName: __ZdlPvS_, symObjAddr: 0x18, symBinAddr: 0x100002E54, symSize: 0x18 }
  - { offsetInCU: 0x25605, offset: 0x25605, size: 0x8, addend: 0x0, symName: __ZnwmPv, symObjAddr: 0x0, symBinAddr: 0x100002E3C, symSize: 0x18 }
...
