---
triple:          'arm64-apple-darwin'
binary-path:     '/Users/pai/code/CU Grader/output/Recurrences_3'
relocations:
  - { offsetInCU: 0x8999, offset: 0x8999, size: 0x8, addend: 0x0, symName: __ZStL8__ioinit, symObjAddr: 0x3D938, symBinAddr: 0x10000C000, symSize: 0x0 }
  - { offsetInCU: 0x8E50, offset: 0x8E50, size: 0x8, addend: 0x0, symName: __ZNSt10_Head_baseILm0ERKNSt7__cxx1112basic_stringIcSt11char_traitsIcESaIcEEELb0EE7_M_headERS8_, symObjAddr: 0x25A0, symBinAddr: 0x100005A40, symSize: 0x18 }
  - { offsetInCU: 0x8E77, offset: 0x8E77, size: 0x8, addend: 0x0, symName: __ZNSt11_Tuple_implILm0EJRKNSt7__cxx1112basic_stringIcSt11char_traitsIcESaIcEEEEE7_M_headERS8_, symObjAddr: 0x2584, symBinAddr: 0x100005A24, symSize: 0x1C }
  - { offsetInCU: 0x8E9F, offset: 0x8E9F, size: 0x8, addend: 0x0, symName: __ZSt12__get_helperILm0ERKNSt7__cxx1112basic_stringIcSt11char_traitsIcESaIcEEEJEERT0_RSt11_Tuple_implIXT_EJS8_DpT1_EE, symObjAddr: 0x2568, symBinAddr: 0x100005A08, symSize: 0x1C }
  - { offsetInCU: 0x8EE5, offset: 0x8EE5, size: 0x8, addend: 0x0, symName: __ZSt7forwardIRKNSt7__cxx1112basic_stringIcSt11char_traitsIcESaIcEEEEOT_RNSt16remove_referenceIS8_E4typeE, symObjAddr: 0x2554, symBinAddr: 0x1000059F4, symSize: 0x14 }
  - { offsetInCU: 0x8F15, offset: 0x8F15, size: 0x8, addend: 0x0, symName: __ZSt3getILm0EJRKNSt7__cxx1112basic_stringIcSt11char_traitsIcESaIcEEEEERNSt13tuple_elementIXT_ESt5tupleIJDpT0_EEE4typeERSC_, symObjAddr: 0x2538, symBinAddr: 0x1000059D8, symSize: 0x1C }
  - { offsetInCU: 0x905B, offset: 0x905B, size: 0x8, addend: 0x0, symName: __ZNSt4pairIKNSt7__cxx1112basic_stringIcSt11char_traitsIcESaIcEEEPFiiiEEC1IJRS6_EJLm0EEJEJEEERSt5tupleIJDpT_EERSC_IJDpT1_EESt12_Index_tupleIJXspT0_EEESL_IJXspT2_EEE, symObjAddr: 0x24E4, symBinAddr: 0x100005984, symSize: 0x54 }
  - { offsetInCU: 0x90CF, offset: 0x90CF, size: 0x8, addend: 0x0, symName: __ZNSt4pairIKNSt7__cxx1112basic_stringIcSt11char_traitsIcESaIcEEEPFiiiEEC1ERKS9_, symObjAddr: 0x24AC, symBinAddr: 0x10000594C, symSize: 0x38 }
  - { offsetInCU: 0x917C, offset: 0x917C, size: 0x8, addend: 0x0, symName: __ZNSt4pairIKNSt7__cxx1112basic_stringIcSt11char_traitsIcESaIcEEEPFiiiEEC1IJRS6_EJEEESt21piecewise_construct_tSt5tupleIJDpT_EESD_IJDpT0_EE, symObjAddr: 0x2470, symBinAddr: 0x100005910, symSize: 0x3C }
  - { offsetInCU: 0x91BC, offset: 0x91BC, size: 0x8, addend: 0x0, symName: __ZNSt11_Tuple_implILm0EJRKNSt7__cxx1112basic_stringIcSt11char_traitsIcESaIcEEEEEC2EOS8_, symObjAddr: 0x2448, symBinAddr: 0x1000058E8, symSize: 0x28 }
  - { offsetInCU: 0x9298, offset: 0x9298, size: 0x8, addend: 0x0, symName: __ZNSt5tupleIJRKNSt7__cxx1112basic_stringIcSt11char_traitsIcESaIcEEEEEC1EOS8_, symObjAddr: 0x2420, symBinAddr: 0x1000058C0, symSize: 0x28 }
  - { offsetInCU: 0x927B, offset: 0x927B, size: 0x8, addend: 0x0, symName: __ZNSt15__new_allocatorISt13_Rb_tree_nodeISt4pairIKNSt7__cxx1112basic_stringIcSt11char_traitsIcESaIcEEEPFiiiEEEE8allocateEmPKv, symObjAddr: 0x2388, symBinAddr: 0x100005828, symSize: 0x98 }
  - { offsetInCU: 0x9308, offset: 0x9308, size: 0x8, addend: 0x0, symName: __ZNK9__gnu_cxx16__aligned_membufISt4pairIKNSt7__cxx1112basic_stringIcSt11char_traitsIcESaIcEEEPFiiiEEE7_M_addrEv, symObjAddr: 0x2374, symBinAddr: 0x100005814, symSize: 0x14 }
  - { offsetInCU: 0x9331, offset: 0x9331, size: 0x8, addend: 0x0, symName: __ZNSt8_Rb_treeINSt7__cxx1112basic_stringIcSt11char_traitsIcESaIcEEESt4pairIKS5_PFiiiEESt10_Select1stISA_ESt4lessIS5_ESaISA_EE17_M_construct_nodeIJRKSA_EEEvPSt13_Rb_tree_nodeISA_EDpOT_, symObjAddr: 0x2270, symBinAddr: 0x100005710, symSize: 0x104 }
  - { offsetInCU: 0x93EC, offset: 0x93EC, size: 0x8, addend: 0x0, symName: __ZSt7forwardIRPSt13_Rb_tree_nodeISt4pairIKNSt7__cxx1112basic_stringIcSt11char_traitsIcESaIcEEEPFiiiEEEEOT_RNSt16remove_referenceISF_E4typeE, symObjAddr: 0x225C, symBinAddr: 0x1000056FC, symSize: 0x14 }
  - { offsetInCU: 0x9495, offset: 0x9495, size: 0x8, addend: 0x0, symName: __ZNK9__gnu_cxx16__aligned_membufISt4pairIKNSt7__cxx1112basic_stringIcSt11char_traitsIcESaIcEEEPFiiiEEE6_M_ptrEv, symObjAddr: 0x2240, symBinAddr: 0x1000056E0, symSize: 0x1C }
  - { offsetInCU: 0x94BF, offset: 0x94BF, size: 0x8, addend: 0x0, symName: __ZNSt15__new_allocatorISt13_Rb_tree_nodeISt4pairIKNSt7__cxx1112basic_stringIcSt11char_traitsIcESaIcEEEPFiiiEEEE10deallocateEPSC_m, symObjAddr: 0x2204, symBinAddr: 0x1000056A4, symSize: 0x3C }
  - { offsetInCU: 0x9530, offset: 0x9530, size: 0x8, addend: 0x0, symName: __ZNSt8_Rb_treeINSt7__cxx1112basic_stringIcSt11char_traitsIcESaIcEEESt4pairIKS5_PFiiiEESt10_Select1stISA_ESt4lessIS5_ESaISA_EE14_M_create_nodeIJRKSA_EEEPSt13_Rb_tree_nodeISA_EDpOT_, symObjAddr: 0x21C4, symBinAddr: 0x100005664, symSize: 0x40 }
  - { offsetInCU: 0x9587, offset: 0x9587, size: 0x8, addend: 0x0, symName: __ZSt7forwardIRPSt18_Rb_tree_node_baseEOT_RNSt16remove_referenceIS3_E4typeE, symObjAddr: 0x21B0, symBinAddr: 0x100005650, symSize: 0x14 }
  - { offsetInCU: 0x968A, offset: 0x968A, size: 0x8, addend: 0x0, symName: __ZNSt4pairIPSt18_Rb_tree_node_baseS1_EC1IRPSt13_Rb_tree_nodeIS_IKNSt7__cxx1112basic_stringIcSt11char_traitsIcESaIcEEEPFiiiEEERS1_Lb1EEEOT_OT0_, symObjAddr: 0x2168, symBinAddr: 0x100005608, symSize: 0x48 }
  - { offsetInCU: 0x9645, offset: 0x9645, size: 0x8, addend: 0x0, symName: __ZNSt8_Rb_treeINSt7__cxx1112basic_stringIcSt11char_traitsIcESaIcEEESt4pairIKS5_PFiiiEESt10_Select1stISA_ESt4lessIS5_ESaISA_EE5beginEv, symObjAddr: 0x2140, symBinAddr: 0x1000055E0, symSize: 0x28 }
  - { offsetInCU: 0x966F, offset: 0x966F, size: 0x8, addend: 0x0, symName: __ZNSt8_Rb_treeINSt7__cxx1112basic_stringIcSt11char_traitsIcESaIcEEESt4pairIKS5_PFiiiEESt10_Select1stISA_ESt4lessIS5_ESaISA_EE17_M_construct_nodeIJRKSt21piecewise_construct_tSt5tupleIJRS7_EESL_IJEEEEEvPSt13_Rb_tree_nodeISA_EDpOT_, symObjAddr: 0x1FC4, symBinAddr: 0x100005464, symSize: 0x17C }
  - { offsetInCU: 0x9764, offset: 0x9764, size: 0x8, addend: 0x0, symName: __ZNSt8_Rb_treeINSt7__cxx1112basic_stringIcSt11char_traitsIcESaIcEEESt4pairIKS5_PFiiiEESt10_Select1stISA_ESt4lessIS5_ESaISA_EE11_M_get_nodeEv, symObjAddr: 0x1F88, symBinAddr: 0x100005428, symSize: 0x3C }
  - { offsetInCU: 0x97BE, offset: 0x97BE, size: 0x8, addend: 0x0, symName: __ZN9__gnu_cxx16__aligned_membufISt4pairIKNSt7__cxx1112basic_stringIcSt11char_traitsIcESaIcEEEPFiiiEEE7_M_addrEv, symObjAddr: 0x1F74, symBinAddr: 0x100005414, symSize: 0x14 }
  - { offsetInCU: 0x97E7, offset: 0x97E7, size: 0x8, addend: 0x0, symName: __ZNKSt13_Rb_tree_nodeISt4pairIKNSt7__cxx1112basic_stringIcSt11char_traitsIcESaIcEEEPFiiiEEE9_M_valptrEv, symObjAddr: 0x1F54, symBinAddr: 0x1000053F4, symSize: 0x20 }
  - { offsetInCU: 0x9869, offset: 0x9869, size: 0x8, addend: 0x0, symName: __ZNSt8_Rb_treeINSt7__cxx1112basic_stringIcSt11char_traitsIcESaIcEEESt4pairIKS5_PFiiiEESt10_Select1stISA_ESt4lessIS5_ESaISA_EE21_M_get_Node_allocatorEv, symObjAddr: 0x1F40, symBinAddr: 0x1000053E0, symSize: 0x14 }
  - { offsetInCU: 0x989E, offset: 0x989E, size: 0x8, addend: 0x0, symName: __ZNKSt8_Rb_treeINSt7__cxx1112basic_stringIcSt11char_traitsIcESaIcEEESt4pairIKS5_PFiiiEESt10_Select1stISA_ESt4lessIS5_ESaISA_EE11_Alloc_nodeclIRKSA_EEPSt13_Rb_tree_nodeISA_EOT_, symObjAddr: 0x1F04, symBinAddr: 0x1000053A4, symSize: 0x3C }
  - { offsetInCU: 0x98FA, offset: 0x98FA, size: 0x8, addend: 0x0, symName: __ZNSt8_Rb_treeINSt7__cxx1112basic_stringIcSt11char_traitsIcESaIcEEESt4pairIKS5_PFiiiEESt10_Select1stISA_ESt4lessIS5_ESaISA_EE14_M_insert_nodeEPSt18_Rb_tree_node_baseSI_PSt13_Rb_tree_nodeISA_E, symObjAddr: 0x1E34, symBinAddr: 0x1000052D4, symSize: 0xD0 }
  - { offsetInCU: 0x9965, offset: 0x9965, size: 0x8, addend: 0x0, symName: __ZNSt17_Rb_tree_iteratorISt4pairIKNSt7__cxx1112basic_stringIcSt11char_traitsIcESaIcEEEPFiiiEEEppEv, symObjAddr: 0x1E04, symBinAddr: 0x1000052A4, symSize: 0x30 }
  - { offsetInCU: 0x998F, offset: 0x998F, size: 0x8, addend: 0x0, symName: __ZNSt17_Rb_tree_iteratorISt4pairIKNSt7__cxx1112basic_stringIcSt11char_traitsIcESaIcEEEPFiiiEEEmmEv, symObjAddr: 0x1DD4, symBinAddr: 0x100005274, symSize: 0x30 }
  - { offsetInCU: 0x9A37, offset: 0x9A37, size: 0x8, addend: 0x0, symName: __ZNSt4pairIPSt18_Rb_tree_node_baseS1_EC1IRS1_S4_Lb1EEEOT_OT0_, symObjAddr: 0x1D8C, symBinAddr: 0x10000522C, symSize: 0x48 }
  - { offsetInCU: 0x9A43, offset: 0x9A43, size: 0x8, addend: 0x0, symName: __ZNSt8_Rb_treeINSt7__cxx1112basic_stringIcSt11char_traitsIcESaIcEEESt4pairIKS5_PFiiiEESt10_Select1stISA_ESt4lessIS5_ESaISA_EE11_M_leftmostEv, symObjAddr: 0x1D74, symBinAddr: 0x100005214, symSize: 0x18 }
  - { offsetInCU: 0x9A6D, offset: 0x9A6D, size: 0x8, addend: 0x0, symName: __ZNSt8_Rb_treeINSt7__cxx1112basic_stringIcSt11char_traitsIcESaIcEEESt4pairIKS5_PFiiiEESt10_Select1stISA_ESt4lessIS5_ESaISA_EE24_M_get_insert_unique_posERS7_, symObjAddr: 0x1C1C, symBinAddr: 0x1000050BC, symSize: 0x158 }
  - { offsetInCU: 0x9B6E, offset: 0x9B6E, size: 0x8, addend: 0x0, symName: __ZNSt4pairIPSt18_Rb_tree_node_baseS1_EC1IS1_S1_Lb1EEERKS1_S5_, symObjAddr: 0x1BE0, symBinAddr: 0x100005080, symSize: 0x3C }
  - { offsetInCU: 0x9B7A, offset: 0x9B7A, size: 0x8, addend: 0x0, symName: __ZNSt8_Rb_treeINSt7__cxx1112basic_stringIcSt11char_traitsIcESaIcEEESt4pairIKS5_PFiiiEESt10_Select1stISA_ESt4lessIS5_ESaISA_EE12_M_rightmostEv, symObjAddr: 0x1BC8, symBinAddr: 0x100005068, symSize: 0x18 }
  - { offsetInCU: 0x9BA4, offset: 0x9BA4, size: 0x8, addend: 0x0, symName: __ZNKSt8_Rb_treeINSt7__cxx1112basic_stringIcSt11char_traitsIcESaIcEEESt4pairIKS5_PFiiiEESt10_Select1stISA_ESt4lessIS5_ESaISA_EE4sizeEv, symObjAddr: 0x1BB0, symBinAddr: 0x100005050, symSize: 0x18 }
  - { offsetInCU: 0x9BCE, offset: 0x9BCE, size: 0x8, addend: 0x0, symName: __ZNKSt23_Rb_tree_const_iteratorISt4pairIKNSt7__cxx1112basic_stringIcSt11char_traitsIcESaIcEEEPFiiiEEE13_M_const_castEv, symObjAddr: 0x1B88, symBinAddr: 0x100005028, symSize: 0x28 }
  - { offsetInCU: 0x9BF8, offset: 0x9BF8, size: 0x8, addend: 0x0, symName: __ZNSt8_Rb_treeINSt7__cxx1112basic_stringIcSt11char_traitsIcESaIcEEESt4pairIKS5_PFiiiEESt10_Select1stISA_ESt4lessIS5_ESaISA_EE14_M_create_nodeIJRKSt21piecewise_construct_tSt5tupleIJRS7_EESL_IJEEEEEPSt13_Rb_tree_nodeISA_EDpOT_, symObjAddr: 0x1B18, symBinAddr: 0x100004FB8, symSize: 0x70 }
  - { offsetInCU: 0x9CE1, offset: 0x9CE1, size: 0x8, addend: 0x0, symName: __ZNSt10_Head_baseILm0ERKNSt7__cxx1112basic_stringIcSt11char_traitsIcESaIcEEELb0EEC2ES7_, symObjAddr: 0x1AF4, symBinAddr: 0x100004F94, symSize: 0x24 }
  - { offsetInCU: 0x9CB9, offset: 0x9CB9, size: 0x8, addend: 0x0, symName: __ZN9__gnu_cxx16__aligned_membufISt4pairIKNSt7__cxx1112basic_stringIcSt11char_traitsIcESaIcEEEPFiiiEEE6_M_ptrEv, symObjAddr: 0x1AD8, symBinAddr: 0x100004F78, symSize: 0x1C }
  - { offsetInCU: 0x9CDF, offset: 0x9CDF, size: 0x8, addend: 0x0, symName: __ZNSt8_Rb_treeINSt7__cxx1112basic_stringIcSt11char_traitsIcESaIcEEESt4pairIKS5_PFiiiEESt10_Select1stISA_ESt4lessIS5_ESaISA_EE6_S_keyEPKSt13_Rb_tree_nodeISA_E, symObjAddr: 0x1AB0, symBinAddr: 0x100004F50, symSize: 0x28 }
  - { offsetInCU: 0x9D0B, offset: 0x9D0B, size: 0x8, addend: 0x0, symName: __ZNSt8_Rb_treeINSt7__cxx1112basic_stringIcSt11char_traitsIcESaIcEEESt4pairIKS5_PFiiiEESt10_Select1stISA_ESt4lessIS5_ESaISA_EE11_M_put_nodeEPSt13_Rb_tree_nodeISA_E, symObjAddr: 0x1A64, symBinAddr: 0x100004F04, symSize: 0x4C }
  - { offsetInCU: 0x9D78, offset: 0x9D78, size: 0x8, addend: 0x0, symName: __ZNSt8_Rb_treeINSt7__cxx1112basic_stringIcSt11char_traitsIcESaIcEEESt4pairIKS5_PFiiiEESt10_Select1stISA_ESt4lessIS5_ESaISA_EE15_M_destroy_nodeEPSt13_Rb_tree_nodeISA_E, symObjAddr: 0x1A04, symBinAddr: 0x100004EA4, symSize: 0x60 }
  - { offsetInCU: 0x9E0E, offset: 0x9E0E, size: 0x8, addend: 0x0, symName: __ZNSt8_Rb_treeINSt7__cxx1112basic_stringIcSt11char_traitsIcESaIcEEESt4pairIKS5_PFiiiEESt10_Select1stISA_ESt4lessIS5_ESaISA_EE10_M_insert_IRKSA_NSG_11_Alloc_nodeEEESt17_Rb_tree_iteratorISA_EPSt18_Rb_tree_node_baseSO_OT_RT0_, symObjAddr: 0x1914, symBinAddr: 0x100004DB4, symSize: 0xF0 }
  - { offsetInCU: 0x9EAF, offset: 0x9EAF, size: 0x8, addend: 0x0, symName: __ZSt7forwardIRKSt4pairIKNSt7__cxx1112basic_stringIcSt11char_traitsIcESaIcEEEPFiiiEEEOT_RNSt16remove_referenceISD_E4typeE, symObjAddr: 0x1900, symBinAddr: 0x100004DA0, symSize: 0x14 }
  - { offsetInCU: 0x9EE3, offset: 0x9EE3, size: 0x8, addend: 0x0, symName: __ZNKSt10_Select1stISt4pairIKNSt7__cxx1112basic_stringIcSt11char_traitsIcESaIcEEEPFiiiEEEclERKSA_, symObjAddr: 0x18E8, symBinAddr: 0x100004D88, symSize: 0x18 }
  - { offsetInCU: 0x9FA0, offset: 0x9FA0, size: 0x8, addend: 0x0, symName: __ZNSt20_Rb_tree_key_compareISt4lessINSt7__cxx1112basic_stringIcSt11char_traitsIcESaIcEEEEEC2ERKS7_, symObjAddr: 0x18D0, symBinAddr: 0x100004D70, symSize: 0x18 }
  - { offsetInCU: 0x9F8F, offset: 0x9F8F, size: 0x8, addend: 0x0, symName: __ZSt4moveIRSaISt13_Rb_tree_nodeISt4pairIKNSt7__cxx1112basic_stringIcSt11char_traitsIcESaIcEEEPFiiiEEEEEONSt16remove_referenceIT_E4typeEOSG_, symObjAddr: 0x18BC, symBinAddr: 0x100004D5C, symSize: 0x14 }
  - { offsetInCU: 0xA004, offset: 0xA004, size: 0x8, addend: 0x0, symName: __ZNSt8_Rb_treeINSt7__cxx1112basic_stringIcSt11char_traitsIcESaIcEEESt4pairIKS5_PFiiiEESt10_Select1stISA_ESt4lessIS5_ESaISA_EE10_Auto_node9_M_insertES6_IPSt18_Rb_tree_node_baseSJ_E, symObjAddr: 0x1870, symBinAddr: 0x100004D10, symSize: 0x4C }
  - { offsetInCU: 0xA04F, offset: 0xA04F, size: 0x8, addend: 0x0, symName: __ZNKSt8_Rb_treeINSt7__cxx1112basic_stringIcSt11char_traitsIcESaIcEEESt4pairIKS5_PFiiiEESt10_Select1stISA_ESt4lessIS5_ESaISA_EE10_Auto_node6_M_keyEv, symObjAddr: 0x1850, symBinAddr: 0x100004CF0, symSize: 0x20 }
  - { offsetInCU: 0xA079, offset: 0xA079, size: 0x8, addend: 0x0, symName: __ZNSt8_Rb_treeINSt7__cxx1112basic_stringIcSt11char_traitsIcESaIcEEESt4pairIKS5_PFiiiEESt10_Select1stISA_ESt4lessIS5_ESaISA_EE29_M_get_insert_hint_unique_posESt23_Rb_tree_const_iteratorISA_ERS7_, symObjAddr: 0x152C, symBinAddr: 0x1000049CC, symSize: 0x324 }
  - { offsetInCU: 0xA1CD, offset: 0xA1CD, size: 0x8, addend: 0x0, symName: __ZNSt8_Rb_treeINSt7__cxx1112basic_stringIcSt11char_traitsIcESaIcEEESt4pairIKS5_PFiiiEESt10_Select1stISA_ESt4lessIS5_ESaISA_EE10_Auto_nodeD1Ev, symObjAddr: 0x14E8, symBinAddr: 0x100004988, symSize: 0x44 }
  - { offsetInCU: 0xA27E, offset: 0xA27E, size: 0x8, addend: 0x0, symName: __ZNSt8_Rb_treeINSt7__cxx1112basic_stringIcSt11char_traitsIcESaIcEEESt4pairIKS5_PFiiiEESt10_Select1stISA_ESt4lessIS5_ESaISA_EE10_Auto_nodeC1IJRKSt21piecewise_construct_tSt5tupleIJRS7_EESM_IJEEEEERSG_DpOT_, symObjAddr: 0x146C, symBinAddr: 0x10000490C, symSize: 0x7C }
  - { offsetInCU: 0xA217, offset: 0xA217, size: 0x8, addend: 0x0, symName: __ZSt7forwardISt5tupleIJEEEOT_RNSt16remove_referenceIS2_E4typeE, symObjAddr: 0x1458, symBinAddr: 0x1000048F8, symSize: 0x14 }
  - { offsetInCU: 0xA24D, offset: 0xA24D, size: 0x8, addend: 0x0, symName: __ZSt7forwardISt5tupleIJRKNSt7__cxx1112basic_stringIcSt11char_traitsIcESaIcEEEEEEOT_RNSt16remove_referenceISA_E4typeE, symObjAddr: 0x1444, symBinAddr: 0x1000048E4, symSize: 0x14 }
  - { offsetInCU: 0xA283, offset: 0xA283, size: 0x8, addend: 0x0, symName: __ZSt7forwardIRKSt21piecewise_construct_tEOT_RNSt16remove_referenceIS3_E4typeE, symObjAddr: 0x1430, symBinAddr: 0x1000048D0, symSize: 0x14 }
  - { offsetInCU: 0xA32F, offset: 0xA32F, size: 0x8, addend: 0x0, symName: __ZNSt11_Tuple_implILm0EJRKNSt7__cxx1112basic_stringIcSt11char_traitsIcESaIcEEEEEC2ES7_, symObjAddr: 0x1408, symBinAddr: 0x1000048A8, symSize: 0x28 }
  - { offsetInCU: 0xA304, offset: 0xA304, size: 0x8, addend: 0x0, symName: __ZStltIcSt11char_traitsIcESaIcEEbRKNSt7__cxx1112basic_stringIT_T0_T1_EESA_, symObjAddr: 0x13DC, symBinAddr: 0x10000487C, symSize: 0x2C }
  - { offsetInCU: 0xA35B, offset: 0xA35B, size: 0x8, addend: 0x0, symName: __ZNSt13_Rb_tree_nodeISt4pairIKNSt7__cxx1112basic_stringIcSt11char_traitsIcESaIcEEEPFiiiEEE9_M_valptrEv, symObjAddr: 0x13BC, symBinAddr: 0x10000485C, symSize: 0x20 }
  - { offsetInCU: 0xA385, offset: 0xA385, size: 0x8, addend: 0x0, symName: __ZNKSt8_Rb_treeINSt7__cxx1112basic_stringIcSt11char_traitsIcESaIcEEESt4pairIKS5_PFiiiEESt10_Select1stISA_ESt4lessIS5_ESaISA_EE8key_compEv, symObjAddr: 0x13A4, symBinAddr: 0x100004844, symSize: 0x18 }
  - { offsetInCU: 0xA3AF, offset: 0xA3AF, size: 0x8, addend: 0x0, symName: __ZNSt8_Rb_treeINSt7__cxx1112basic_stringIcSt11char_traitsIcESaIcEEESt4pairIKS5_PFiiiEESt10_Select1stISA_ESt4lessIS5_ESaISA_EE11lower_boundERS7_, symObjAddr: 0x135C, symBinAddr: 0x1000047FC, symSize: 0x48 }
  - { offsetInCU: 0xA483, offset: 0xA483, size: 0x8, addend: 0x0, symName: __ZNSt17_Rb_tree_iteratorISt4pairIKNSt7__cxx1112basic_stringIcSt11char_traitsIcESaIcEEEPFiiiEEEC1EPSt18_Rb_tree_node_base, symObjAddr: 0x1338, symBinAddr: 0x1000047D8, symSize: 0x24 }
  - { offsetInCU: 0xA436, offset: 0xA436, size: 0x8, addend: 0x0, symName: __ZNSt8_Rb_treeINSt7__cxx1112basic_stringIcSt11char_traitsIcESaIcEEESt4pairIKS5_PFiiiEESt10_Select1stISA_ESt4lessIS5_ESaISA_EE6_S_keyEPKSt18_Rb_tree_node_base, symObjAddr: 0x131C, symBinAddr: 0x1000047BC, symSize: 0x1C }
  - { offsetInCU: 0xA462, offset: 0xA462, size: 0x8, addend: 0x0, symName: __ZNSt8_Rb_treeINSt7__cxx1112basic_stringIcSt11char_traitsIcESaIcEEESt4pairIKS5_PFiiiEESt10_Select1stISA_ESt4lessIS5_ESaISA_EE14_M_lower_boundEPSt13_Rb_tree_nodeISA_EPSt18_Rb_tree_node_baseRS7_, symObjAddr: 0x1280, symBinAddr: 0x100004720, symSize: 0x9C }
  - { offsetInCU: 0xA4BC, offset: 0xA4BC, size: 0x8, addend: 0x0, symName: __ZNSt8_Rb_treeINSt7__cxx1112basic_stringIcSt11char_traitsIcESaIcEEESt4pairIKS5_PFiiiEESt10_Select1stISA_ESt4lessIS5_ESaISA_EE6_M_endEv, symObjAddr: 0x1268, symBinAddr: 0x100004708, symSize: 0x18 }
  - { offsetInCU: 0xA4E6, offset: 0xA4E6, size: 0x8, addend: 0x0, symName: __ZNKSt8_Rb_treeINSt7__cxx1112basic_stringIcSt11char_traitsIcESaIcEEESt4pairIKS5_PFiiiEESt10_Select1stISA_ESt4lessIS5_ESaISA_EE9_M_mbeginEv, symObjAddr: 0x1250, symBinAddr: 0x1000046F0, symSize: 0x18 }
  - { offsetInCU: 0xA510, offset: 0xA510, size: 0x8, addend: 0x0, symName: __ZNSt8_Rb_treeINSt7__cxx1112basic_stringIcSt11char_traitsIcESaIcEEESt4pairIKS5_PFiiiEESt10_Select1stISA_ESt4lessIS5_ESaISA_EE12_M_drop_nodeEPSt13_Rb_tree_nodeISA_E, symObjAddr: 0x121C, symBinAddr: 0x1000046BC, symSize: 0x34 }
  - { offsetInCU: 0xA546, offset: 0xA546, size: 0x8, addend: 0x0, symName: __ZNSt8_Rb_treeINSt7__cxx1112basic_stringIcSt11char_traitsIcESaIcEEESt4pairIKS5_PFiiiEESt10_Select1stISA_ESt4lessIS5_ESaISA_EE7_S_leftEPSt18_Rb_tree_node_base, symObjAddr: 0x1204, symBinAddr: 0x1000046A4, symSize: 0x18 }
  - { offsetInCU: 0xA56E, offset: 0xA56E, size: 0x8, addend: 0x0, symName: __ZNSt8_Rb_treeINSt7__cxx1112basic_stringIcSt11char_traitsIcESaIcEEESt4pairIKS5_PFiiiEESt10_Select1stISA_ESt4lessIS5_ESaISA_EE8_S_rightEPSt18_Rb_tree_node_base, symObjAddr: 0x11EC, symBinAddr: 0x10000468C, symSize: 0x18 }
  - { offsetInCU: 0xA62B, offset: 0xA62B, size: 0x8, addend: 0x0, symName: __ZNSt15__new_allocatorISt13_Rb_tree_nodeISt4pairIKNSt7__cxx1112basic_stringIcSt11char_traitsIcESaIcEEEPFiiiEEEED2Ev, symObjAddr: 0x11D8, symBinAddr: 0x100004678, symSize: 0x14 }
  - { offsetInCU: 0xA5DF, offset: 0xA5DF, size: 0x8, addend: 0x0, symName: __ZNSt8_Rb_treeINSt7__cxx1112basic_stringIcSt11char_traitsIcESaIcEEESt4pairIKS5_PFiiiEESt10_Select1stISA_ESt4lessIS5_ESaISA_EE17_M_insert_unique_IRKSA_NSG_11_Alloc_nodeEEESt17_Rb_tree_iteratorISA_ESt23_Rb_tree_const_iteratorISA_EOT_RT0_, symObjAddr: 0x1148, symBinAddr: 0x1000045E8, symSize: 0x90 }
  - { offsetInCU: 0xA70F, offset: 0xA70F, size: 0x8, addend: 0x0, symName: __ZNSt8_Rb_treeINSt7__cxx1112basic_stringIcSt11char_traitsIcESaIcEEESt4pairIKS5_PFiiiEESt10_Select1stISA_ESt4lessIS5_ESaISA_EE11_Alloc_nodeC1ERSG_, symObjAddr: 0x1124, symBinAddr: 0x1000045C4, symSize: 0x24 }
  - { offsetInCU: 0xA6AD, offset: 0xA6AD, size: 0x8, addend: 0x0, symName: __ZNKSt16initializer_listISt4pairIKNSt7__cxx1112basic_stringIcSt11char_traitsIcESaIcEEEPFiiiEEE4sizeEv, symObjAddr: 0x110C, symBinAddr: 0x1000045AC, symSize: 0x18 }
  - { offsetInCU: 0xA7BE, offset: 0xA7BE, size: 0x8, addend: 0x0, symName: __ZNSt8_Rb_treeINSt7__cxx1112basic_stringIcSt11char_traitsIcESaIcEEESt4pairIKS5_PFiiiEESt10_Select1stISA_ESt4lessIS5_ESaISA_EE13_Rb_tree_implISE_Lb1EEC1ERKSE_OSaISt13_Rb_tree_nodeISA_EE, symObjAddr: 0x10A4, symBinAddr: 0x100004544, symSize: 0x68 }
  - { offsetInCU: 0xA7F5, offset: 0xA7F5, size: 0x8, addend: 0x0, symName: __ZNSt8_Rb_treeINSt7__cxx1112basic_stringIcSt11char_traitsIcESaIcEEESt4pairIKS5_PFiiiEESt10_Select1stISA_ESt4lessIS5_ESaISA_EE22_M_emplace_hint_uniqueIJRKSt21piecewise_construct_tSt5tupleIJRS7_EESL_IJEEEEESt17_Rb_tree_iteratorISA_ESt23_Rb_tree_const_iteratorISA_EDpOT_, symObjAddr: 0xFCC, symBinAddr: 0x10000446C, symSize: 0xD8 }
  - { offsetInCU: 0xA92F, offset: 0xA92F, size: 0x8, addend: 0x0, symName: __ZNSt23_Rb_tree_const_iteratorISt4pairIKNSt7__cxx1112basic_stringIcSt11char_traitsIcESaIcEEEPFiiiEEEC1ERKSt17_Rb_tree_iteratorISA_E, symObjAddr: 0xFA4, symBinAddr: 0x100004444, symSize: 0x28 }
  - { offsetInCU: 0xA95C, offset: 0xA95C, size: 0x8, addend: 0x0, symName: __ZNSt5tupleIJRKNSt7__cxx1112basic_stringIcSt11char_traitsIcESaIcEEEEEC1ILb1ELb1EEES7_, symObjAddr: 0xF7C, symBinAddr: 0x10000441C, symSize: 0x28 }
  - { offsetInCU: 0xA940, offset: 0xA940, size: 0x8, addend: 0x0, symName: __ZNKSt4lessINSt7__cxx1112basic_stringIcSt11char_traitsIcESaIcEEEEclERKS5_S8_, symObjAddr: 0xF54, symBinAddr: 0x1000043F4, symSize: 0x28 }
  - { offsetInCU: 0xA98A, offset: 0xA98A, size: 0x8, addend: 0x0, symName: __ZNKSt17_Rb_tree_iteratorISt4pairIKNSt7__cxx1112basic_stringIcSt11char_traitsIcESaIcEEEPFiiiEEEdeEv, symObjAddr: 0xF34, symBinAddr: 0x1000043D4, symSize: 0x20 }
  - { offsetInCU: 0xA9B4, offset: 0xA9B4, size: 0x8, addend: 0x0, symName: __ZNKSt3mapINSt7__cxx1112basic_stringIcSt11char_traitsIcESaIcEEEPFiiiESt4lessIS5_ESaISt4pairIKS5_S7_EEE8key_compEv, symObjAddr: 0xF08, symBinAddr: 0x1000043A8, symSize: 0x2C }
  - { offsetInCU: 0xA9E0, offset: 0xA9E0, size: 0x8, addend: 0x0, symName: __ZSteqRKSt17_Rb_tree_iteratorISt4pairIKNSt7__cxx1112basic_stringIcSt11char_traitsIcESaIcEEEPFiiiEEESD_, symObjAddr: 0xED8, symBinAddr: 0x100004378, symSize: 0x30 }
  - { offsetInCU: 0xAA1C, offset: 0xAA1C, size: 0x8, addend: 0x0, symName: __ZNSt3mapINSt7__cxx1112basic_stringIcSt11char_traitsIcESaIcEEEPFiiiESt4lessIS5_ESaISt4pairIKS5_S7_EEE11lower_boundERSB_, symObjAddr: 0xEB4, symBinAddr: 0x100004354, symSize: 0x24 }
  - { offsetInCU: 0xAA56, offset: 0xAA56, size: 0x8, addend: 0x0, symName: __ZNSt8_Rb_treeINSt7__cxx1112basic_stringIcSt11char_traitsIcESaIcEEESt4pairIKS5_PFiiiEESt10_Select1stISA_ESt4lessIS5_ESaISA_EE3endEv, symObjAddr: 0xE8C, symBinAddr: 0x10000432C, symSize: 0x28 }
  - { offsetInCU: 0xAA80, offset: 0xAA80, size: 0x8, addend: 0x0, symName: __ZNSt8_Rb_treeINSt7__cxx1112basic_stringIcSt11char_traitsIcESaIcEEESt4pairIKS5_PFiiiEESt10_Select1stISA_ESt4lessIS5_ESaISA_EE4findERS7_, symObjAddr: 0xDE4, symBinAddr: 0x100004284, symSize: 0xA8 }
  - { offsetInCU: 0xAACB, offset: 0xAACB, size: 0x8, addend: 0x0, symName: __ZNSt8_Rb_treeINSt7__cxx1112basic_stringIcSt11char_traitsIcESaIcEEESt4pairIKS5_PFiiiEESt10_Select1stISA_ESt4lessIS5_ESaISA_EE8_M_beginEv, symObjAddr: 0xDC8, symBinAddr: 0x100004268, symSize: 0x1C }
  - { offsetInCU: 0xAAF5, offset: 0xAAF5, size: 0x8, addend: 0x0, symName: __ZNSt8_Rb_treeINSt7__cxx1112basic_stringIcSt11char_traitsIcESaIcEEESt4pairIKS5_PFiiiEESt10_Select1stISA_ESt4lessIS5_ESaISA_EE8_M_eraseEPSt13_Rb_tree_nodeISA_E, symObjAddr: 0xD64, symBinAddr: 0x100004204, symSize: 0x64 }
  - { offsetInCU: 0xAB70, offset: 0xAB70, size: 0x8, addend: 0x0, symName: __ZNSt8_Rb_treeINSt7__cxx1112basic_stringIcSt11char_traitsIcESaIcEEESt4pairIKS5_PFiiiEESt10_Select1stISA_ESt4lessIS5_ESaISA_EE22_M_insert_range_uniqueIPKSA_EENSt9enable_ifIXsrSt7is_sameISA_NSt15iterator_traitsIT_E10value_typeEE5valueEvE4typeESN_SN_, symObjAddr: 0xCE4, symBinAddr: 0x100004184, symSize: 0x80 }
  - { offsetInCU: 0xABD4, offset: 0xABD4, size: 0x8, addend: 0x0, symName: __ZNKSt16initializer_listISt4pairIKNSt7__cxx1112basic_stringIcSt11char_traitsIcESaIcEEEPFiiiEEE3endEv, symObjAddr: 0xC9C, symBinAddr: 0x10000413C, symSize: 0x48 }
  - { offsetInCU: 0xABFE, offset: 0xABFE, size: 0x8, addend: 0x0, symName: __ZNKSt16initializer_listISt4pairIKNSt7__cxx1112basic_stringIcSt11char_traitsIcESaIcEEEPFiiiEEE5beginEv, symObjAddr: 0xC84, symBinAddr: 0x100004124, symSize: 0x18 }
  - { offsetInCU: 0xACE1, offset: 0xACE1, size: 0x8, addend: 0x0, symName: __ZNSt8_Rb_treeINSt7__cxx1112basic_stringIcSt11char_traitsIcESaIcEEESt4pairIKS5_PFiiiEESt10_Select1stISA_ESt4lessIS5_ESaISA_EEC1ERKSE_RKSF_, symObjAddr: 0xC0C, symBinAddr: 0x1000040AC, symSize: 0x78 }
  - { offsetInCU: 0xADB9, offset: 0xADB9, size: 0x8, addend: 0x0, symName: __ZNSt15__new_allocatorISt4pairIKNSt7__cxx1112basic_stringIcSt11char_traitsIcESaIcEEEPFiiiEEED2Ev, symObjAddr: 0xBF8, symBinAddr: 0x100004098, symSize: 0x14 }
  - { offsetInCU: 0xAD94, offset: 0xAD94, size: 0x8, addend: 0x0, symName: __ZNSt7__cxx1112basic_stringIcSt11char_traitsIcESaIcEE12_M_constructIPKcEEvT_S8_St20forward_iterator_tag, symObjAddr: 0xAF8, symBinAddr: 0x100003F98, symSize: 0x100 }
  - { offsetInCU: 0xAF0B, offset: 0xAF0B, size: 0x8, addend: 0x0, symName: __ZZNSt7__cxx1112basic_stringIcSt11char_traitsIcESaIcEE12_M_constructIPKcEEvT_S8_St20forward_iterator_tagEN6_GuardC1EPS4_, symObjAddr: 0xAA0, symBinAddr: 0x100003F40, symSize: 0x24 }
  - { offsetInCU: 0xAF39, offset: 0xAF39, size: 0x8, addend: 0x0, symName: __ZZNSt7__cxx1112basic_stringIcSt11char_traitsIcESaIcEE12_M_constructIPKcEEvT_S8_St20forward_iterator_tagEN6_GuardD1Ev, symObjAddr: 0xAC4, symBinAddr: 0x100003F64, symSize: 0x34 }
  - { offsetInCU: 0xAFD5, offset: 0xAFD5, size: 0x8, addend: 0x0, symName: __ZNSt15__new_allocatorIcED2Ev, symObjAddr: 0xA8C, symBinAddr: 0x100003F2C, symSize: 0x14 }
  - { offsetInCU: 0xB018, offset: 0xB018, size: 0x8, addend: 0x0, symName: __ZN9__gnu_cxx11char_traitsIcE2eqERKcS3_, symObjAddr: 0xA5C, symBinAddr: 0x100003EFC, symSize: 0x30 }
  - { offsetInCU: 0xB052, offset: 0xB052, size: 0x8, addend: 0x0, symName: __ZNSt3mapINSt7__cxx1112basic_stringIcSt11char_traitsIcESaIcEEEPFiiiESt4lessIS5_ESaISt4pairIKS5_S7_EEEixERSB_, symObjAddr: 0x970, symBinAddr: 0x100003E10, symSize: 0xEC }
  - { offsetInCU: 0xB099, offset: 0xB099, size: 0x8, addend: 0x0, symName: __ZStneRKSt17_Rb_tree_iteratorISt4pairIKNSt7__cxx1112basic_stringIcSt11char_traitsIcESaIcEEEPFiiiEEESD_, symObjAddr: 0x940, symBinAddr: 0x100003DE0, symSize: 0x30 }
  - { offsetInCU: 0xB0D5, offset: 0xB0D5, size: 0x8, addend: 0x0, symName: __ZNSt3mapINSt7__cxx1112basic_stringIcSt11char_traitsIcESaIcEEEPFiiiESt4lessIS5_ESaISt4pairIKS5_S7_EEE3endEv, symObjAddr: 0x924, symBinAddr: 0x100003DC4, symSize: 0x1C }
  - { offsetInCU: 0xB0FF, offset: 0xB0FF, size: 0x8, addend: 0x0, symName: __ZNSt3mapINSt7__cxx1112basic_stringIcSt11char_traitsIcESaIcEEEPFiiiESt4lessIS5_ESaISt4pairIKS5_S7_EEE4findERSB_, symObjAddr: 0x900, symBinAddr: 0x100003DA0, symSize: 0x24 }
  - { offsetInCU: 0xB1D8, offset: 0xB1D8, size: 0x8, addend: 0x0, symName: __ZNSt8_Rb_treeINSt7__cxx1112basic_stringIcSt11char_traitsIcESaIcEEESt4pairIKS5_PFiiiEESt10_Select1stISA_ESt4lessIS5_ESaISA_EED1Ev, symObjAddr: 0x8CC, symBinAddr: 0x100003D6C, symSize: 0x34 }
  - { offsetInCU: 0xB23A, offset: 0xB23A, size: 0x8, addend: 0x0, symName: __ZNSt8_Rb_treeINSt7__cxx1112basic_stringIcSt11char_traitsIcESaIcEEESt4pairIKS5_PFiiiEESt10_Select1stISA_ESt4lessIS5_ESaISA_EE13_Rb_tree_implISE_Lb1EED1Ev, symObjAddr: 0x8A0, symBinAddr: 0x100003D40, symSize: 0x2C }
  - { offsetInCU: 0xB2AF, offset: 0xB2AF, size: 0x8, addend: 0x0, symName: __ZNSt3mapINSt7__cxx1112basic_stringIcSt11char_traitsIcESaIcEEEPFiiiESt4lessIS5_ESaISt4pairIKS5_S7_EEEC1ESt16initializer_listISC_ERKS9_RKSD_, symObjAddr: 0x7E0, symBinAddr: 0x100003C80, symSize: 0xC0 }
  - { offsetInCU: 0xB3AC, offset: 0xB3AC, size: 0x8, addend: 0x0, symName: __ZNSt7__cxx1112basic_stringIcSt11char_traitsIcESaIcEEC1IS3_EEPKcRKS3_, symObjAddr: 0x744, symBinAddr: 0x100003BE4, symSize: 0x9C }
  - { offsetInCU: 0xB3D3, offset: 0xB3D3, size: 0x8, addend: 0x0, symName: __ZSt7forwardIRFiiiEEOT_RNSt16remove_referenceIS2_E4typeE, symObjAddr: 0x730, symBinAddr: 0x100003BD0, symSize: 0x14 }
  - { offsetInCU: 0xB40F, offset: 0xB40F, size: 0x8, addend: 0x0, symName: __ZSt7forwardIRA2_KcEOT_RNSt16remove_referenceIS3_E4typeE, symObjAddr: 0x71C, symBinAddr: 0x100003BBC, symSize: 0x14 }
  - { offsetInCU: 0xB4DD, offset: 0xB4DD, size: 0x8, addend: 0x0, symName: __ZNSt7__cxx1112basic_stringIcSt11char_traitsIcESaIcEE12_Alloc_hiderD1Ev, symObjAddr: 0x6F0, symBinAddr: 0x100003B90, symSize: 0x2C }
  - { offsetInCU: 0xB4DB, offset: 0xB4DB, size: 0x8, addend: 0x0, symName: __ZN9__gnu_cxx11char_traitsIcE6lengthEPKc, symObjAddr: 0x698, symBinAddr: 0x100003B38, symSize: 0x58 }
  - { offsetInCU: 0xB51B, offset: 0xB51B, size: 0x8, addend: 0x0, symName: _main, symObjAddr: 0x388, symBinAddr: 0x100003828, symSize: 0x310 }
  - { offsetInCU: 0xB683, offset: 0xB683, size: 0x8, addend: 0x0, symName: __ZNSt3mapINSt7__cxx1112basic_stringIcSt11char_traitsIcESaIcEEEPFiiiESt4lessIS5_ESaISt4pairIKS5_S7_EEED1Ev, symObjAddr: 0x368, symBinAddr: 0x100003808, symSize: 0x20 }
  - { offsetInCU: 0xB6E3, offset: 0xB6E3, size: 0x8, addend: 0x0, symName: __ZNSt4pairIKNSt7__cxx1112basic_stringIcSt11char_traitsIcESaIcEEEPFiiiEEC1IRA2_KcRS7_Lb1EEEOT_OT0_, symObjAddr: 0x2D8, symBinAddr: 0x100003778, symSize: 0x90 }
  - { offsetInCU: 0xB7BE, offset: 0xB7BE, size: 0x8, addend: 0x0, symName: __ZNSt4pairIKNSt7__cxx1112basic_stringIcSt11char_traitsIcESaIcEEEPFiiiEED1Ev, symObjAddr: 0x2B8, symBinAddr: 0x100003758, symSize: 0x20 }
  - { offsetInCU: 0xB7A2, offset: 0xB7A2, size: 0x8, addend: 0x0, symName: __Z1Dii, symObjAddr: 0x22C, symBinAddr: 0x1000036CC, symSize: 0x8C }
  - { offsetInCU: 0xB7E4, offset: 0xB7E4, size: 0x8, addend: 0x0, symName: __Z1Aii, symObjAddr: 0x180, symBinAddr: 0x100003620, symSize: 0xAC }
  - { offsetInCU: 0xB826, offset: 0xB826, size: 0x8, addend: 0x0, symName: __Z1Jii, symObjAddr: 0x124, symBinAddr: 0x1000035C4, symSize: 0x5C }
  - { offsetInCU: 0xB868, offset: 0xB868, size: 0x8, addend: 0x0, symName: __Z1Gii, symObjAddr: 0xD0, symBinAddr: 0x100003570, symSize: 0x54 }
  - { offsetInCU: 0xB8A2, offset: 0xB8A2, size: 0x8, addend: 0x0, symName: __ZNSt15_Rb_tree_header8_M_resetEv, symObjAddr: 0x94, symBinAddr: 0x100003534, symSize: 0x3C }
  - { offsetInCU: 0xB8FB, offset: 0xB8FB, size: 0x8, addend: 0x0, symName: __ZNSt15_Rb_tree_headerC2Ev, symObjAddr: 0x6C, symBinAddr: 0x10000350C, symSize: 0x28 }
  - { offsetInCU: 0xB904, offset: 0xB904, size: 0x8, addend: 0x0, symName: __ZNSt11char_traitsIcE6lengthEPKc, symObjAddr: 0x30, symBinAddr: 0x1000034D0, symSize: 0x3C }
  - { offsetInCU: 0xB953, offset: 0xB953, size: 0x8, addend: 0x0, symName: __ZdlPvS_, symObjAddr: 0x18, symBinAddr: 0x1000034B8, symSize: 0x18 }
  - { offsetInCU: 0xB988, offset: 0xB988, size: 0x8, addend: 0x0, symName: __ZnwmPv, symObjAddr: 0x0, symBinAddr: 0x1000034A0, symSize: 0x18 }
...
