---
triple:          'arm64-apple-darwin'
binary-path:     '/Users/pai/code/CU Grader/DataAlgo/output/ Vote'
relocations:
  - { offsetInCU: 0x1F180, offset: 0x1F180, size: 0x8, addend: 0x0, symName: __ZStL8__ioinit, symObjAddr: 0xA0208, symBinAddr: 0x10000C000, symSize: 0x0 }
  - { offsetInCU: 0x1FC8F, offset: 0x1FC8F, size: 0x8, addend: 0x0, symName: __ZNSt10_Head_baseILm0ERKNSt7__cxx1112basic_stringIcSt11char_traitsIcESaIcEEELb0EE7_M_headERS8_, symObjAddr: 0x31E8, symBinAddr: 0x100004908, symSize: 0x18 }
  - { offsetInCU: 0x1FCB8, offset: 0x1FCB8, size: 0x8, addend: 0x0, symName: __ZNSt11_Tuple_implILm0EJRKNSt7__cxx1112basic_stringIcSt11char_traitsIcESaIcEEEEE7_M_headERS8_, symObjAddr: 0x31CC, symBinAddr: 0x1000048EC, symSize: 0x1C }
  - { offsetInCU: 0x1FCE2, offset: 0x1FCE2, size: 0x8, addend: 0x0, symName: __ZSt12__get_helperILm0ERKNSt7__cxx1112basic_stringIcSt11char_traitsIcESaIcEEEJEERT0_RSt11_Tuple_implIXT_EJS8_DpT1_EE, symObjAddr: 0x31B0, symBinAddr: 0x1000048D0, symSize: 0x1C }
  - { offsetInCU: 0x1FD2D, offset: 0x1FD2D, size: 0x8, addend: 0x0, symName: __ZNK9__gnu_cxx16__aligned_bufferISt4pairIKNSt7__cxx1112basic_stringIcSt11char_traitsIcESaIcEEEiEE7_M_addrEv, symObjAddr: 0x319C, symBinAddr: 0x1000048BC, symSize: 0x14 }
  - { offsetInCU: 0x1FD59, offset: 0x1FD59, size: 0x8, addend: 0x0, symName: __ZSt7forwardIRKNSt7__cxx1112basic_stringIcSt11char_traitsIcESaIcEEEEOT_RNSt16remove_referenceIS8_E4typeE, symObjAddr: 0x3188, symBinAddr: 0x1000048A8, symSize: 0x14 }
  - { offsetInCU: 0x1FD8B, offset: 0x1FD8B, size: 0x8, addend: 0x0, symName: __ZSt3getILm0EJRKNSt7__cxx1112basic_stringIcSt11char_traitsIcESaIcEEEEERNSt13tuple_elementIXT_ESt5tupleIJDpT0_EEE4typeERSC_, symObjAddr: 0x316C, symBinAddr: 0x10000488C, symSize: 0x1C }
  - { offsetInCU: 0x1FDCE, offset: 0x1FDCE, size: 0x8, addend: 0x0, symName: __ZNK9__gnu_cxx16__aligned_bufferISt4pairIKNSt7__cxx1112basic_stringIcSt11char_traitsIcESaIcEEEiEE6_M_ptrEv, symObjAddr: 0x3150, symBinAddr: 0x100004870, symSize: 0x1C }
  - { offsetInCU: 0x1FE0E, offset: 0x1FE0E, size: 0x8, addend: 0x0, symName: __ZNSt15__new_allocatorIPNSt8__detail15_Hash_node_baseEE8allocateEmPKv, symObjAddr: 0x30D4, symBinAddr: 0x1000047F4, symSize: 0x7C }
  - { offsetInCU: 0x1FF9E, offset: 0x1FF9E, size: 0x8, addend: 0x0, symName: __ZNSt4pairIKNSt7__cxx1112basic_stringIcSt11char_traitsIcESaIcEEEiEC1IJRS6_EJLm0EEJEJEEERSt5tupleIJDpT_EERSA_IJDpT1_EESt12_Index_tupleIJXspT0_EEESJ_IJXspT2_EEE, symObjAddr: 0x3080, symBinAddr: 0x1000047A0, symSize: 0x54 }
  - { offsetInCU: 0x1FF72, offset: 0x1FF72, size: 0x8, addend: 0x0, symName: __ZSteqIcSt11char_traitsIcESaIcEEbRKNSt7__cxx1112basic_stringIT_T0_T1_EESA_, symObjAddr: 0x3000, symBinAddr: 0x100004720, symSize: 0x80 }
  - { offsetInCU: 0x1FFCF, offset: 0x1FFCF, size: 0x8, addend: 0x0, symName: __ZSt7forwardIRKSt4pairIKNSt7__cxx1112basic_stringIcSt11char_traitsIcESaIcEEEiEEOT_RNSt16remove_referenceISB_E4typeE, symObjAddr: 0x2FEC, symBinAddr: 0x10000470C, symSize: 0x14 }
  - { offsetInCU: 0x2001B, offset: 0x2001B, size: 0x8, addend: 0x0, symName: __ZNKSt8__detail21_Hashtable_ebo_helperILi0ESt8equal_toINSt7__cxx1112basic_stringIcSt11char_traitsIcESaIcEEEELb1EE7_M_cgetEv, symObjAddr: 0x2FD8, symBinAddr: 0x1000046F8, symSize: 0x14 }
  - { offsetInCU: 0x20041, offset: 0x20041, size: 0x8, addend: 0x0, symName: __ZSt11__addressofINSt8__detail10_Hash_nodeISt4pairIKNSt7__cxx1112basic_stringIcSt11char_traitsIcESaIcEEEiELb1EEEEPT_RSC_, symObjAddr: 0x2FC4, symBinAddr: 0x1000046E4, symSize: 0x14 }
  - { offsetInCU: 0x20089, offset: 0x20089, size: 0x8, addend: 0x0, symName: __ZSt12__to_addressIPNSt8__detail15_Hash_node_baseEEPT_S4_, symObjAddr: 0x2FB0, symBinAddr: 0x1000046D0, symSize: 0x14 }
  - { offsetInCU: 0x201AF, offset: 0x201AF, size: 0x8, addend: 0x0, symName: __ZNSt4pairIKNSt7__cxx1112basic_stringIcSt11char_traitsIcESaIcEEEiEC1IJRS6_EJEEESt21piecewise_construct_tSt5tupleIJDpT_EESB_IJDpT0_EE, symObjAddr: 0x2F74, symBinAddr: 0x100004694, symSize: 0x3C }
  - { offsetInCU: 0x201FC, offset: 0x201FC, size: 0x8, addend: 0x0, symName: __ZNSt11_Tuple_implILm0EJRKNSt7__cxx1112basic_stringIcSt11char_traitsIcESaIcEEEEEC2EOS8_, symObjAddr: 0x2F4C, symBinAddr: 0x10000466C, symSize: 0x28 }
  - { offsetInCU: 0x201D7, offset: 0x201D7, size: 0x8, addend: 0x0, symName: __ZNKSt8equal_toINSt7__cxx1112basic_stringIcSt11char_traitsIcESaIcEEEEclERKS5_S8_, symObjAddr: 0x2F24, symBinAddr: 0x100004644, symSize: 0x28 }
  - { offsetInCU: 0x2022E, offset: 0x2022E, size: 0x8, addend: 0x0, symName: __ZNKSt8__detail10_Select1stclIRKSt4pairIKNSt7__cxx1112basic_stringIcSt11char_traitsIcESaIcEEEiEEEONS0_10__1st_typeIT_E4typeEOSE_, symObjAddr: 0x2F04, symBinAddr: 0x100004624, symSize: 0x20 }
  - { offsetInCU: 0x20287, offset: 0x20287, size: 0x8, addend: 0x0, symName: __ZNKSt8__detail15_Hashtable_baseINSt7__cxx1112basic_stringIcSt11char_traitsIcESaIcEEESt4pairIKS6_iENS_10_Select1stESt8equal_toIS6_ESt4hashIS6_ENS_18_Mod_range_hashingENS_20_Default_ranged_hashENS_17_Hashtable_traitsILb1ELb0ELb1EEEE5_M_eqEv, symObjAddr: 0x2EE8, symBinAddr: 0x100004608, symSize: 0x1C }
  - { offsetInCU: 0x202AD, offset: 0x202AD, size: 0x8, addend: 0x0, symName: __ZSt11__addressofIPNSt8__detail15_Hash_node_baseEEPT_RS3_, symObjAddr: 0x2ED4, symBinAddr: 0x1000045F4, symSize: 0x14 }
  - { offsetInCU: 0x202DF, offset: 0x202DF, size: 0x8, addend: 0x0, symName: __ZSt9addressofINSt8__detail10_Hash_nodeISt4pairIKNSt7__cxx1112basic_stringIcSt11char_traitsIcESaIcEEEiELb1EEEEPT_RSC_, symObjAddr: 0x2EB8, symBinAddr: 0x1000045D8, symSize: 0x1C }
  - { offsetInCU: 0x20311, offset: 0x20311, size: 0x8, addend: 0x0, symName: __ZSt14__relocate_a_1IiiENSt9enable_ifIXsrSt24__is_bitwise_relocatableIT_vE5valueEPS2_E4typeES4_S4_S4_RSaIT0_E, symObjAddr: 0x2E54, symBinAddr: 0x100004574, symSize: 0x64 }
  - { offsetInCU: 0x20391, offset: 0x20391, size: 0x8, addend: 0x0, symName: __ZSt12__niter_baseIPiET_S1_, symObjAddr: 0x2E40, symBinAddr: 0x100004560, symSize: 0x14 }
  - { offsetInCU: 0x203C8, offset: 0x203C8, size: 0x8, addend: 0x0, symName: __ZNSt15__new_allocatorIiE8allocateEmPKv, symObjAddr: 0x2DC4, symBinAddr: 0x1000044E4, symSize: 0x7C }
  - { offsetInCU: 0x20454, offset: 0x20454, size: 0x8, addend: 0x0, symName: __ZNKSt12_Vector_baseIiSaIiEE19_M_get_Tp_allocatorEv, symObjAddr: 0x2DB0, symBinAddr: 0x1000044D0, symSize: 0x14 }
  - { offsetInCU: 0x2047A, offset: 0x2047A, size: 0x8, addend: 0x0, symName: __ZNSt6vectorIiSaIiEE11_S_max_sizeERKS0_, symObjAddr: 0x2D5C, symBinAddr: 0x10000447C, symSize: 0x54 }
  - { offsetInCU: 0x20535, offset: 0x20535, size: 0x8, addend: 0x0, symName: __ZNSt8__detail16_Hashtable_allocISaINS_10_Hash_nodeISt4pairIKNSt7__cxx1112basic_stringIcSt11char_traitsIcESaIcEEEiELb1EEEEE19_M_allocate_bucketsEm, symObjAddr: 0x2CAC, symBinAddr: 0x1000043CC, symSize: 0xB0 }
  - { offsetInCU: 0x2065C, offset: 0x2065C, size: 0x8, addend: 0x0, symName: __ZNSt15__new_allocatorINSt8__detail10_Hash_nodeISt4pairIKNSt7__cxx1112basic_stringIcSt11char_traitsIcESaIcEEEiELb1EEEE10deallocateEPSB_m, symObjAddr: 0x2C70, symBinAddr: 0x100004390, symSize: 0x3C }
  - { offsetInCU: 0x20772, offset: 0x20772, size: 0x8, addend: 0x0, symName: __ZNSt5tupleIJRKNSt7__cxx1112basic_stringIcSt11char_traitsIcESaIcEEEEEC1EOS8_, symObjAddr: 0x2C48, symBinAddr: 0x100004368, symSize: 0x28 }
  - { offsetInCU: 0x20758, offset: 0x20758, size: 0x8, addend: 0x0, symName: __ZNSt15__new_allocatorINSt8__detail10_Hash_nodeISt4pairIKNSt7__cxx1112basic_stringIcSt11char_traitsIcESaIcEEEiELb1EEEE8allocateEmPKv, symObjAddr: 0x2BB0, symBinAddr: 0x1000042D0, symSize: 0x98 }
  - { offsetInCU: 0x207E4, offset: 0x207E4, size: 0x8, addend: 0x0, symName: __ZNKSt8__detail15_Hashtable_baseINSt7__cxx1112basic_stringIcSt11char_traitsIcESaIcEEESt4pairIKS6_iENS_10_Select1stESt8equal_toIS6_ESt4hashIS6_ENS_18_Mod_range_hashingENS_20_Default_ranged_hashENS_17_Hashtable_traitsILb1ELb0ELb1EEEE13_M_key_equalsERS8_RKNS_16_Hash_node_valueIS9_Lb1EEE, symObjAddr: 0x2B44, symBinAddr: 0x100004264, symSize: 0x6C }
  - { offsetInCU: 0x20874, offset: 0x20874, size: 0x8, addend: 0x0, symName: __ZNSt8__detail15_Hashtable_baseINSt7__cxx1112basic_stringIcSt11char_traitsIcESaIcEEESt4pairIKS6_iENS_10_Select1stESt8equal_toIS6_ESt4hashIS6_ENS_18_Mod_range_hashingENS_20_Default_ranged_hashENS_17_Hashtable_traitsILb1ELb0ELb1EEEE9_S_equalsEmRKNS_21_Hash_node_code_cacheILb1EEE, symObjAddr: 0x2B18, symBinAddr: 0x100004238, symSize: 0x2C }
  - { offsetInCU: 0x208B3, offset: 0x208B3, size: 0x8, addend: 0x0, symName: __ZNSt15__new_allocatorIPNSt8__detail15_Hash_node_baseEE10deallocateEPS2_m, symObjAddr: 0x2AE8, symBinAddr: 0x100004208, symSize: 0x30 }
  - { offsetInCU: 0x20959, offset: 0x20959, size: 0x8, addend: 0x0, symName: __ZNSt15__new_allocatorIPNSt8__detail15_Hash_node_baseEED2Ev, symObjAddr: 0x2AD4, symBinAddr: 0x1000041F4, symSize: 0x14 }
  - { offsetInCU: 0x20959, offset: 0x20959, size: 0x8, addend: 0x0, symName: __ZSt9addressofIPNSt8__detail15_Hash_node_baseEEPT_RS3_, symObjAddr: 0x2AB8, symBinAddr: 0x1000041D8, symSize: 0x1C }
  - { offsetInCU: 0x2098B, offset: 0x2098B, size: 0x8, addend: 0x0, symName: __ZNSt19__ptr_traits_ptr_toIPNSt8__detail10_Hash_nodeISt4pairIKNSt7__cxx1112basic_stringIcSt11char_traitsIcESaIcEEEiELb1EEESB_Lb0EE10pointer_toERSB_, symObjAddr: 0x2A9C, symBinAddr: 0x1000041BC, symSize: 0x1C }
  - { offsetInCU: 0x209E4, offset: 0x209E4, size: 0x8, addend: 0x0, symName: __ZNSt8__detail21_Hashtable_ebo_helperILi0ESaINS_10_Hash_nodeISt4pairIKNSt7__cxx1112basic_stringIcSt11char_traitsIcESaIcEEEiELb1EEEELb1EE6_M_getEv, symObjAddr: 0x2A88, symBinAddr: 0x1000041A8, symSize: 0x14 }
  - { offsetInCU: 0x20A80, offset: 0x20A80, size: 0x8, addend: 0x0, symName: __ZN9__gnu_cxx5__ops14_Iter_comp_valISt4lessIiEEC1EONS0_15_Iter_comp_iterIS3_EE, symObjAddr: 0x2A64, symBinAddr: 0x100004184, symSize: 0x24 }
  - { offsetInCU: 0x20A6E, offset: 0x20A6E, size: 0x8, addend: 0x0, symName: __ZSt4moveIRN9__gnu_cxx5__ops15_Iter_comp_iterISt4lessIiEEEEONSt16remove_referenceIT_E4typeEOS8_, symObjAddr: 0x2A50, symBinAddr: 0x100004170, symSize: 0x14 }
  - { offsetInCU: 0x20AA4, offset: 0x20AA4, size: 0x8, addend: 0x0, symName: __ZN9__gnu_cxx5__ops15_Iter_comp_iterISt4lessIiEEclINS_17__normal_iteratorIPiSt6vectorIiSaIiEEEESB_EEbT_T0_, symObjAddr: 0x2A04, symBinAddr: 0x100004124, symSize: 0x4C }
  - { offsetInCU: 0x20B00, offset: 0x20B00, size: 0x8, addend: 0x0, symName: __ZNKSt4lessIiEclERKiS2_, symObjAddr: 0x29D0, symBinAddr: 0x1000040F0, symSize: 0x34 }
  - { offsetInCU: 0x20B48, offset: 0x20B48, size: 0x8, addend: 0x0, symName: __ZSt12__relocate_aIPiS0_SaIiEET0_T_S3_S2_RT1_, symObjAddr: 0x2974, symBinAddr: 0x100004094, symSize: 0x5C }
  - { offsetInCU: 0x20BE8, offset: 0x20BE8, size: 0x8, addend: 0x0, symName: __ZNKSt6vectorIiSaIiEE4sizeEv, symObjAddr: 0x294C, symBinAddr: 0x10000406C, symSize: 0x28 }
  - { offsetInCU: 0x20C12, offset: 0x20C12, size: 0x8, addend: 0x0, symName: __ZNKSt6vectorIiSaIiEE8max_sizeEv, symObjAddr: 0x292C, symBinAddr: 0x10000404C, symSize: 0x20 }
  - { offsetInCU: 0x20C41, offset: 0x20C41, size: 0x8, addend: 0x0, symName: __ZN9__gnu_cxx16__aligned_bufferISt4pairIKNSt7__cxx1112basic_stringIcSt11char_traitsIcESaIcEEEiEE7_M_addrEv, symObjAddr: 0x2918, symBinAddr: 0x100004038, symSize: 0x14 }
  - { offsetInCU: 0x20C6A, offset: 0x20C6A, size: 0x8, addend: 0x0, symName: __ZNSt15__new_allocatorIiE10deallocateEPim, symObjAddr: 0x28E8, symBinAddr: 0x100004008, symSize: 0x30 }
  - { offsetInCU: 0x20CB4, offset: 0x20CB4, size: 0x8, addend: 0x0, symName: __ZNKSt8__detail15_Hash_code_baseINSt7__cxx1112basic_stringIcSt11char_traitsIcESaIcEEESt4pairIKS6_iENS_10_Select1stESt4hashIS6_ENS_18_Mod_range_hashingENS_20_Default_ranged_hashELb1EE15_M_bucket_indexERKNS_16_Hash_node_valueIS9_Lb1EEEm, symObjAddr: 0x28B8, symBinAddr: 0x100003FD8, symSize: 0x30 }
  - { offsetInCU: 0x20D00, offset: 0x20D00, size: 0x8, addend: 0x0, symName: __ZNSt10_HashtableINSt7__cxx1112basic_stringIcSt11char_traitsIcESaIcEEESt4pairIKS5_iESaIS8_ENSt8__detail10_Select1stESt8equal_toIS5_ESt4hashIS5_ENSA_18_Mod_range_hashingENSA_20_Default_ranged_hashENSA_20_Prime_rehash_policyENSA_17_Hashtable_traitsILb1ELb0ELb1EEEE19_M_allocate_bucketsEm, symObjAddr: 0x2860, symBinAddr: 0x100003F80, symSize: 0x58 }
  - { offsetInCU: 0x20D37, offset: 0x20D37, size: 0x8, addend: 0x0, symName: __ZSt11__addressofINSt8__detail20_Prime_rehash_policyEEPT_RS2_, symObjAddr: 0x284C, symBinAddr: 0x100003F6C, symSize: 0x14 }
  - { offsetInCU: 0x20DF3, offset: 0x20DF3, size: 0x8, addend: 0x0, symName: __ZSt12__to_addressINSt8__detail10_Hash_nodeISt4pairIKNSt7__cxx1112basic_stringIcSt11char_traitsIcESaIcEEEiELb1EEEEPT_SD_, symObjAddr: 0x2838, symBinAddr: 0x100003F58, symSize: 0x14 }
  - { offsetInCU: 0x20EC8, offset: 0x20EC8, size: 0x8, addend: 0x0, symName: __ZNSt10_Head_baseILm0ERKNSt7__cxx1112basic_stringIcSt11char_traitsIcESaIcEEELb0EEC2ES7_, symObjAddr: 0x2814, symBinAddr: 0x100003F34, symSize: 0x24 }
  - { offsetInCU: 0x20EA3, offset: 0x20EA3, size: 0x8, addend: 0x0, symName: __ZNKSt10_HashtableINSt7__cxx1112basic_stringIcSt11char_traitsIcESaIcEEESt4pairIKS5_iESaIS8_ENSt8__detail10_Select1stESt8equal_toIS5_ESt4hashIS5_ENSA_18_Mod_range_hashingENSA_20_Default_ranged_hashENSA_20_Prime_rehash_policyENSA_17_Hashtable_traitsILb1ELb0ELb1EEEE15_M_bucket_indexERKNSA_16_Hash_node_valueIS8_Lb1EEE, symObjAddr: 0x27E4, symBinAddr: 0x100003F04, symSize: 0x30 }
  - { offsetInCU: 0x20EDE, offset: 0x20EDE, size: 0x8, addend: 0x0, symName: __ZNKSt8__detail15_Hashtable_baseINSt7__cxx1112basic_stringIcSt11char_traitsIcESaIcEEESt4pairIKS6_iENS_10_Select1stESt8equal_toIS6_ESt4hashIS6_ENS_18_Mod_range_hashingENS_20_Default_ranged_hashENS_17_Hashtable_traitsILb1ELb0ELb1EEEE9_M_equalsERS8_mRKNS_16_Hash_node_valueIS9_Lb1EEE, symObjAddr: 0x277C, symBinAddr: 0x100003E9C, symSize: 0x68 }
  - { offsetInCU: 0x20F3B, offset: 0x20F3B, size: 0x8, addend: 0x0, symName: __ZNKSt8__detail21_Hashtable_ebo_helperILi1ESt4hashINSt7__cxx1112basic_stringIcSt11char_traitsIcESaIcEEEELb1EE7_M_cgetEv, symObjAddr: 0x2768, symBinAddr: 0x100003E88, symSize: 0x14 }
  - { offsetInCU: 0x20FD7, offset: 0x20FD7, size: 0x8, addend: 0x0, symName: __ZNSt19__ptr_traits_ptr_toIPPNSt8__detail15_Hash_node_baseES2_Lb0EE10pointer_toERS2_, symObjAddr: 0x274C, symBinAddr: 0x100003E6C, symSize: 0x1C }
  - { offsetInCU: 0x21004, offset: 0x21004, size: 0x8, addend: 0x0, symName: __ZNSt8__detail16_Hashtable_allocISaINS_10_Hash_nodeISt4pairIKNSt7__cxx1112basic_stringIcSt11char_traitsIcESaIcEEEiELb1EEEEE22_M_deallocate_node_ptrEPSB_, symObjAddr: 0x26F4, symBinAddr: 0x100003E14, symSize: 0x58 }
  - { offsetInCU: 0x210B3, offset: 0x210B3, size: 0x8, addend: 0x0, symName: __ZNSt8__detail16_Hashtable_allocISaINS_10_Hash_nodeISt4pairIKNSt7__cxx1112basic_stringIcSt11char_traitsIcESaIcEEEiELb1EEEEE17_M_node_allocatorEv, symObjAddr: 0x26D8, symBinAddr: 0x100003DF8, symSize: 0x1C }
  - { offsetInCU: 0x21105, offset: 0x21105, size: 0x8, addend: 0x0, symName: __ZSt13__adjust_heapIN9__gnu_cxx17__normal_iteratorIPiSt6vectorIiSaIiEEEEliNS0_5__ops15_Iter_comp_iterISt4lessIiEEEEvT_T0_SD_T1_T2_, symObjAddr: 0x2504, symBinAddr: 0x100003C24, symSize: 0x1D4 }
  - { offsetInCU: 0x211CB, offset: 0x211CB, size: 0x8, addend: 0x0, symName: __ZNK9__gnu_cxx17__normal_iteratorIPKiSt6vectorIiSaIiEEE4baseEv, symObjAddr: 0x24F0, symBinAddr: 0x100003C10, symSize: 0x14 }
  - { offsetInCU: 0x21258, offset: 0x21258, size: 0x8, addend: 0x0, symName: __ZN9__gnu_cxx17__normal_iteratorIPKiSt6vectorIiSaIiEEEC1ERKS2_, symObjAddr: 0x24C8, symBinAddr: 0x100003BE8, symSize: 0x28 }
  - { offsetInCU: 0x2124C, offset: 0x2124C, size: 0x8, addend: 0x0, symName: __ZN9__gnu_cxx5__ops14_Iter_comp_valISt4lessIiEEclINS_17__normal_iteratorIPiSt6vectorIiSaIiEEEEiEEbT_RT0_, symObjAddr: 0x2488, symBinAddr: 0x100003BA8, symSize: 0x40 }
  - { offsetInCU: 0x212A8, offset: 0x212A8, size: 0x8, addend: 0x0, symName: __ZNK9__gnu_cxx17__normal_iteratorIPiSt6vectorIiSaIiEEEplEl, symObjAddr: 0x2448, symBinAddr: 0x100003B68, symSize: 0x40 }
  - { offsetInCU: 0x212E3, offset: 0x212E3, size: 0x8, addend: 0x0, symName: __ZNK9__gnu_cxx17__normal_iteratorIPiSt6vectorIiSaIiEEE4baseEv, symObjAddr: 0x2434, symBinAddr: 0x100003B54, symSize: 0x14 }
  - { offsetInCU: 0x21309, offset: 0x21309, size: 0x8, addend: 0x0, symName: __ZNSt6vectorIiSaIiEE11_S_relocateEPiS2_S2_RS0_, symObjAddr: 0x2400, symBinAddr: 0x100003B20, symSize: 0x34 }
  - { offsetInCU: 0x21366, offset: 0x21366, size: 0x8, addend: 0x0, symName: __ZSt12__to_addressIiEPT_S1_, symObjAddr: 0x23EC, symBinAddr: 0x100003B0C, symSize: 0x14 }
  - { offsetInCU: 0x2139C, offset: 0x2139C, size: 0x8, addend: 0x0, symName: __ZNSt12_Vector_baseIiSaIiEE11_M_allocateEm, symObjAddr: 0x239C, symBinAddr: 0x100003ABC, symSize: 0x50 }
  - { offsetInCU: 0x21404, offset: 0x21404, size: 0x8, addend: 0x0, symName: __ZNKSt6vectorIiSaIiEE12_M_check_lenEmPKc, symObjAddr: 0x22CC, symBinAddr: 0x1000039EC, symSize: 0xD0 }
  - { offsetInCU: 0x214A6, offset: 0x214A6, size: 0x8, addend: 0x0, symName: __ZSt7forwardIRKiEOT_RNSt16remove_referenceIS2_E4typeE, symObjAddr: 0x22B8, symBinAddr: 0x1000039D8, symSize: 0x14 }
  - { offsetInCU: 0x214DC, offset: 0x214DC, size: 0x8, addend: 0x0, symName: __ZN9__gnu_cxx16__aligned_bufferISt4pairIKNSt7__cxx1112basic_stringIcSt11char_traitsIcESaIcEEEiEE6_M_ptrEv, symObjAddr: 0x229C, symBinAddr: 0x1000039BC, symSize: 0x1C }
  - { offsetInCU: 0x215B0, offset: 0x215B0, size: 0x8, addend: 0x0, symName: __ZNSt8__detail19_Node_iterator_baseISt4pairIKNSt7__cxx1112basic_stringIcSt11char_traitsIcESaIcEEEiELb1EEC2EPNS_10_Hash_nodeIS9_Lb1EEE, symObjAddr: 0x2278, symBinAddr: 0x100003998, symSize: 0x24 }
  - { offsetInCU: 0x21559, offset: 0x21559, size: 0x8, addend: 0x0, symName: __ZNSt12_Destroy_auxILb1EE9__destroyIPiEEvT_S3_, symObjAddr: 0x2260, symBinAddr: 0x100003980, symSize: 0x18 }
  - { offsetInCU: 0x215D9, offset: 0x215D9, size: 0x8, addend: 0x0, symName: __ZNSt10_HashtableINSt7__cxx1112basic_stringIcSt11char_traitsIcESaIcEEESt4pairIKS5_iESaIS8_ENSt8__detail10_Select1stESt8equal_toIS5_ESt4hashIS5_ENSA_18_Mod_range_hashingENSA_20_Default_ranged_hashENSA_20_Prime_rehash_policyENSA_17_Hashtable_traitsILb1ELb0ELb1EEEE22_M_insert_bucket_beginEmPNSA_10_Hash_nodeIS8_Lb1EEE, symObjAddr: 0x2154, symBinAddr: 0x100003874, symSize: 0x10C }
  - { offsetInCU: 0x21625, offset: 0x21625, size: 0x8, addend: 0x0, symName: __ZNKSt8__detail15_Hash_code_baseINSt7__cxx1112basic_stringIcSt11char_traitsIcESaIcEEESt4pairIKS6_iENS_10_Select1stESt4hashIS6_ENS_18_Mod_range_hashingENS_20_Default_ranged_hashELb1EE13_M_store_codeERNS_21_Hash_node_code_cacheILb1EEEm, symObjAddr: 0x212C, symBinAddr: 0x10000384C, symSize: 0x28 }
  - { offsetInCU: 0x21671, offset: 0x21671, size: 0x8, addend: 0x0, symName: __ZNSt10_HashtableINSt7__cxx1112basic_stringIcSt11char_traitsIcESaIcEEESt4pairIKS5_iESaIS8_ENSt8__detail10_Select1stESt8equal_toIS5_ESt4hashIS5_ENSA_18_Mod_range_hashingENSA_20_Default_ranged_hashENSA_20_Prime_rehash_policyENSA_17_Hashtable_traitsILb1ELb0ELb1EEEE9_M_rehashEmSt17integral_constantIbLb1EE, symObjAddr: 0x1FC0, symBinAddr: 0x1000036E0, symSize: 0x16C }
  - { offsetInCU: 0x21780, offset: 0x21780, size: 0x8, addend: 0x0, symName: __ZNSt8__detail17_RehashStateGuardINS_20_Prime_rehash_policyEED1Ev, symObjAddr: 0x1F7C, symBinAddr: 0x10000369C, symSize: 0x44 }
  - { offsetInCU: 0x217D1, offset: 0x217D1, size: 0x8, addend: 0x0, symName: __ZNSt8__detail17_RehashStateGuardINS_20_Prime_rehash_policyEEC1ERS1_, symObjAddr: 0x1F38, symBinAddr: 0x100003658, symSize: 0x44 }
  - { offsetInCU: 0x217BF, offset: 0x217BF, size: 0x8, addend: 0x0, symName: __ZNSt8__detail16_Hashtable_allocISaINS_10_Hash_nodeISt4pairIKNSt7__cxx1112basic_stringIcSt11char_traitsIcESaIcEEEiELb1EEEEE16_M_allocate_nodeIJRKSt21piecewise_construct_tSt5tupleIJRS9_EESI_IJEEEEEPSB_DpOT_, symObjAddr: 0x1D4C, symBinAddr: 0x10000346C, symSize: 0x1EC }
  - { offsetInCU: 0x219EF, offset: 0x219EF, size: 0x8, addend: 0x0, symName: __ZNSt8__detail10_Hash_nodeISt4pairIKNSt7__cxx1112basic_stringIcSt11char_traitsIcESaIcEEEiELb1EEC1Ev, symObjAddr: 0x1D2C, symBinAddr: 0x10000344C, symSize: 0x20 }
  - { offsetInCU: 0x219B8, offset: 0x219B8, size: 0x8, addend: 0x0, symName: __ZSt7forwardISt5tupleIJEEEOT_RNSt16remove_referenceIS2_E4typeE, symObjAddr: 0x1D18, symBinAddr: 0x100003438, symSize: 0x14 }
  - { offsetInCU: 0x219F1, offset: 0x219F1, size: 0x8, addend: 0x0, symName: __ZSt7forwardISt5tupleIJRKNSt7__cxx1112basic_stringIcSt11char_traitsIcESaIcEEEEEEOT_RNSt16remove_referenceISA_E4typeE, symObjAddr: 0x1D04, symBinAddr: 0x100003424, symSize: 0x14 }
  - { offsetInCU: 0x21A2A, offset: 0x21A2A, size: 0x8, addend: 0x0, symName: __ZSt7forwardIRKSt21piecewise_construct_tEOT_RNSt16remove_referenceIS3_E4typeE, symObjAddr: 0x1CF0, symBinAddr: 0x100003410, symSize: 0x14 }
  - { offsetInCU: 0x21ADB, offset: 0x21ADB, size: 0x8, addend: 0x0, symName: __ZNSt11_Tuple_implILm0EJRKNSt7__cxx1112basic_stringIcSt11char_traitsIcESaIcEEEEEC2ES7_, symObjAddr: 0x1CC8, symBinAddr: 0x1000033E8, symSize: 0x28 }
  - { offsetInCU: 0x21AB7, offset: 0x21AB7, size: 0x8, addend: 0x0, symName: __ZNKSt10_HashtableINSt7__cxx1112basic_stringIcSt11char_traitsIcESaIcEEESt4pairIKS5_iESaIS8_ENSt8__detail10_Select1stESt8equal_toIS5_ESt4hashIS5_ENSA_18_Mod_range_hashingENSA_20_Default_ranged_hashENSA_20_Prime_rehash_policyENSA_17_Hashtable_traitsILb1ELb0ELb1EEEE19_M_find_before_nodeEmRS7_m, symObjAddr: 0x1BCC, symBinAddr: 0x1000032EC, symSize: 0xFC }
  - { offsetInCU: 0x21B49, offset: 0x21B49, size: 0x8, addend: 0x0, symName: __ZNKSt8__detail15_Hash_code_baseINSt7__cxx1112basic_stringIcSt11char_traitsIcESaIcEEESt4pairIKS6_iENS_10_Select1stESt4hashIS6_ENS_18_Mod_range_hashingENS_20_Default_ranged_hashELb1EE15_M_bucket_indexEmm, symObjAddr: 0x1BA0, symBinAddr: 0x1000032C0, symSize: 0x2C }
  - { offsetInCU: 0x21B95, offset: 0x21B95, size: 0x8, addend: 0x0, symName: __ZNKSt15__str_hash_baseIcSaIcENSt7__cxx1112basic_stringIcSt11char_traitsIcES0_EEEclERKS5_, symObjAddr: 0x1B58, symBinAddr: 0x100003278, symSize: 0x48 }
  - { offsetInCU: 0x21BD0, offset: 0x21BD0, size: 0x8, addend: 0x0, symName: __ZNKSt8__detail15_Hash_code_baseINSt7__cxx1112basic_stringIcSt11char_traitsIcESaIcEEESt4pairIKS6_iENS_10_Select1stESt4hashIS6_ENS_18_Mod_range_hashingENS_20_Default_ranged_hashELb1EE7_M_hashEv, symObjAddr: 0x1B3C, symBinAddr: 0x10000325C, symSize: 0x1C }
  - { offsetInCU: 0x21BFA, offset: 0x21BFA, size: 0x8, addend: 0x0, symName: __ZNSt8__detail16_Hashtable_allocISaINS_10_Hash_nodeISt4pairIKNSt7__cxx1112basic_stringIcSt11char_traitsIcESaIcEEEiELb1EEEEE21_M_deallocate_bucketsEPPNS_15_Hash_node_baseEm, symObjAddr: 0x1AC4, symBinAddr: 0x1000031E4, symSize: 0x78 }
  - { offsetInCU: 0x21D0A, offset: 0x21D0A, size: 0x8, addend: 0x0, symName: __ZNKSt10_HashtableINSt7__cxx1112basic_stringIcSt11char_traitsIcESaIcEEESt4pairIKS5_iESaIS8_ENSt8__detail10_Select1stESt8equal_toIS5_ESt4hashIS5_ENSA_18_Mod_range_hashingENSA_20_Default_ranged_hashENSA_20_Prime_rehash_policyENSA_17_Hashtable_traitsILb1ELb0ELb1EEEE21_M_uses_single_bucketEPPNSA_15_Hash_node_baseE, symObjAddr: 0x1A88, symBinAddr: 0x1000031A8, symSize: 0x3C }
  - { offsetInCU: 0x21D45, offset: 0x21D45, size: 0x8, addend: 0x0, symName: __ZNSt8__detail16_Hashtable_allocISaINS_10_Hash_nodeISt4pairIKNSt7__cxx1112basic_stringIcSt11char_traitsIcESaIcEEEiELb1EEEEE18_M_deallocate_nodeEPSB_, symObjAddr: 0x1A0C, symBinAddr: 0x10000312C, symSize: 0x7C }
  - { offsetInCU: 0x21E27, offset: 0x21E27, size: 0x8, addend: 0x0, symName: __ZSt10__pop_heapIN9__gnu_cxx17__normal_iteratorIPiSt6vectorIiSaIiEEEENS0_5__ops15_Iter_comp_iterISt4lessIiEEEEvT_SC_SC_RT0_, symObjAddr: 0x1978, symBinAddr: 0x100003098, symSize: 0x94 }
  - { offsetInCU: 0x21EC1, offset: 0x21EC1, size: 0x8, addend: 0x0, symName: __ZN9__gnu_cxx17__normal_iteratorIPiSt6vectorIiSaIiEEEmmEv, symObjAddr: 0x1950, symBinAddr: 0x100003070, symSize: 0x28 }
  - { offsetInCU: 0x21EEB, offset: 0x21EEB, size: 0x8, addend: 0x0, symName: __ZNK9__gnu_cxx17__normal_iteratorIPKiSt6vectorIiSaIiEEEdeEv, symObjAddr: 0x1938, symBinAddr: 0x100003058, symSize: 0x18 }
  - { offsetInCU: 0x21F18, offset: 0x21F18, size: 0x8, addend: 0x0, symName: __ZN9__gnu_cxxeqIPKiSt6vectorIiSaIiEEEEbRKNS_17__normal_iteratorIT_T0_EESB_, symObjAddr: 0x18F4, symBinAddr: 0x100003014, symSize: 0x44 }
  - { offsetInCU: 0x21F69, offset: 0x21F69, size: 0x8, addend: 0x0, symName: __ZNKSt6vectorIiSaIiEE3endEv, symObjAddr: 0x18CC, symBinAddr: 0x100002FEC, symSize: 0x28 }
  - { offsetInCU: 0x21F93, offset: 0x21F93, size: 0x8, addend: 0x0, symName: __ZNKSt6vectorIiSaIiEE5beginEv, symObjAddr: 0x18A8, symBinAddr: 0x100002FC8, symSize: 0x24 }
  - { offsetInCU: 0x21FC0, offset: 0x21FC0, size: 0x8, addend: 0x0, symName: __ZSt11__push_heapIN9__gnu_cxx17__normal_iteratorIPiSt6vectorIiSaIiEEEEliNS0_5__ops14_Iter_comp_valISt4lessIiEEEEvT_T0_SD_T1_RT2_, symObjAddr: 0x1784, symBinAddr: 0x100002EA4, symSize: 0x124 }
  - { offsetInCU: 0x22065, offset: 0x22065, size: 0x8, addend: 0x0, symName: __ZN9__gnu_cxxmiIPiSt6vectorIiSaIiEEEENS_17__normal_iteratorIT_T0_E15difference_typeERKS8_SB_, symObjAddr: 0x1744, symBinAddr: 0x100002E64, symSize: 0x40 }
  - { offsetInCU: 0x220B9, offset: 0x220B9, size: 0x8, addend: 0x0, symName: __ZSt4moveIRiEONSt16remove_referenceIT_E4typeEOS2_, symObjAddr: 0x1730, symBinAddr: 0x100002E50, symSize: 0x14 }
  - { offsetInCU: 0x220EF, offset: 0x220EF, size: 0x8, addend: 0x0, symName: __ZNK9__gnu_cxx17__normal_iteratorIPiSt6vectorIiSaIiEEEdeEv, symObjAddr: 0x1718, symBinAddr: 0x100002E38, symSize: 0x18 }
  - { offsetInCU: 0x22119, offset: 0x22119, size: 0x8, addend: 0x0, symName: __ZNK9__gnu_cxx17__normal_iteratorIPiSt6vectorIiSaIiEEEmiEl, symObjAddr: 0x16D4, symBinAddr: 0x100002DF4, symSize: 0x44 }
  - { offsetInCU: 0x221AD, offset: 0x221AD, size: 0x8, addend: 0x0, symName: __ZN9__gnu_cxx5__ops14_Iter_comp_valISt4lessIiEEC1ES3_, symObjAddr: 0x16B0, symBinAddr: 0x100002DD0, symSize: 0x24 }
  - { offsetInCU: 0x2220C, offset: 0x2220C, size: 0x8, addend: 0x0, symName: __ZN9__gnu_cxx17__normal_iteratorIPiSt6vectorIiSaIiEEEC1ERKS1_, symObjAddr: 0x1688, symBinAddr: 0x100002DA8, symSize: 0x28 }
  - { offsetInCU: 0x22201, offset: 0x22201, size: 0x8, addend: 0x0, symName: __ZNSt6vectorIiSaIiEE17_M_realloc_appendIJRKiEEEvDpOT_, symObjAddr: 0x14CC, symBinAddr: 0x100002BEC, symSize: 0x1BC }
  - { offsetInCU: 0x223CC, offset: 0x223CC, size: 0x8, addend: 0x0, symName: __ZZNSt6vectorIiSaIiEE17_M_realloc_appendIJRKiEEEvDpOT_EN6_GuardC1EPimRS0_, symObjAddr: 0x1428, symBinAddr: 0x100002B48, symSize: 0x44 }
  - { offsetInCU: 0x2240C, offset: 0x2240C, size: 0x8, addend: 0x0, symName: __ZZNSt6vectorIiSaIiEE17_M_realloc_appendIJRKiEEEvDpOT_EN6_GuardD1Ev, symObjAddr: 0x146C, symBinAddr: 0x100002B8C, symSize: 0x60 }
  - { offsetInCU: 0x22518, offset: 0x22518, size: 0x8, addend: 0x0, symName: __ZNKSt8__detail10_Hash_nodeISt4pairIKNSt7__cxx1112basic_stringIcSt11char_traitsIcESaIcEEEiELb1EE7_M_nextEv, symObjAddr: 0x1410, symBinAddr: 0x100002B30, symSize: 0x18 }
  - { offsetInCU: 0x225EB, offset: 0x225EB, size: 0x8, addend: 0x0, symName: __ZNSt8__detail14_Node_iteratorISt4pairIKNSt7__cxx1112basic_stringIcSt11char_traitsIcESaIcEEEiELb0ELb1EEC1EPNS_10_Hash_nodeIS9_Lb1EEE, symObjAddr: 0x13E8, symBinAddr: 0x100002B08, symSize: 0x28 }
  - { offsetInCU: 0x22595, offset: 0x22595, size: 0x8, addend: 0x0, symName: __ZSt8_DestroyIPiEvT_S1_, symObjAddr: 0x13C0, symBinAddr: 0x100002AE0, symSize: 0x28 }
  - { offsetInCU: 0x225DB, offset: 0x225DB, size: 0x8, addend: 0x0, symName: __ZNSt12_Vector_baseIiSaIiEE13_M_deallocateEPim, symObjAddr: 0x1368, symBinAddr: 0x100002A88, symSize: 0x58 }
  - { offsetInCU: 0x2269B, offset: 0x2269B, size: 0x8, addend: 0x0, symName: __ZNSt15__new_allocatorIiED2Ev, symObjAddr: 0x1354, symBinAddr: 0x100002A74, symSize: 0x14 }
  - { offsetInCU: 0x226F0, offset: 0x226F0, size: 0x8, addend: 0x0, symName: __ZNSt12_Vector_baseIiSaIiEE17_Vector_impl_dataC2Ev, symObjAddr: 0x1328, symBinAddr: 0x100002A48, symSize: 0x2C }
  - { offsetInCU: 0x226FD, offset: 0x226FD, size: 0x8, addend: 0x0, symName: __ZNKSt8__detail14_Node_iteratorISt4pairIKNSt7__cxx1112basic_stringIcSt11char_traitsIcESaIcEEEiELb0ELb1EEptEv, symObjAddr: 0x12F8, symBinAddr: 0x100002A18, symSize: 0x30 }
  - { offsetInCU: 0x2274B, offset: 0x2274B, size: 0x8, addend: 0x0, symName: __ZNSt10_HashtableINSt7__cxx1112basic_stringIcSt11char_traitsIcESaIcEEESt4pairIKS5_iESaIS8_ENSt8__detail10_Select1stESt8equal_toIS5_ESt4hashIS5_ENSA_18_Mod_range_hashingENSA_20_Default_ranged_hashENSA_20_Prime_rehash_policyENSA_17_Hashtable_traitsILb1ELb0ELb1EEEE21_M_insert_unique_nodeEmmPNSA_10_Hash_nodeIS8_Lb1EEEm, symObjAddr: 0x11E8, symBinAddr: 0x100002908, symSize: 0x110 }
  - { offsetInCU: 0x22917, offset: 0x22917, size: 0x8, addend: 0x0, symName: __ZNSt10_HashtableINSt7__cxx1112basic_stringIcSt11char_traitsIcESaIcEEESt4pairIKS5_iESaIS8_ENSt8__detail10_Select1stESt8equal_toIS5_ESt4hashIS5_ENSA_18_Mod_range_hashingENSA_20_Default_ranged_hashENSA_20_Prime_rehash_policyENSA_17_Hashtable_traitsILb1ELb0ELb1EEEE12_Scoped_nodeD1Ev, symObjAddr: 0x11A4, symBinAddr: 0x1000028C4, symSize: 0x44 }
  - { offsetInCU: 0x22A02, offset: 0x22A02, size: 0x8, addend: 0x0, symName: __ZNSt10_HashtableINSt7__cxx1112basic_stringIcSt11char_traitsIcESaIcEEESt4pairIKS5_iESaIS8_ENSt8__detail10_Select1stESt8equal_toIS5_ESt4hashIS5_ENSA_18_Mod_range_hashingENSA_20_Default_ranged_hashENSA_20_Prime_rehash_policyENSA_17_Hashtable_traitsILb1ELb0ELb1EEEE12_Scoped_nodeC1IJRKSt21piecewise_construct_tSt5tupleIJRS7_EESR_IJEEEEEPNSA_16_Hashtable_allocISaINSA_10_Hash_nodeIS8_Lb1EEEEEEDpOT_, symObjAddr: 0x111C, symBinAddr: 0x10000283C, symSize: 0x88 }
  - { offsetInCU: 0x22965, offset: 0x22965, size: 0x8, addend: 0x0, symName: __ZNSt5tupleIJRKNSt7__cxx1112basic_stringIcSt11char_traitsIcESaIcEEEEEC1ILb1ELb1EEES7_, symObjAddr: 0x10F4, symBinAddr: 0x100002814, symSize: 0x28 }
  - { offsetInCU: 0x2294C, offset: 0x2294C, size: 0x8, addend: 0x0, symName: __ZNKSt10_HashtableINSt7__cxx1112basic_stringIcSt11char_traitsIcESaIcEEESt4pairIKS5_iESaIS8_ENSt8__detail10_Select1stESt8equal_toIS5_ESt4hashIS5_ENSA_18_Mod_range_hashingENSA_20_Default_ranged_hashENSA_20_Prime_rehash_policyENSA_17_Hashtable_traitsILb1ELb0ELb1EEEE12_M_find_nodeEmRS7_m, symObjAddr: 0x10A0, symBinAddr: 0x1000027C0, symSize: 0x54 }
  - { offsetInCU: 0x229BA, offset: 0x229BA, size: 0x8, addend: 0x0, symName: __ZNKSt10_HashtableINSt7__cxx1112basic_stringIcSt11char_traitsIcESaIcEEESt4pairIKS5_iESaIS8_ENSt8__detail10_Select1stESt8equal_toIS5_ESt4hashIS5_ENSA_18_Mod_range_hashingENSA_20_Default_ranged_hashENSA_20_Prime_rehash_policyENSA_17_Hashtable_traitsILb1ELb0ELb1EEEE15_M_bucket_indexEm, symObjAddr: 0x1070, symBinAddr: 0x100002790, symSize: 0x30 }
  - { offsetInCU: 0x229F5, offset: 0x229F5, size: 0x8, addend: 0x0, symName: __ZNKSt8__detail15_Hash_code_baseINSt7__cxx1112basic_stringIcSt11char_traitsIcESaIcEEESt4pairIKS6_iENS_10_Select1stESt4hashIS6_ENS_18_Mod_range_hashingENS_20_Default_ranged_hashELb1EE12_M_hash_codeERS8_, symObjAddr: 0x1048, symBinAddr: 0x100002768, symSize: 0x28 }
  - { offsetInCU: 0x22A30, offset: 0x22A30, size: 0x8, addend: 0x0, symName: __ZNSt10_HashtableINSt7__cxx1112basic_stringIcSt11char_traitsIcESaIcEEESt4pairIKS5_iESaIS8_ENSt8__detail10_Select1stESt8equal_toIS5_ESt4hashIS5_ENSA_18_Mod_range_hashingENSA_20_Default_ranged_hashENSA_20_Prime_rehash_policyENSA_17_Hashtable_traitsILb1ELb0ELb1EEEE21_M_deallocate_bucketsEPPNSA_15_Hash_node_baseEm, symObjAddr: 0xFFC, symBinAddr: 0x10000271C, symSize: 0x4C }
  - { offsetInCU: 0x22A7C, offset: 0x22A7C, size: 0x8, addend: 0x0, symName: __ZNSt8__detail16_Hashtable_allocISaINS_10_Hash_nodeISt4pairIKNSt7__cxx1112basic_stringIcSt11char_traitsIcESaIcEEEiELb1EEEEE19_M_deallocate_nodesEPSB_, symObjAddr: 0xFAC, symBinAddr: 0x1000026CC, symSize: 0x50 }
  - { offsetInCU: 0x22ADB, offset: 0x22ADB, size: 0x8, addend: 0x0, symName: __ZNKSt10_HashtableINSt7__cxx1112basic_stringIcSt11char_traitsIcESaIcEEESt4pairIKS5_iESaIS8_ENSt8__detail10_Select1stESt8equal_toIS5_ESt4hashIS5_ENSA_18_Mod_range_hashingENSA_20_Default_ranged_hashENSA_20_Prime_rehash_policyENSA_17_Hashtable_traitsILb1ELb0ELb1EEEE8_M_beginEv, symObjAddr: 0xF94, symBinAddr: 0x1000026B4, symSize: 0x18 }
  - { offsetInCU: 0x22B1B, offset: 0x22B1B, size: 0x8, addend: 0x0, symName: __ZNSt6vectorIiSaIiEE8pop_backEv, symObjAddr: 0xF40, symBinAddr: 0x100002660, symSize: 0x54 }
  - { offsetInCU: 0x22B9B, offset: 0x22B9B, size: 0x8, addend: 0x0, symName: __ZSt8pop_heapIN9__gnu_cxx17__normal_iteratorIPiSt6vectorIiSaIiEEEESt4lessIiEEvT_S9_T0_, symObjAddr: 0xEDC, symBinAddr: 0x1000025FC, symSize: 0x64 }
  - { offsetInCU: 0x22C2B, offset: 0x22C2B, size: 0x8, addend: 0x0, symName: __ZSt4moveIRSt4lessIiEEONSt16remove_referenceIT_E4typeEOS4_, symObjAddr: 0xEC8, symBinAddr: 0x1000025E8, symSize: 0x14 }
  - { offsetInCU: 0x22C61, offset: 0x22C61, size: 0x8, addend: 0x0, symName: __ZNKSt6vectorIiSaIiEE5frontEv, symObjAddr: 0xEA0, symBinAddr: 0x1000025C0, symSize: 0x28 }
  - { offsetInCU: 0x22C8B, offset: 0x22C8B, size: 0x8, addend: 0x0, symName: __ZNKSt6vectorIiSaIiEE5emptyEv, symObjAddr: 0xE68, symBinAddr: 0x100002588, symSize: 0x38 }
  - { offsetInCU: 0x22CB1, offset: 0x22CB1, size: 0x8, addend: 0x0, symName: __ZSt9push_heapIN9__gnu_cxx17__normal_iteratorIPiSt6vectorIiSaIiEEEESt4lessIiEEvT_S9_T0_, symObjAddr: 0xDD0, symBinAddr: 0x1000024F0, symSize: 0x98 }
  - { offsetInCU: 0x22D48, offset: 0x22D48, size: 0x8, addend: 0x0, symName: __ZNSt6vectorIiSaIiEE3endEv, symObjAddr: 0xDA8, symBinAddr: 0x1000024C8, symSize: 0x28 }
  - { offsetInCU: 0x22D72, offset: 0x22D72, size: 0x8, addend: 0x0, symName: __ZNSt6vectorIiSaIiEE5beginEv, symObjAddr: 0xD84, symBinAddr: 0x1000024A4, symSize: 0x24 }
  - { offsetInCU: 0x22D9C, offset: 0x22D9C, size: 0x8, addend: 0x0, symName: __ZNSt6vectorIiSaIiEE9push_backERKi, symObjAddr: 0xCBC, symBinAddr: 0x1000023DC, symSize: 0xC8 }
  - { offsetInCU: 0x22E59, offset: 0x22E59, size: 0x8, addend: 0x0, symName: __ZNSt8__detail19_Node_iterator_baseISt4pairIKNSt7__cxx1112basic_stringIcSt11char_traitsIcESaIcEEEiELb1EE7_M_incrEv, symObjAddr: 0xC8C, symBinAddr: 0x1000023AC, symSize: 0x30 }
  - { offsetInCU: 0x22E83, offset: 0x22E83, size: 0x8, addend: 0x0, symName: __ZNSt10_HashtableINSt7__cxx1112basic_stringIcSt11char_traitsIcESaIcEEESt4pairIKS5_iESaIS8_ENSt8__detail10_Select1stESt8equal_toIS5_ESt4hashIS5_ENSA_18_Mod_range_hashingENSA_20_Default_ranged_hashENSA_20_Prime_rehash_policyENSA_17_Hashtable_traitsILb1ELb0ELb1EEEE3endEv, symObjAddr: 0xC68, symBinAddr: 0x100002388, symSize: 0x24 }
  - { offsetInCU: 0x22EAD, offset: 0x22EAD, size: 0x8, addend: 0x0, symName: __ZNSt10_HashtableINSt7__cxx1112basic_stringIcSt11char_traitsIcESaIcEEESt4pairIKS5_iESaIS8_ENSt8__detail10_Select1stESt8equal_toIS5_ESt4hashIS5_ENSA_18_Mod_range_hashingENSA_20_Default_ranged_hashENSA_20_Prime_rehash_policyENSA_17_Hashtable_traitsILb1ELb0ELb1EEEE5beginEv, symObjAddr: 0xC3C, symBinAddr: 0x10000235C, symSize: 0x2C }
  - { offsetInCU: 0x22F12, offset: 0x22F12, size: 0x8, addend: 0x0, symName: __ZNSt12_Vector_baseIiSaIiEE19_M_get_Tp_allocatorEv, symObjAddr: 0xC28, symBinAddr: 0x100002348, symSize: 0x14 }
  - { offsetInCU: 0x22F7C, offset: 0x22F7C, size: 0x8, addend: 0x0, symName: __ZNSt12_Vector_baseIiSaIiEED2Ev, symObjAddr: 0xBD8, symBinAddr: 0x1000022F8, symSize: 0x50 }
  - { offsetInCU: 0x22FEA, offset: 0x22FEA, size: 0x8, addend: 0x0, symName: __ZNSt12_Vector_baseIiSaIiEE12_Vector_implC1Ev, symObjAddr: 0xBA0, symBinAddr: 0x1000022C0, symSize: 0x38 }
  - { offsetInCU: 0x2302C, offset: 0x2302C, size: 0x8, addend: 0x0, symName: __ZNSt8__detail9_Map_baseINSt7__cxx1112basic_stringIcSt11char_traitsIcESaIcEEESt4pairIKS6_iESaIS9_ENS_10_Select1stESt8equal_toIS6_ESt4hashIS6_ENS_18_Mod_range_hashingENS_20_Default_ranged_hashENS_20_Prime_rehash_policyENS_17_Hashtable_traitsILb1ELb0ELb1EEELb1EEixERS8_, symObjAddr: 0xA80, symBinAddr: 0x1000021A0, symSize: 0x120 }
  - { offsetInCU: 0x23132, offset: 0x23132, size: 0x8, addend: 0x0, symName: __ZNSt10_HashtableINSt7__cxx1112basic_stringIcSt11char_traitsIcESaIcEEESt4pairIKS5_iESaIS8_ENSt8__detail10_Select1stESt8equal_toIS5_ESt4hashIS5_ENSA_18_Mod_range_hashingENSA_20_Default_ranged_hashENSA_20_Prime_rehash_policyENSA_17_Hashtable_traitsILb1ELb0ELb1EEEE21_M_deallocate_bucketsEv, symObjAddr: 0xA4C, symBinAddr: 0x10000216C, symSize: 0x34 }
  - { offsetInCU: 0x2315C, offset: 0x2315C, size: 0x8, addend: 0x0, symName: __ZNSt10_HashtableINSt7__cxx1112basic_stringIcSt11char_traitsIcESaIcEEESt4pairIKS5_iESaIS8_ENSt8__detail10_Select1stESt8equal_toIS5_ESt4hashIS5_ENSA_18_Mod_range_hashingENSA_20_Default_ranged_hashENSA_20_Prime_rehash_policyENSA_17_Hashtable_traitsILb1ELb0ELb1EEEE5clearEv, symObjAddr: 0x9EC, symBinAddr: 0x10000210C, symSize: 0x60 }
  - { offsetInCU: 0x23221, offset: 0x23221, size: 0x8, addend: 0x0, symName: __ZNSt15__new_allocatorINSt8__detail10_Hash_nodeISt4pairIKNSt7__cxx1112basic_stringIcSt11char_traitsIcESaIcEEEiELb1EEEED2Ev, symObjAddr: 0x9D8, symBinAddr: 0x1000020F8, symSize: 0x14 }
  - { offsetInCU: 0x231E6, offset: 0x231E6, size: 0x8, addend: 0x0, symName: __ZNSt14priority_queueIiSt6vectorIiSaIiEESt4lessIiEE3popEv, symObjAddr: 0x98C, symBinAddr: 0x1000020AC, symSize: 0x4C }
  - { offsetInCU: 0x23210, offset: 0x23210, size: 0x8, addend: 0x0, symName: __ZNKSt14priority_queueIiSt6vectorIiSaIiEESt4lessIiEE3topEv, symObjAddr: 0x970, symBinAddr: 0x100002090, symSize: 0x1C }
  - { offsetInCU: 0x2323A, offset: 0x2323A, size: 0x8, addend: 0x0, symName: __ZNKSt14priority_queueIiSt6vectorIiSaIiEESt4lessIiEE5emptyEv, symObjAddr: 0x954, symBinAddr: 0x100002074, symSize: 0x1C }
  - { offsetInCU: 0x23264, offset: 0x23264, size: 0x8, addend: 0x0, symName: __ZNSt14priority_queueIiSt6vectorIiSaIiEESt4lessIiEE4pushERKi, symObjAddr: 0x900, symBinAddr: 0x100002020, symSize: 0x54 }
  - { offsetInCU: 0x2329F, offset: 0x2329F, size: 0x8, addend: 0x0, symName: __ZNKSt8__detail14_Node_iteratorISt4pairIKNSt7__cxx1112basic_stringIcSt11char_traitsIcESaIcEEEiELb0ELb1EEdeEv, symObjAddr: 0x8C4, symBinAddr: 0x100001FE4, symSize: 0x3C }
  - { offsetInCU: 0x23311, offset: 0x23311, size: 0x8, addend: 0x0, symName: __ZNSt8__detail14_Node_iteratorISt4pairIKNSt7__cxx1112basic_stringIcSt11char_traitsIcESaIcEEEiELb0ELb1EEppEv, symObjAddr: 0x8A4, symBinAddr: 0x100001FC4, symSize: 0x20 }
  - { offsetInCU: 0x2333E, offset: 0x2333E, size: 0x8, addend: 0x0, symName: __ZNSt8__detailneERKNS_19_Node_iterator_baseISt4pairIKNSt7__cxx1112basic_stringIcSt11char_traitsIcESaIcEEEiELb1EEESC_, symObjAddr: 0x874, symBinAddr: 0x100001F94, symSize: 0x30 }
  - { offsetInCU: 0x2337D, offset: 0x2337D, size: 0x8, addend: 0x0, symName: __ZNSt13unordered_mapINSt7__cxx1112basic_stringIcSt11char_traitsIcESaIcEEEiSt4hashIS5_ESt8equal_toIS5_ESaISt4pairIKS5_iEEE3endEv, symObjAddr: 0x858, symBinAddr: 0x100001F78, symSize: 0x1C }
  - { offsetInCU: 0x233A7, offset: 0x233A7, size: 0x8, addend: 0x0, symName: __ZNSt13unordered_mapINSt7__cxx1112basic_stringIcSt11char_traitsIcESaIcEEEiSt4hashIS5_ESt8equal_toIS5_ESaISt4pairIKS5_iEEE5beginEv, symObjAddr: 0x83C, symBinAddr: 0x100001F5C, symSize: 0x1C }
  - { offsetInCU: 0x2340A, offset: 0x2340A, size: 0x8, addend: 0x0, symName: __ZNSt6vectorIiSaIiEED1Ev, symObjAddr: 0x7E0, symBinAddr: 0x100001F00, symSize: 0x5C }
  - { offsetInCU: 0x234B3, offset: 0x234B3, size: 0x8, addend: 0x0, symName: __ZNSt14priority_queueIiSt6vectorIiSaIiEESt4lessIiEEC1IS2_vEEv, symObjAddr: 0x7B4, symBinAddr: 0x100001ED4, symSize: 0x2C }
  - { offsetInCU: 0x234DC, offset: 0x234DC, size: 0x8, addend: 0x0, symName: __ZNSt6vectorIiSaIiEEC1Ev, symObjAddr: 0x794, symBinAddr: 0x100001EB4, symSize: 0x20 }
  - { offsetInCU: 0x23523, offset: 0x23523, size: 0x8, addend: 0x0, symName: __ZNSt12_Vector_baseIiSaIiEEC2Ev, symObjAddr: 0x774, symBinAddr: 0x100001E94, symSize: 0x20 }
  - { offsetInCU: 0x2357E, offset: 0x2357E, size: 0x8, addend: 0x0, symName: __ZNSt12_Vector_baseIiSaIiEE12_Vector_implD1Ev, symObjAddr: 0x748, symBinAddr: 0x100001E68, symSize: 0x2C }
  - { offsetInCU: 0x2359D, offset: 0x2359D, size: 0x8, addend: 0x0, symName: __ZNSt13unordered_mapINSt7__cxx1112basic_stringIcSt11char_traitsIcESaIcEEEiSt4hashIS5_ESt8equal_toIS5_ESaISt4pairIKS5_iEEEixERSB_, symObjAddr: 0x724, symBinAddr: 0x100001E44, symSize: 0x24 }
  - { offsetInCU: 0x23703, offset: 0x23703, size: 0x8, addend: 0x0, symName: __ZNSt10_HashtableINSt7__cxx1112basic_stringIcSt11char_traitsIcESaIcEEESt4pairIKS5_iESaIS8_ENSt8__detail10_Select1stESt8equal_toIS5_ESt4hashIS5_ENSA_18_Mod_range_hashingENSA_20_Default_ranged_hashENSA_20_Prime_rehash_policyENSA_17_Hashtable_traitsILb1ELb0ELb1EEEED1Ev, symObjAddr: 0x6F4, symBinAddr: 0x100001E14, symSize: 0x30 }
  - { offsetInCU: 0x236E5, offset: 0x236E5, size: 0x8, addend: 0x0, symName: __ZNSt8__detail21_Hashtable_ebo_helperILi0ESaINS_10_Hash_nodeISt4pairIKNSt7__cxx1112basic_stringIcSt11char_traitsIcESaIcEEEiELb1EEEELb1EEC2Ev, symObjAddr: 0x6C8, symBinAddr: 0x100001DE8, symSize: 0x2C }
  - { offsetInCU: 0x23754, offset: 0x23754, size: 0x8, addend: 0x0, symName: __ZNSt8__detail21_Hashtable_ebo_helperILi0ESt8equal_toINSt7__cxx1112basic_stringIcSt11char_traitsIcESaIcEEEELb1EEC2Ev, symObjAddr: 0x6B4, symBinAddr: 0x100001DD4, symSize: 0x14 }
  - { offsetInCU: 0x23790, offset: 0x23790, size: 0x8, addend: 0x0, symName: __ZNSt8__detail21_Hashtable_ebo_helperILi1ESt4hashINSt7__cxx1112basic_stringIcSt11char_traitsIcESaIcEEEELb1EEC2Ev, symObjAddr: 0x6A0, symBinAddr: 0x100001DC0, symSize: 0x14 }
  - { offsetInCU: 0x23745, offset: 0x23745, size: 0x8, addend: 0x0, symName: __ZSt3maxImERKT_S2_S2_, symObjAddr: 0x668, symBinAddr: 0x100001D88, symSize: 0x38 }
  - { offsetInCU: 0x23792, offset: 0x23792, size: 0x8, addend: 0x0, symName: _main, symObjAddr: 0x468, symBinAddr: 0x100001B88, symSize: 0x200 }
  - { offsetInCU: 0x238DA, offset: 0x238DA, size: 0x8, addend: 0x0, symName: __ZNSt4pairIKNSt7__cxx1112basic_stringIcSt11char_traitsIcESaIcEEEiED1Ev, symObjAddr: 0x448, symBinAddr: 0x100001B68, symSize: 0x20 }
  - { offsetInCU: 0x23923, offset: 0x23923, size: 0x8, addend: 0x0, symName: __ZNSt4pairIKNSt7__cxx1112basic_stringIcSt11char_traitsIcESaIcEEEiEC1ERKS7_, symObjAddr: 0x410, symBinAddr: 0x100001B30, symSize: 0x38 }
  - { offsetInCU: 0x23967, offset: 0x23967, size: 0x8, addend: 0x0, symName: __ZNSt14priority_queueIiSt6vectorIiSaIiEESt4lessIiEED1Ev, symObjAddr: 0x3F0, symBinAddr: 0x100001B10, symSize: 0x20 }
  - { offsetInCU: 0x239FA, offset: 0x239FA, size: 0x8, addend: 0x0, symName: __ZNSt13unordered_mapINSt7__cxx1112basic_stringIcSt11char_traitsIcESaIcEEEiSt4hashIS5_ESt8equal_toIS5_ESaISt4pairIKS5_iEEED1Ev, symObjAddr: 0x3D0, symBinAddr: 0x100001AF0, symSize: 0x20 }
  - { offsetInCU: 0x23A3A, offset: 0x23A3A, size: 0x8, addend: 0x0, symName: __ZNSt13unordered_mapINSt7__cxx1112basic_stringIcSt11char_traitsIcESaIcEEEiSt4hashIS5_ESt8equal_toIS5_ESaISt4pairIKS5_iEEEC1Ev, symObjAddr: 0x3B0, symBinAddr: 0x100001AD0, symSize: 0x20 }
  - { offsetInCU: 0x23B07, offset: 0x23B07, size: 0x8, addend: 0x0, symName: __ZNSt10_HashtableINSt7__cxx1112basic_stringIcSt11char_traitsIcESaIcEEESt4pairIKS5_iESaIS8_ENSt8__detail10_Select1stESt8equal_toIS5_ESt4hashIS5_ENSA_18_Mod_range_hashingENSA_20_Default_ranged_hashENSA_20_Prime_rehash_policyENSA_17_Hashtable_traitsILb1ELb0ELb1EEEEC1Ev, symObjAddr: 0x340, symBinAddr: 0x100001A60, symSize: 0x70 }
  - { offsetInCU: 0x23ACA, offset: 0x23ACA, size: 0x8, addend: 0x0, symName: __ZNSt8__detail16_Hashtable_allocISaINS_10_Hash_nodeISt4pairIKNSt7__cxx1112basic_stringIcSt11char_traitsIcESaIcEEEiELb1EEEEED2Ev, symObjAddr: 0x320, symBinAddr: 0x100001A40, symSize: 0x20 }
  - { offsetInCU: 0x23B0A, offset: 0x23B0A, size: 0x8, addend: 0x0, symName: __ZNSt8__detail16_Hashtable_allocISaINS_10_Hash_nodeISt4pairIKNSt7__cxx1112basic_stringIcSt11char_traitsIcESaIcEEEiELb1EEEEEC2Ev, symObjAddr: 0x300, symBinAddr: 0x100001A20, symSize: 0x20 }
  - { offsetInCU: 0x23B65, offset: 0x23B65, size: 0x8, addend: 0x0, symName: __ZNSt8__detail21_Hashtable_ebo_helperILi0ESaINS_10_Hash_nodeISt4pairIKNSt7__cxx1112basic_stringIcSt11char_traitsIcESaIcEEEiELb1EEEELb1EED2Ev, symObjAddr: 0x2D4, symBinAddr: 0x1000019F4, symSize: 0x2C }
  - { offsetInCU: 0x23C27, offset: 0x23C27, size: 0x8, addend: 0x0, symName: __ZNSt8__detail15_Hashtable_baseINSt7__cxx1112basic_stringIcSt11char_traitsIcESaIcEEESt4pairIKS6_iENS_10_Select1stESt8equal_toIS6_ESt4hashIS6_ENS_18_Mod_range_hashingENS_20_Default_ranged_hashENS_17_Hashtable_traitsILb1ELb0ELb1EEEEC2Ev, symObjAddr: 0x2AC, symBinAddr: 0x1000019CC, symSize: 0x28 }
  - { offsetInCU: 0x23C36, offset: 0x23C36, size: 0x8, addend: 0x0, symName: __ZNSt8__detail15_Hash_code_baseINSt7__cxx1112basic_stringIcSt11char_traitsIcESaIcEEESt4pairIKS6_iENS_10_Select1stESt4hashIS6_ENS_18_Mod_range_hashingENS_20_Default_ranged_hashELb1EEC2Ev, symObjAddr: 0x28C, symBinAddr: 0x1000019AC, symSize: 0x20 }
  - { offsetInCU: 0x23BA2, offset: 0x23BA2, size: 0x8, addend: 0x0, symName: __ZSt3minImERKT_S2_S2_, symObjAddr: 0x254, symBinAddr: 0x100001974, symSize: 0x38 }
  - { offsetInCU: 0x23BE8, offset: 0x23BE8, size: 0x8, addend: 0x0, symName: __ZNSt8__detail20_Prime_rehash_policy8_M_resetEm, symObjAddr: 0x230, symBinAddr: 0x100001950, symSize: 0x24 }
  - { offsetInCU: 0x23C23, offset: 0x23C23, size: 0x8, addend: 0x0, symName: __ZNKSt8__detail20_Prime_rehash_policy8_M_stateEv, symObjAddr: 0x218, symBinAddr: 0x100001938, symSize: 0x18 }
  - { offsetInCU: 0x23C9A, offset: 0x23C9A, size: 0x8, addend: 0x0, symName: __ZNSt8__detail20_Prime_rehash_policyC1Ef, symObjAddr: 0x1EC, symBinAddr: 0x10000190C, symSize: 0x2C }
  - { offsetInCU: 0x23CA4, offset: 0x23CA4, size: 0x8, addend: 0x0, symName: __ZNKSt8__detail18_Mod_range_hashingclEmm, symObjAddr: 0x1BC, symBinAddr: 0x1000018DC, symSize: 0x30 }
  - { offsetInCU: 0x23D2A, offset: 0x23D2A, size: 0x8, addend: 0x0, symName: __ZNSt8__detail15_Hash_node_baseC1Ev, symObjAddr: 0x1A0, symBinAddr: 0x1000018C0, symSize: 0x1C }
  - { offsetInCU: 0x23D54, offset: 0x23D54, size: 0x8, addend: 0x0, symName: __ZNSt8__detail15_Hash_node_baseC2Ev, symObjAddr: 0x184, symBinAddr: 0x1000018A4, symSize: 0x1C }
  - { offsetInCU: 0x23D56, offset: 0x23D56, size: 0x8, addend: 0x0, symName: __ZNSt10_Hash_impl4hashEPKvmm, symObjAddr: 0x158, symBinAddr: 0x100001878, symSize: 0x2C }
  - { offsetInCU: 0x23D9F, offset: 0x23D9F, size: 0x8, addend: 0x0, symName: __ZNSt11char_traitsIcE7compareEPKcS2_m, symObjAddr: 0x68, symBinAddr: 0x100001788, symSize: 0xF0 }
  - { offsetInCU: 0x23E29, offset: 0x23E29, size: 0x8, addend: 0x0, symName: __ZNSt11char_traitsIcE2ltERKcS2_, symObjAddr: 0x30, symBinAddr: 0x100001750, symSize: 0x38 }
  - { offsetInCU: 0x23E71, offset: 0x23E71, size: 0x8, addend: 0x0, symName: __ZdlPvS_, symObjAddr: 0x18, symBinAddr: 0x100001738, symSize: 0x18 }
  - { offsetInCU: 0x23EA6, offset: 0x23EA6, size: 0x8, addend: 0x0, symName: __ZnwmPv, symObjAddr: 0x0, symBinAddr: 0x100001720, symSize: 0x18 }
...
