---
triple:          'arm64-apple-darwin'
binary-path:     '/Users/pai/code/CU Grader/output/PartyList'
relocations:
  - { offsetInCU: 0x20B37, offset: 0x20B37, size: 0x8, addend: 0x0, symName: __ZStL8__ioinit, symObjAddr: 0xC0F28, symBinAddr: 0x100014000, symSize: 0x0 }
  - { offsetInCU: 0x21029, offset: 0x21029, size: 0x8, addend: 0x0, symName: __Z5partyB5cxx11, symObjAddr: 0xC0F30, symBinAddr: 0x100014008, symSize: 0x0 }
  - { offsetInCU: 0x21164, offset: 0x21164, size: 0x8, addend: 0x0, symName: __Z4fracB5cxx11, symObjAddr: 0xC0F60, symBinAddr: 0x100014038, symSize: 0x0 }
  - { offsetInCU: 0x2129B, offset: 0x2129B, size: 0x8, addend: 0x0, symName: __Z1vB5cxx11, symObjAddr: 0xC0F78, symBinAddr: 0x100014050, symSize: 0x0 }
  - { offsetInCU: 0x21649, offset: 0x21649, size: 0x8, addend: 0x0, symName: __ZSt8_DestroyISt4pairIiS0_IiNSt7__cxx1112basic_stringIcSt11char_traitsIcESaIcEEEEEEvPT_, symObjAddr: 0x66F0, symBinAddr: 0x10000A2B4, symSize: 0x20 }
  - { offsetInCU: 0x2167B, offset: 0x2167B, size: 0x8, addend: 0x0, symName: __ZSt8_DestroyISt4pairIfNSt7__cxx1112basic_stringIcSt11char_traitsIcESaIcEEEEEvPT_, symObjAddr: 0x66D0, symBinAddr: 0x10000A294, symSize: 0x20 }
  - { offsetInCU: 0x216AD, offset: 0x216AD, size: 0x8, addend: 0x0, symName: __ZNSt12_Destroy_auxILb0EE9__destroyIPSt4pairIiS2_IiNSt7__cxx1112basic_stringIcSt11char_traitsIcESaIcEEEEEEEvT_SC_, symObjAddr: 0x6684, symBinAddr: 0x10000A248, symSize: 0x4C }
  - { offsetInCU: 0x216EF, offset: 0x216EF, size: 0x8, addend: 0x0, symName: __ZNSt12_Destroy_auxILb0EE9__destroyIPSt4pairIfNSt7__cxx1112basic_stringIcSt11char_traitsIcESaIcEEEEEEvT_SB_, symObjAddr: 0x6638, symBinAddr: 0x10000A1FC, symSize: 0x4C }
  - { offsetInCU: 0x21731, offset: 0x21731, size: 0x8, addend: 0x0, symName: __ZSt8_DestroyIPSt4pairIiS0_IiNSt7__cxx1112basic_stringIcSt11char_traitsIcESaIcEEEEEEvT_SA_, symObjAddr: 0x6610, symBinAddr: 0x10000A1D4, symSize: 0x28 }
  - { offsetInCU: 0x21773, offset: 0x21773, size: 0x8, addend: 0x0, symName: __ZSt8_DestroyIPSt4pairIfNSt7__cxx1112basic_stringIcSt11char_traitsIcESaIcEEEEEvT_S9_, symObjAddr: 0x65E8, symBinAddr: 0x10000A1AC, symSize: 0x28 }
  - { offsetInCU: 0x218AD, offset: 0x218AD, size: 0x8, addend: 0x0, symName: __ZNSt6vectorISt4pairIiS0_IiNSt7__cxx1112basic_stringIcSt11char_traitsIcESaIcEEEEESaIS8_EED1Ev, symObjAddr: 0x658C, symBinAddr: 0x10000A150, symSize: 0x5C }
  - { offsetInCU: 0x21927, offset: 0x21927, size: 0x8, addend: 0x0, symName: __ZNSt6vectorISt4pairIfNSt7__cxx1112basic_stringIcSt11char_traitsIcESaIcEEEESaIS7_EED1Ev, symObjAddr: 0x6530, symBinAddr: 0x10000A0F4, symSize: 0x5C }
  - { offsetInCU: 0x219B2, offset: 0x219B2, size: 0x8, addend: 0x0, symName: __ZNSt3mapINSt7__cxx1112basic_stringIcSt11char_traitsIcESaIcEEEiSt4lessIS5_ESaISt4pairIKS5_iEEED1Ev, symObjAddr: 0x6510, symBinAddr: 0x10000A0D4, symSize: 0x20 }
  - { offsetInCU: 0x21975, offset: 0x21975, size: 0x8, addend: 0x0, symName: __ZNSt10_Head_baseILm0ERKNSt7__cxx1112basic_stringIcSt11char_traitsIcESaIcEEELb0EE7_M_headERS8_, symObjAddr: 0x64F8, symBinAddr: 0x10000A0BC, symSize: 0x18 }
  - { offsetInCU: 0x2199E, offset: 0x2199E, size: 0x8, addend: 0x0, symName: __ZNSt11_Tuple_implILm0EJRKNSt7__cxx1112basic_stringIcSt11char_traitsIcESaIcEEEEE7_M_headERS8_, symObjAddr: 0x64DC, symBinAddr: 0x10000A0A0, symSize: 0x1C }
  - { offsetInCU: 0x219C8, offset: 0x219C8, size: 0x8, addend: 0x0, symName: __ZSt12__get_helperILm0ERKNSt7__cxx1112basic_stringIcSt11char_traitsIcESaIcEEEJEERT0_RSt11_Tuple_implIXT_EJS8_DpT1_EE, symObjAddr: 0x64C0, symBinAddr: 0x10000A084, symSize: 0x1C }
  - { offsetInCU: 0x21A0E, offset: 0x21A0E, size: 0x8, addend: 0x0, symName: __ZNSt4pairIiNSt7__cxx1112basic_stringIcSt11char_traitsIcESaIcEEEE4swapERS6_, symObjAddr: 0x647C, symBinAddr: 0x10000A040, symSize: 0x44 }
  - { offsetInCU: 0x21A45, offset: 0x21A45, size: 0x8, addend: 0x0, symName: __ZSt3getILm0EJRKNSt7__cxx1112basic_stringIcSt11char_traitsIcESaIcEEEEERNSt13tuple_elementIXT_ESt5tupleIJDpT0_EEE4typeERSC_, symObjAddr: 0x6460, symBinAddr: 0x10000A024, symSize: 0x1C }
  - { offsetInCU: 0x21A84, offset: 0x21A84, size: 0x8, addend: 0x0, symName: __ZNSt20__copy_move_backwardILb1ELb0ESt26random_access_iterator_tagE13__copy_move_bIPSt4pairIiS3_IiNSt7__cxx1112basic_stringIcSt11char_traitsIcESaIcEEEEESC_EET0_T_SE_SD_, symObjAddr: 0x63D8, symBinAddr: 0x100009F9C, symSize: 0x88 }
  - { offsetInCU: 0x21AF3, offset: 0x21AF3, size: 0x8, addend: 0x0, symName: __ZStltIiNSt7__cxx1112basic_stringIcSt11char_traitsIcESaIcEEEEbRKSt4pairIT_T0_ESB_, symObjAddr: 0x635C, symBinAddr: 0x100009F20, symSize: 0x7C }
  - { offsetInCU: 0x21B40, offset: 0x21B40, size: 0x8, addend: 0x0, symName: __ZSt4swapIiNSt7__cxx1112basic_stringIcSt11char_traitsIcESaIcEEEENSt9enable_ifIXsrSt6__and_IJSt14__is_swappableIT_ES8_IT0_EEE5valueEvE4typeERSt4pairIS9_SB_ESI_, symObjAddr: 0x6334, symBinAddr: 0x100009EF8, symSize: 0x28 }
  - { offsetInCU: 0x21B8D, offset: 0x21B8D, size: 0x8, addend: 0x0, symName: __ZSt4swapIiENSt9enable_ifIXsrSt6__and_IJSt6__not_ISt15__is_tuple_likeIT_EESt21is_move_constructibleIS4_ESt18is_move_assignableIS4_EEE5valueEvE4typeERS4_SE_, symObjAddr: 0x62E0, symBinAddr: 0x100009EA4, symSize: 0x54 }
  - { offsetInCU: 0x21BE6, offset: 0x21BE6, size: 0x8, addend: 0x0, symName: __ZSt4moveIRiEONSt16remove_referenceIT_E4typeEOS2_, symObjAddr: 0x62CC, symBinAddr: 0x100009E90, symSize: 0x14 }
  - { offsetInCU: 0x21C1C, offset: 0x21C1C, size: 0x8, addend: 0x0, symName: __ZN9__gnu_cxx5__ops14_Iter_comp_valISt7greaterIvEEclINS_17__normal_iteratorIPSt4pairIiS7_IiNSt7__cxx1112basic_stringIcSt11char_traitsIcESaIcEEEEESt6vectorISF_SaISF_EEEESF_EEbT_RT0_, symObjAddr: 0x628C, symBinAddr: 0x100009E50, symSize: 0x40 }
  - { offsetInCU: 0x21C74, offset: 0x21C74, size: 0x8, addend: 0x0, symName: __ZNSt20__copy_move_backwardILb1ELb0ESt26random_access_iterator_tagE13__copy_move_bIPSt4pairIfNSt7__cxx1112basic_stringIcSt11char_traitsIcESaIcEEEESB_EET0_T_SD_SC_, symObjAddr: 0x6204, symBinAddr: 0x100009DC8, symSize: 0x88 }
  - { offsetInCU: 0x21CE3, offset: 0x21CE3, size: 0x8, addend: 0x0, symName: __ZSt4swapIcSt11char_traitsIcESaIcEEvRNSt7__cxx1112basic_stringIT_T0_T1_EES9_, symObjAddr: 0x61DC, symBinAddr: 0x100009DA0, symSize: 0x28 }
  - { offsetInCU: 0x21D39, offset: 0x21D39, size: 0x8, addend: 0x0, symName: __ZSt4swapIfENSt9enable_ifIXsrSt6__and_IJSt6__not_ISt15__is_tuple_likeIT_EESt21is_move_constructibleIS4_ESt18is_move_assignableIS4_EEE5valueEvE4typeERS4_SE_, symObjAddr: 0x6188, symBinAddr: 0x100009D4C, symSize: 0x54 }
  - { offsetInCU: 0x21D92, offset: 0x21D92, size: 0x8, addend: 0x0, symName: __ZSt4moveIRfEONSt16remove_referenceIT_E4typeEOS2_, symObjAddr: 0x6174, symBinAddr: 0x100009D38, symSize: 0x14 }
  - { offsetInCU: 0x21DC8, offset: 0x21DC8, size: 0x8, addend: 0x0, symName: __ZN9__gnu_cxx5__ops14_Iter_comp_valISt7greaterIvEEclINS_17__normal_iteratorIPSt4pairIfNSt7__cxx1112basic_stringIcSt11char_traitsIcESaIcEEEESt6vectorISE_SaISE_EEEESE_EEbT_RT0_, symObjAddr: 0x6134, symBinAddr: 0x100009CF8, symSize: 0x40 }
  - { offsetInCU: 0x21F80, offset: 0x21F80, size: 0x8, addend: 0x0, symName: __ZNSt4pairIKNSt7__cxx1112basic_stringIcSt11char_traitsIcESaIcEEEiEC1IJRS6_EJLm0EEJEJEEERSt5tupleIJDpT_EERSA_IJDpT1_EESt12_Index_tupleIJXspT0_EEESJ_IJXspT2_EEE, symObjAddr: 0x60E0, symBinAddr: 0x100009CA4, symSize: 0x54 }
  - { offsetInCU: 0x21F54, offset: 0x21F54, size: 0x8, addend: 0x0, symName: __ZSt23__copy_move_backward_a2ILb1EPSt4pairIiS0_IiNSt7__cxx1112basic_stringIcSt11char_traitsIcESaIcEEEEES9_ET1_T0_SB_SA_, symObjAddr: 0x60B4, symBinAddr: 0x100009C78, symSize: 0x2C }
  - { offsetInCU: 0x21FBC, offset: 0x21FBC, size: 0x8, addend: 0x0, symName: __ZStltIiSt4pairIiNSt7__cxx1112basic_stringIcSt11char_traitsIcESaIcEEEEEbRKS0_IT_T0_ESC_, symObjAddr: 0x6038, symBinAddr: 0x100009BFC, symSize: 0x7C }
  - { offsetInCU: 0x2200D, offset: 0x2200D, size: 0x8, addend: 0x0, symName: __ZNSt4pairIiS_IiNSt7__cxx1112basic_stringIcSt11char_traitsIcESaIcEEEEE4swapERS7_, symObjAddr: 0x5FF4, symBinAddr: 0x100009BB8, symSize: 0x44 }
  - { offsetInCU: 0x2204A, offset: 0x2204A, size: 0x8, addend: 0x0, symName: __ZSt11__push_heapIN9__gnu_cxx17__normal_iteratorIPSt4pairIiS2_IiNSt7__cxx1112basic_stringIcSt11char_traitsIcESaIcEEEEESt6vectorISA_SaISA_EEEElSA_NS0_5__ops14_Iter_comp_valISt7greaterIvEEEEvT_T0_SM_T1_RT2_, symObjAddr: 0x5ECC, symBinAddr: 0x100009A90, symSize: 0x128 }
  - { offsetInCU: 0x220E9, offset: 0x220E9, size: 0x8, addend: 0x0, symName: __ZSt23__copy_move_backward_a2ILb1EPSt4pairIfNSt7__cxx1112basic_stringIcSt11char_traitsIcESaIcEEEES8_ET1_T0_SA_S9_, symObjAddr: 0x5EA0, symBinAddr: 0x100009A64, symSize: 0x2C }
  - { offsetInCU: 0x22151, offset: 0x22151, size: 0x8, addend: 0x0, symName: __ZStltIfNSt7__cxx1112basic_stringIcSt11char_traitsIcESaIcEEEEbRKSt4pairIT_T0_ESB_, symObjAddr: 0x5E0C, symBinAddr: 0x1000099D0, symSize: 0x94 }
  - { offsetInCU: 0x221A2, offset: 0x221A2, size: 0x8, addend: 0x0, symName: __ZNSt4pairIfNSt7__cxx1112basic_stringIcSt11char_traitsIcESaIcEEEE4swapERS6_, symObjAddr: 0x5DC8, symBinAddr: 0x10000998C, symSize: 0x44 }
  - { offsetInCU: 0x221D9, offset: 0x221D9, size: 0x8, addend: 0x0, symName: __ZSt11__push_heapIN9__gnu_cxx17__normal_iteratorIPSt4pairIfNSt7__cxx1112basic_stringIcSt11char_traitsIcESaIcEEEESt6vectorIS9_SaIS9_EEEElS9_NS0_5__ops14_Iter_comp_valISt7greaterIvEEEEvT_T0_SL_T1_RT2_, symObjAddr: 0x5CA0, symBinAddr: 0x100009864, symSize: 0x128 }
  - { offsetInCU: 0x222F1, offset: 0x222F1, size: 0x8, addend: 0x0, symName: __ZN9__gnu_cxx5__ops14_Iter_comp_valISt7greaterIvEEC1EONS0_15_Iter_comp_iterIS3_EE, symObjAddr: 0x5C7C, symBinAddr: 0x100009840, symSize: 0x24 }
  - { offsetInCU: 0x22424, offset: 0x22424, size: 0x8, addend: 0x0, symName: __ZNSt4pairIKNSt7__cxx1112basic_stringIcSt11char_traitsIcESaIcEEEiEC1IJRS6_EJEEESt21piecewise_construct_tSt5tupleIJDpT_EESB_IJDpT0_EE, symObjAddr: 0x5C40, symBinAddr: 0x100009804, symSize: 0x3C }
  - { offsetInCU: 0x22471, offset: 0x22471, size: 0x8, addend: 0x0, symName: __ZNSt11_Tuple_implILm0EJRKNSt7__cxx1112basic_stringIcSt11char_traitsIcESaIcEEEEEC2EOS8_, symObjAddr: 0x5C18, symBinAddr: 0x1000097DC, symSize: 0x28 }
  - { offsetInCU: 0x22448, offset: 0x22448, size: 0x8, addend: 0x0, symName: __ZSt12__niter_wrapIN9__gnu_cxx17__normal_iteratorIPSt4pairIiS2_IiNSt7__cxx1112basic_stringIcSt11char_traitsIcESaIcEEEEESt6vectorISA_SaISA_EEEESB_ET_SG_T0_, symObjAddr: 0x5BC4, symBinAddr: 0x100009788, symSize: 0x54 }
  - { offsetInCU: 0x22495, offset: 0x22495, size: 0x8, addend: 0x0, symName: __ZSt23__copy_move_backward_a1ILb1EPSt4pairIiS0_IiNSt7__cxx1112basic_stringIcSt11char_traitsIcESaIcEEEEES9_ET1_T0_SB_SA_, symObjAddr: 0x5B98, symBinAddr: 0x10000975C, symSize: 0x2C }
  - { offsetInCU: 0x224FD, offset: 0x224FD, size: 0x8, addend: 0x0, symName: __ZSt12__niter_baseIPSt4pairIiS0_IiNSt7__cxx1112basic_stringIcSt11char_traitsIcESaIcEEEEESt6vectorIS8_SaIS8_EEET_N9__gnu_cxx17__normal_iteratorISD_T0_EE, symObjAddr: 0x5B78, symBinAddr: 0x10000973C, symSize: 0x20 }
  - { offsetInCU: 0x22539, offset: 0x22539, size: 0x8, addend: 0x0, symName: __ZStgtIiSt4pairIiNSt7__cxx1112basic_stringIcSt11char_traitsIcESaIcEEEEEbRKS0_IT_T0_ESC_, symObjAddr: 0x5B54, symBinAddr: 0x100009718, symSize: 0x24 }
  - { offsetInCU: 0x2258C, offset: 0x2258C, size: 0x8, addend: 0x0, symName: __ZSt7forwardIRSt4pairIiS0_IiNSt7__cxx1112basic_stringIcSt11char_traitsIcESaIcEEEEEEOT_RNSt16remove_referenceISA_E4typeE, symObjAddr: 0x5B40, symBinAddr: 0x100009704, symSize: 0x14 }
  - { offsetInCU: 0x225BE, offset: 0x225BE, size: 0x8, addend: 0x0, symName: __ZSt4swapIiSt4pairIiNSt7__cxx1112basic_stringIcSt11char_traitsIcESaIcEEEEENSt9enable_ifIXsrSt6__and_IJSt14__is_swappableIT_ESA_IT0_EEE5valueEvE4typeERS0_ISB_SD_ESJ_, symObjAddr: 0x5B18, symBinAddr: 0x1000096DC, symSize: 0x28 }
  - { offsetInCU: 0x2260B, offset: 0x2260B, size: 0x8, addend: 0x0, symName: __ZSt13__adjust_heapIN9__gnu_cxx17__normal_iteratorIPSt4pairIiS2_IiNSt7__cxx1112basic_stringIcSt11char_traitsIcESaIcEEEEESt6vectorISA_SaISA_EEEElSA_NS0_5__ops15_Iter_comp_iterISt7greaterIvEEEEvT_T0_SM_T1_T2_, symObjAddr: 0x5914, symBinAddr: 0x1000094D8, symSize: 0x204 }
  - { offsetInCU: 0x226CF, offset: 0x226CF, size: 0x8, addend: 0x0, symName: __ZSt12__niter_wrapIN9__gnu_cxx17__normal_iteratorIPSt4pairIfNSt7__cxx1112basic_stringIcSt11char_traitsIcESaIcEEEESt6vectorIS9_SaIS9_EEEESA_ET_SF_T0_, symObjAddr: 0x58C0, symBinAddr: 0x100009484, symSize: 0x54 }
  - { offsetInCU: 0x2271C, offset: 0x2271C, size: 0x8, addend: 0x0, symName: __ZSt23__copy_move_backward_a1ILb1EPSt4pairIfNSt7__cxx1112basic_stringIcSt11char_traitsIcESaIcEEEES8_ET1_T0_SA_S9_, symObjAddr: 0x5894, symBinAddr: 0x100009458, symSize: 0x2C }
  - { offsetInCU: 0x22784, offset: 0x22784, size: 0x8, addend: 0x0, symName: __ZSt12__niter_baseIPSt4pairIfNSt7__cxx1112basic_stringIcSt11char_traitsIcESaIcEEEESt6vectorIS7_SaIS7_EEET_N9__gnu_cxx17__normal_iteratorISC_T0_EE, symObjAddr: 0x5874, symBinAddr: 0x100009438, symSize: 0x20 }
  - { offsetInCU: 0x227C0, offset: 0x227C0, size: 0x8, addend: 0x0, symName: __ZStgtIfNSt7__cxx1112basic_stringIcSt11char_traitsIcESaIcEEEEbRKSt4pairIT_T0_ESB_, symObjAddr: 0x5850, symBinAddr: 0x100009414, symSize: 0x24 }
  - { offsetInCU: 0x22813, offset: 0x22813, size: 0x8, addend: 0x0, symName: __ZSt7forwardIRSt4pairIfNSt7__cxx1112basic_stringIcSt11char_traitsIcESaIcEEEEEOT_RNSt16remove_referenceIS9_E4typeE, symObjAddr: 0x583C, symBinAddr: 0x100009400, symSize: 0x14 }
  - { offsetInCU: 0x22845, offset: 0x22845, size: 0x8, addend: 0x0, symName: __ZSt4swapIfNSt7__cxx1112basic_stringIcSt11char_traitsIcESaIcEEEENSt9enable_ifIXsrSt6__and_IJSt14__is_swappableIT_ES8_IT0_EEE5valueEvE4typeERSt4pairIS9_SB_ESI_, symObjAddr: 0x5814, symBinAddr: 0x1000093D8, symSize: 0x28 }
  - { offsetInCU: 0x22892, offset: 0x22892, size: 0x8, addend: 0x0, symName: __ZSt13__adjust_heapIN9__gnu_cxx17__normal_iteratorIPSt4pairIfNSt7__cxx1112basic_stringIcSt11char_traitsIcESaIcEEEESt6vectorIS9_SaIS9_EEEElS9_NS0_5__ops15_Iter_comp_iterISt7greaterIvEEEEvT_T0_SL_T1_T2_, symObjAddr: 0x5610, symBinAddr: 0x1000091D4, symSize: 0x204 }
  - { offsetInCU: 0x22956, offset: 0x22956, size: 0x8, addend: 0x0, symName: __ZSt19__relocate_object_aISt4pairIiS0_IiNSt7__cxx1112basic_stringIcSt11char_traitsIcESaIcEEEEES8_SaIS8_EEvPT_PT0_RT1_, symObjAddr: 0x5540, symBinAddr: 0x100009104, symSize: 0xD0 }
  - { offsetInCU: 0x22A88, offset: 0x22A88, size: 0x8, addend: 0x0, symName: __ZSt11__addressofISt4pairIiS0_IiNSt7__cxx1112basic_stringIcSt11char_traitsIcESaIcEEEEEEPT_RS9_, symObjAddr: 0x552C, symBinAddr: 0x1000090F0, symSize: 0x14 }
  - { offsetInCU: 0x22AD0, offset: 0x22AD0, size: 0x8, addend: 0x0, symName: __ZSt19__relocate_object_aISt4pairIfNSt7__cxx1112basic_stringIcSt11char_traitsIcESaIcEEEES7_SaIS7_EEvPT_PT0_RT1_, symObjAddr: 0x545C, symBinAddr: 0x100009020, symSize: 0xD0 }
  - { offsetInCU: 0x22C02, offset: 0x22C02, size: 0x8, addend: 0x0, symName: __ZSt11__addressofISt4pairIfNSt7__cxx1112basic_stringIcSt11char_traitsIcESaIcEEEEEPT_RS8_, symObjAddr: 0x5448, symBinAddr: 0x10000900C, symSize: 0x14 }
  - { offsetInCU: 0x22C53, offset: 0x22C53, size: 0x8, addend: 0x0, symName: __ZNK9__gnu_cxx16__aligned_membufISt4pairIKNSt7__cxx1112basic_stringIcSt11char_traitsIcESaIcEEEiEE7_M_addrEv, symObjAddr: 0x5434, symBinAddr: 0x100008FF8, symSize: 0x14 }
  - { offsetInCU: 0x22D47, offset: 0x22D47, size: 0x8, addend: 0x0, symName: __ZNSt5tupleIJRKNSt7__cxx1112basic_stringIcSt11char_traitsIcESaIcEEEEEC1EOS8_, symObjAddr: 0x540C, symBinAddr: 0x100008FD0, symSize: 0x28 }
  - { offsetInCU: 0x22D2D, offset: 0x22D2D, size: 0x8, addend: 0x0, symName: __ZNSt15__new_allocatorISt13_Rb_tree_nodeISt4pairIKNSt7__cxx1112basic_stringIcSt11char_traitsIcESaIcEEEiEEE8allocateEmPKv, symObjAddr: 0x5374, symBinAddr: 0x100008F38, symSize: 0x98 }
  - { offsetInCU: 0x22DB9, offset: 0x22DB9, size: 0x8, addend: 0x0, symName: __ZN9__gnu_cxx5__ops14_Val_comp_iterISt7greaterIvEEclISt4pairIiS6_IiNSt7__cxx1112basic_stringIcSt11char_traitsIcESaIcEEEEENS_17__normal_iteratorIPSE_St6vectorISE_SaISE_EEEEEEbRT_T0_, symObjAddr: 0x5334, symBinAddr: 0x100008EF8, symSize: 0x40 }
  - { offsetInCU: 0x22E15, offset: 0x22E15, size: 0x8, addend: 0x0, symName: __ZNSt4pairIiNSt7__cxx1112basic_stringIcSt11char_traitsIcESaIcEEEEaSEOS6_, symObjAddr: 0x52E8, symBinAddr: 0x100008EAC, symSize: 0x4C }
  - { offsetInCU: 0x22E52, offset: 0x22E52, size: 0x8, addend: 0x0, symName: __ZSt7forwardISt4pairIiNSt7__cxx1112basic_stringIcSt11char_traitsIcESaIcEEEEEOT_RNSt16remove_referenceIS8_E4typeE, symObjAddr: 0x52D4, symBinAddr: 0x100008E98, symSize: 0x14 }
  - { offsetInCU: 0x22E84, offset: 0x22E84, size: 0x8, addend: 0x0, symName: __ZSt22__copy_move_backward_aILb1EN9__gnu_cxx17__normal_iteratorIPSt4pairIiS2_IiNSt7__cxx1112basic_stringIcSt11char_traitsIcESaIcEEEEESt6vectorISA_SaISA_EEEESF_ET1_T0_SH_SG_, symObjAddr: 0x5274, symBinAddr: 0x100008E38, symSize: 0x60 }
  - { offsetInCU: 0x22EEC, offset: 0x22EEC, size: 0x8, addend: 0x0, symName: __ZSt12__miter_baseIN9__gnu_cxx17__normal_iteratorIPSt4pairIiS2_IiNSt7__cxx1112basic_stringIcSt11char_traitsIcESaIcEEEEESt6vectorISA_SaISA_EEEEET_SG_, symObjAddr: 0x5260, symBinAddr: 0x100008E24, symSize: 0x14 }
  - { offsetInCU: 0x22F2E, offset: 0x22F2E, size: 0x8, addend: 0x0, symName: __ZNKSt7greaterIvEclIRSt4pairIiS2_IiNSt7__cxx1112basic_stringIcSt11char_traitsIcESaIcEEEEESB_EEDTgtcl7forwardIT_Efp_Ecl7forwardIT0_Efp0_EEOSC_OSD_, symObjAddr: 0x5218, symBinAddr: 0x100008DDC, symSize: 0x48 }
  - { offsetInCU: 0x22F88, offset: 0x22F88, size: 0x8, addend: 0x0, symName: __ZNSt7greaterIvE6_S_cmpIRSt4pairIiS2_IiNSt7__cxx1112basic_stringIcSt11char_traitsIcESaIcEEEEESB_EEDcOT_OT0_St17integral_constantIbLb0EE, symObjAddr: 0x51D4, symBinAddr: 0x100008D98, symSize: 0x44 }
  - { offsetInCU: 0x22FDE, offset: 0x22FDE, size: 0x8, addend: 0x0, symName: __ZSt9iter_swapIN9__gnu_cxx17__normal_iteratorIPSt4pairIiS2_IiNSt7__cxx1112basic_stringIcSt11char_traitsIcESaIcEEEEESt6vectorISA_SaISA_EEEESF_EvT_T0_, symObjAddr: 0x5190, symBinAddr: 0x100008D54, symSize: 0x44 }
  - { offsetInCU: 0x2302D, offset: 0x2302D, size: 0x8, addend: 0x0, symName: __ZN9__gnu_cxx17__normal_iteratorIPSt4pairIiS1_IiNSt7__cxx1112basic_stringIcSt11char_traitsIcESaIcEEEEESt6vectorIS9_SaIS9_EEEmmEv, symObjAddr: 0x5168, symBinAddr: 0x100008D2C, symSize: 0x28 }
  - { offsetInCU: 0x23059, offset: 0x23059, size: 0x8, addend: 0x0, symName: __ZSt10__pop_heapIN9__gnu_cxx17__normal_iteratorIPSt4pairIiS2_IiNSt7__cxx1112basic_stringIcSt11char_traitsIcESaIcEEEEESt6vectorISA_SaISA_EEEENS0_5__ops15_Iter_comp_iterISt7greaterIvEEEEvT_SL_SL_RT0_, symObjAddr: 0x5094, symBinAddr: 0x100008C58, symSize: 0xD4 }
  - { offsetInCU: 0x230FA, offset: 0x230FA, size: 0x8, addend: 0x0, symName: __ZN9__gnu_cxxltIPSt4pairIiS1_IiNSt7__cxx1112basic_stringIcSt11char_traitsIcESaIcEEEEESt6vectorIS9_SaIS9_EEEEbRKNS_17__normal_iteratorIT_T0_EESJ_, symObjAddr: 0x5050, symBinAddr: 0x100008C14, symSize: 0x44 }
  - { offsetInCU: 0x23147, offset: 0x23147, size: 0x8, addend: 0x0, symName: __ZSt11__make_heapIN9__gnu_cxx17__normal_iteratorIPSt4pairIiS2_IiNSt7__cxx1112basic_stringIcSt11char_traitsIcESaIcEEEEESt6vectorISA_SaISA_EEEENS0_5__ops15_Iter_comp_iterISt7greaterIvEEEEvT_SL_RT0_, symObjAddr: 0x4F1C, symBinAddr: 0x100008AE0, symSize: 0x134 }
  - { offsetInCU: 0x23206, offset: 0x23206, size: 0x8, addend: 0x0, symName: __ZN9__gnu_cxx5__ops14_Val_comp_iterISt7greaterIvEEclISt4pairIfNSt7__cxx1112basic_stringIcSt11char_traitsIcESaIcEEEENS_17__normal_iteratorIPSD_St6vectorISD_SaISD_EEEEEEbRT_T0_, symObjAddr: 0x4EDC, symBinAddr: 0x100008AA0, symSize: 0x40 }
  - { offsetInCU: 0x232D7, offset: 0x232D7, size: 0x8, addend: 0x0, symName: __ZN9__gnu_cxx5__ops14_Val_comp_iterISt7greaterIvEEC1EONS0_15_Iter_comp_iterIS3_EE, symObjAddr: 0x4EB8, symBinAddr: 0x100008A7C, symSize: 0x24 }
  - { offsetInCU: 0x232BB, offset: 0x232BB, size: 0x8, addend: 0x0, symName: __ZSt4moveIRN9__gnu_cxx5__ops15_Iter_comp_iterISt7greaterIvEEEEONSt16remove_referenceIT_E4typeEOS8_, symObjAddr: 0x4EA4, symBinAddr: 0x100008A68, symSize: 0x14 }
  - { offsetInCU: 0x232F3, offset: 0x232F3, size: 0x8, addend: 0x0, symName: __ZSt7forwardINSt7__cxx1112basic_stringIcSt11char_traitsIcESaIcEEEEOT_RNSt16remove_referenceIS6_E4typeE, symObjAddr: 0x4E90, symBinAddr: 0x100008A54, symSize: 0x14 }
  - { offsetInCU: 0x23325, offset: 0x23325, size: 0x8, addend: 0x0, symName: __ZSt22__copy_move_backward_aILb1EN9__gnu_cxx17__normal_iteratorIPSt4pairIfNSt7__cxx1112basic_stringIcSt11char_traitsIcESaIcEEEESt6vectorIS9_SaIS9_EEEESE_ET1_T0_SG_SF_, symObjAddr: 0x4E30, symBinAddr: 0x1000089F4, symSize: 0x60 }
  - { offsetInCU: 0x2338D, offset: 0x2338D, size: 0x8, addend: 0x0, symName: __ZSt12__miter_baseIN9__gnu_cxx17__normal_iteratorIPSt4pairIfNSt7__cxx1112basic_stringIcSt11char_traitsIcESaIcEEEESt6vectorIS9_SaIS9_EEEEET_SF_, symObjAddr: 0x4E1C, symBinAddr: 0x1000089E0, symSize: 0x14 }
  - { offsetInCU: 0x233C4, offset: 0x233C4, size: 0x8, addend: 0x0, symName: __ZNKSt7greaterIvEclIRSt4pairIfNSt7__cxx1112basic_stringIcSt11char_traitsIcESaIcEEEESA_EEDTgtcl7forwardIT_Efp_Ecl7forwardIT0_Efp0_EEOSB_OSC_, symObjAddr: 0x4DD4, symBinAddr: 0x100008998, symSize: 0x48 }
  - { offsetInCU: 0x2341E, offset: 0x2341E, size: 0x8, addend: 0x0, symName: __ZNSt7greaterIvE6_S_cmpIRSt4pairIfNSt7__cxx1112basic_stringIcSt11char_traitsIcESaIcEEEESA_EEDcOT_OT0_St17integral_constantIbLb0EE, symObjAddr: 0x4D90, symBinAddr: 0x100008954, symSize: 0x44 }
  - { offsetInCU: 0x23474, offset: 0x23474, size: 0x8, addend: 0x0, symName: __ZSt9iter_swapIN9__gnu_cxx17__normal_iteratorIPSt4pairIfNSt7__cxx1112basic_stringIcSt11char_traitsIcESaIcEEEESt6vectorIS9_SaIS9_EEEESE_EvT_T0_, symObjAddr: 0x4D4C, symBinAddr: 0x100008910, symSize: 0x44 }
  - { offsetInCU: 0x234C3, offset: 0x234C3, size: 0x8, addend: 0x0, symName: __ZN9__gnu_cxx17__normal_iteratorIPSt4pairIfNSt7__cxx1112basic_stringIcSt11char_traitsIcESaIcEEEESt6vectorIS8_SaIS8_EEEmmEv, symObjAddr: 0x4D24, symBinAddr: 0x1000088E8, symSize: 0x28 }
  - { offsetInCU: 0x234E9, offset: 0x234E9, size: 0x8, addend: 0x0, symName: __ZSt10__pop_heapIN9__gnu_cxx17__normal_iteratorIPSt4pairIfNSt7__cxx1112basic_stringIcSt11char_traitsIcESaIcEEEESt6vectorIS9_SaIS9_EEEENS0_5__ops15_Iter_comp_iterISt7greaterIvEEEEvT_SK_SK_RT0_, symObjAddr: 0x4C50, symBinAddr: 0x100008814, symSize: 0xD4 }
  - { offsetInCU: 0x2358A, offset: 0x2358A, size: 0x8, addend: 0x0, symName: __ZN9__gnu_cxxltIPSt4pairIfNSt7__cxx1112basic_stringIcSt11char_traitsIcESaIcEEEESt6vectorIS8_SaIS8_EEEEbRKNS_17__normal_iteratorIT_T0_EESI_, symObjAddr: 0x4C0C, symBinAddr: 0x1000087D0, symSize: 0x44 }
  - { offsetInCU: 0x235D7, offset: 0x235D7, size: 0x8, addend: 0x0, symName: __ZSt11__make_heapIN9__gnu_cxx17__normal_iteratorIPSt4pairIfNSt7__cxx1112basic_stringIcSt11char_traitsIcESaIcEEEESt6vectorIS9_SaIS9_EEEENS0_5__ops15_Iter_comp_iterISt7greaterIvEEEEvT_SK_RT0_, symObjAddr: 0x4AD8, symBinAddr: 0x10000869C, symSize: 0x134 }
  - { offsetInCU: 0x23692, offset: 0x23692, size: 0x8, addend: 0x0, symName: __ZSt14__relocate_a_1IPSt4pairIiS0_IiNSt7__cxx1112basic_stringIcSt11char_traitsIcESaIcEEEEES9_SaIS8_EET0_T_SC_SB_RT1_, symObjAddr: 0x4A54, symBinAddr: 0x100008618, symSize: 0x84 }
  - { offsetInCU: 0x2371B, offset: 0x2371B, size: 0x8, addend: 0x0, symName: __ZSt12__niter_baseIPSt4pairIiS0_IiNSt7__cxx1112basic_stringIcSt11char_traitsIcESaIcEEEEEET_SA_, symObjAddr: 0x4A40, symBinAddr: 0x100008604, symSize: 0x14 }
  - { offsetInCU: 0x23752, offset: 0x23752, size: 0x8, addend: 0x0, symName: __ZNSt15__new_allocatorISt4pairIiS0_IiNSt7__cxx1112basic_stringIcSt11char_traitsIcESaIcEEEEEE8allocateEmPKv, symObjAddr: 0x49B0, symBinAddr: 0x100008574, symSize: 0x90 }
  - { offsetInCU: 0x237DE, offset: 0x237DE, size: 0x8, addend: 0x0, symName: __ZNKSt12_Vector_baseISt4pairIiS0_IiNSt7__cxx1112basic_stringIcSt11char_traitsIcESaIcEEEEESaIS8_EE19_M_get_Tp_allocatorEv, symObjAddr: 0x499C, symBinAddr: 0x100008560, symSize: 0x14 }
  - { offsetInCU: 0x23804, offset: 0x23804, size: 0x8, addend: 0x0, symName: __ZNSt6vectorISt4pairIiS0_IiNSt7__cxx1112basic_stringIcSt11char_traitsIcESaIcEEEEESaIS8_EE11_S_max_sizeERKS9_, symObjAddr: 0x4940, symBinAddr: 0x100008504, symSize: 0x5C }
  - { offsetInCU: 0x238BB, offset: 0x238BB, size: 0x8, addend: 0x0, symName: __ZSt14__relocate_a_1IPSt4pairIfNSt7__cxx1112basic_stringIcSt11char_traitsIcESaIcEEEES8_SaIS7_EET0_T_SB_SA_RT1_, symObjAddr: 0x48BC, symBinAddr: 0x100008480, symSize: 0x84 }
  - { offsetInCU: 0x23944, offset: 0x23944, size: 0x8, addend: 0x0, symName: __ZSt12__niter_baseIPSt4pairIfNSt7__cxx1112basic_stringIcSt11char_traitsIcESaIcEEEEET_S9_, symObjAddr: 0x48A8, symBinAddr: 0x10000846C, symSize: 0x14 }
  - { offsetInCU: 0x2397B, offset: 0x2397B, size: 0x8, addend: 0x0, symName: __ZNSt15__new_allocatorISt4pairIfNSt7__cxx1112basic_stringIcSt11char_traitsIcESaIcEEEEE8allocateEmPKv, symObjAddr: 0x4818, symBinAddr: 0x1000083DC, symSize: 0x90 }
  - { offsetInCU: 0x23A07, offset: 0x23A07, size: 0x8, addend: 0x0, symName: __ZNKSt12_Vector_baseISt4pairIfNSt7__cxx1112basic_stringIcSt11char_traitsIcESaIcEEEESaIS7_EE19_M_get_Tp_allocatorEv, symObjAddr: 0x4804, symBinAddr: 0x1000083C8, symSize: 0x14 }
  - { offsetInCU: 0x23A2D, offset: 0x23A2D, size: 0x8, addend: 0x0, symName: __ZNSt6vectorISt4pairIfNSt7__cxx1112basic_stringIcSt11char_traitsIcESaIcEEEESaIS7_EE11_S_max_sizeERKS8_, symObjAddr: 0x47A8, symBinAddr: 0x10000836C, symSize: 0x5C }
  - { offsetInCU: 0x23AE8, offset: 0x23AE8, size: 0x8, addend: 0x0, symName: __ZNK9__gnu_cxx16__aligned_membufISt4pairIKNSt7__cxx1112basic_stringIcSt11char_traitsIcESaIcEEEiEE6_M_ptrEv, symObjAddr: 0x478C, symBinAddr: 0x100008350, symSize: 0x1C }
  - { offsetInCU: 0x23B1A, offset: 0x23B1A, size: 0x8, addend: 0x0, symName: __ZSt7forwardIRPSt13_Rb_tree_nodeISt4pairIKNSt7__cxx1112basic_stringIcSt11char_traitsIcESaIcEEEiEEEOT_RNSt16remove_referenceISD_E4typeE, symObjAddr: 0x4778, symBinAddr: 0x10000833C, symSize: 0x14 }
  - { offsetInCU: 0x23BCC, offset: 0x23BCC, size: 0x8, addend: 0x0, symName: __ZNSt15__new_allocatorISt13_Rb_tree_nodeISt4pairIKNSt7__cxx1112basic_stringIcSt11char_traitsIcESaIcEEEiEEE10deallocateEPSA_m, symObjAddr: 0x473C, symBinAddr: 0x100008300, symSize: 0x3C }
  - { offsetInCU: 0x23C3E, offset: 0x23C3E, size: 0x8, addend: 0x0, symName: __ZSt25__unguarded_linear_insertIN9__gnu_cxx17__normal_iteratorIPSt4pairIiS2_IiNSt7__cxx1112basic_stringIcSt11char_traitsIcESaIcEEEEESt6vectorISA_SaISA_EEEENS0_5__ops14_Val_comp_iterISt7greaterIvEEEEvT_T0_, symObjAddr: 0x4668, symBinAddr: 0x10000822C, symSize: 0xD4 }
  - { offsetInCU: 0x23CB3, offset: 0x23CB3, size: 0x8, addend: 0x0, symName: __ZNSt4pairIiS_IiNSt7__cxx1112basic_stringIcSt11char_traitsIcESaIcEEEEEaSEOS7_, symObjAddr: 0x461C, symBinAddr: 0x1000081E0, symSize: 0x4C }
  - { offsetInCU: 0x23CEA, offset: 0x23CEA, size: 0x8, addend: 0x0, symName: __ZSt13move_backwardIN9__gnu_cxx17__normal_iteratorIPSt4pairIiS2_IiNSt7__cxx1112basic_stringIcSt11char_traitsIcESaIcEEEEESt6vectorISA_SaISA_EEEESF_ET0_T_SH_SG_, symObjAddr: 0x45D4, symBinAddr: 0x100008198, symSize: 0x48 }
  - { offsetInCU: 0x23D4C, offset: 0x23D4C, size: 0x8, addend: 0x0, symName: __ZN9__gnu_cxx5__ops15_Iter_comp_iterISt7greaterIvEEclINS_17__normal_iteratorIPSt4pairIiS7_IiNSt7__cxx1112basic_stringIcSt11char_traitsIcESaIcEEEEESt6vectorISF_SaISF_EEEESK_EEbT_T0_, symObjAddr: 0x4588, symBinAddr: 0x10000814C, symSize: 0x4C }
  - { offsetInCU: 0x23DA4, offset: 0x23DA4, size: 0x8, addend: 0x0, symName: __ZN9__gnu_cxxeqIPSt4pairIiS1_IiNSt7__cxx1112basic_stringIcSt11char_traitsIcESaIcEEEEESt6vectorIS9_SaIS9_EEEEbRKNS_17__normal_iteratorIT_T0_EESJ_, symObjAddr: 0x4544, symBinAddr: 0x100008108, symSize: 0x44 }
  - { offsetInCU: 0x23DF1, offset: 0x23DF1, size: 0x8, addend: 0x0, symName: __ZSt21__unguarded_partitionIN9__gnu_cxx17__normal_iteratorIPSt4pairIiS2_IiNSt7__cxx1112basic_stringIcSt11char_traitsIcESaIcEEEEESt6vectorISA_SaISA_EEEENS0_5__ops15_Iter_comp_iterISt7greaterIvEEEET_SL_SL_SL_T0_, symObjAddr: 0x448C, symBinAddr: 0x100008050, symSize: 0xB8 }
  - { offsetInCU: 0x23E60, offset: 0x23E60, size: 0x8, addend: 0x0, symName: __ZSt22__move_median_to_firstIN9__gnu_cxx17__normal_iteratorIPSt4pairIiS2_IiNSt7__cxx1112basic_stringIcSt11char_traitsIcESaIcEEEEESt6vectorISA_SaISA_EEEENS0_5__ops15_Iter_comp_iterISt7greaterIvEEEEvT_SL_SL_SL_T0_, symObjAddr: 0x437C, symBinAddr: 0x100007F40, symSize: 0x110 }
  - { offsetInCU: 0x23EDB, offset: 0x23EDB, size: 0x8, addend: 0x0, symName: __ZSt11__sort_heapIN9__gnu_cxx17__normal_iteratorIPSt4pairIiS2_IiNSt7__cxx1112basic_stringIcSt11char_traitsIcESaIcEEEEESt6vectorISA_SaISA_EEEENS0_5__ops15_Iter_comp_iterISt7greaterIvEEEEvT_SL_RT0_, symObjAddr: 0x4314, symBinAddr: 0x100007ED8, symSize: 0x68 }
  - { offsetInCU: 0x23F39, offset: 0x23F39, size: 0x8, addend: 0x0, symName: __ZSt13__heap_selectIN9__gnu_cxx17__normal_iteratorIPSt4pairIiS2_IiNSt7__cxx1112basic_stringIcSt11char_traitsIcESaIcEEEEESt6vectorISA_SaISA_EEEENS0_5__ops15_Iter_comp_iterISt7greaterIvEEEEvT_SL_SL_T0_, symObjAddr: 0x4278, symBinAddr: 0x100007E3C, symSize: 0x9C }
  - { offsetInCU: 0x23FCC, offset: 0x23FCC, size: 0x8, addend: 0x0, symName: __ZSt25__unguarded_linear_insertIN9__gnu_cxx17__normal_iteratorIPSt4pairIfNSt7__cxx1112basic_stringIcSt11char_traitsIcESaIcEEEESt6vectorIS9_SaIS9_EEEENS0_5__ops14_Val_comp_iterISt7greaterIvEEEEvT_T0_, symObjAddr: 0x41A4, symBinAddr: 0x100007D68, symSize: 0xD4 }
  - { offsetInCU: 0x2403B, offset: 0x2403B, size: 0x8, addend: 0x0, symName: __ZN9__gnu_cxx5__ops15__val_comp_iterISt7greaterIvEEENS0_14_Val_comp_iterIT_EENS0_15_Iter_comp_iterIS5_EE, symObjAddr: 0x416C, symBinAddr: 0x100007D30, symSize: 0x38 }
  - { offsetInCU: 0x24071, offset: 0x24071, size: 0x8, addend: 0x0, symName: __ZNSt4pairIfNSt7__cxx1112basic_stringIcSt11char_traitsIcESaIcEEEEaSEOS6_, symObjAddr: 0x4120, symBinAddr: 0x100007CE4, symSize: 0x4C }
  - { offsetInCU: 0x240A8, offset: 0x240A8, size: 0x8, addend: 0x0, symName: __ZSt13move_backwardIN9__gnu_cxx17__normal_iteratorIPSt4pairIfNSt7__cxx1112basic_stringIcSt11char_traitsIcESaIcEEEESt6vectorIS9_SaIS9_EEEESE_ET0_T_SG_SF_, symObjAddr: 0x40D8, symBinAddr: 0x100007C9C, symSize: 0x48 }
  - { offsetInCU: 0x2410A, offset: 0x2410A, size: 0x8, addend: 0x0, symName: __ZN9__gnu_cxx5__ops15_Iter_comp_iterISt7greaterIvEEclINS_17__normal_iteratorIPSt4pairIfNSt7__cxx1112basic_stringIcSt11char_traitsIcESaIcEEEESt6vectorISE_SaISE_EEEESJ_EEbT_T0_, symObjAddr: 0x408C, symBinAddr: 0x100007C50, symSize: 0x4C }
  - { offsetInCU: 0x24166, offset: 0x24166, size: 0x8, addend: 0x0, symName: __ZN9__gnu_cxx17__normal_iteratorIPSt4pairIfNSt7__cxx1112basic_stringIcSt11char_traitsIcESaIcEEEESt6vectorIS8_SaIS8_EEEppEv, symObjAddr: 0x4064, symBinAddr: 0x100007C28, symSize: 0x28 }
  - { offsetInCU: 0x2418C, offset: 0x2418C, size: 0x8, addend: 0x0, symName: __ZN9__gnu_cxxeqIPSt4pairIfNSt7__cxx1112basic_stringIcSt11char_traitsIcESaIcEEEESt6vectorIS8_SaIS8_EEEEbRKNS_17__normal_iteratorIT_T0_EESI_, symObjAddr: 0x4020, symBinAddr: 0x100007BE4, symSize: 0x44 }
  - { offsetInCU: 0x241D9, offset: 0x241D9, size: 0x8, addend: 0x0, symName: __ZSt21__unguarded_partitionIN9__gnu_cxx17__normal_iteratorIPSt4pairIfNSt7__cxx1112basic_stringIcSt11char_traitsIcESaIcEEEESt6vectorIS9_SaIS9_EEEENS0_5__ops15_Iter_comp_iterISt7greaterIvEEEET_SK_SK_SK_T0_, symObjAddr: 0x3F68, symBinAddr: 0x100007B2C, symSize: 0xB8 }
  - { offsetInCU: 0x24248, offset: 0x24248, size: 0x8, addend: 0x0, symName: __ZSt22__move_median_to_firstIN9__gnu_cxx17__normal_iteratorIPSt4pairIfNSt7__cxx1112basic_stringIcSt11char_traitsIcESaIcEEEESt6vectorIS9_SaIS9_EEEENS0_5__ops15_Iter_comp_iterISt7greaterIvEEEEvT_SK_SK_SK_T0_, symObjAddr: 0x3E58, symBinAddr: 0x100007A1C, symSize: 0x110 }
  - { offsetInCU: 0x242C3, offset: 0x242C3, size: 0x8, addend: 0x0, symName: __ZSt11__sort_heapIN9__gnu_cxx17__normal_iteratorIPSt4pairIfNSt7__cxx1112basic_stringIcSt11char_traitsIcESaIcEEEESt6vectorIS9_SaIS9_EEEENS0_5__ops15_Iter_comp_iterISt7greaterIvEEEEvT_SK_RT0_, symObjAddr: 0x3DF0, symBinAddr: 0x1000079B4, symSize: 0x68 }
  - { offsetInCU: 0x24321, offset: 0x24321, size: 0x8, addend: 0x0, symName: __ZSt13__heap_selectIN9__gnu_cxx17__normal_iteratorIPSt4pairIfNSt7__cxx1112basic_stringIcSt11char_traitsIcESaIcEEEESt6vectorIS9_SaIS9_EEEENS0_5__ops15_Iter_comp_iterISt7greaterIvEEEEvT_SK_SK_T0_, symObjAddr: 0x3D54, symBinAddr: 0x100007918, symSize: 0x9C }
  - { offsetInCU: 0x243B4, offset: 0x243B4, size: 0x8, addend: 0x0, symName: __ZSt12__relocate_aIPSt4pairIiS0_IiNSt7__cxx1112basic_stringIcSt11char_traitsIcESaIcEEEEES9_SaIS8_EET0_T_SC_SB_RT1_, symObjAddr: 0x3CF8, symBinAddr: 0x1000078BC, symSize: 0x5C }
  - { offsetInCU: 0x24454, offset: 0x24454, size: 0x8, addend: 0x0, symName: __ZNKSt6vectorISt4pairIiS0_IiNSt7__cxx1112basic_stringIcSt11char_traitsIcESaIcEEEEESaIS8_EE8max_sizeEv, symObjAddr: 0x3CD8, symBinAddr: 0x10000789C, symSize: 0x20 }
  - { offsetInCU: 0x2447A, offset: 0x2447A, size: 0x8, addend: 0x0, symName: __ZSt12__relocate_aIPSt4pairIfNSt7__cxx1112basic_stringIcSt11char_traitsIcESaIcEEEES8_SaIS7_EET0_T_SB_SA_RT1_, symObjAddr: 0x3C7C, symBinAddr: 0x100007840, symSize: 0x5C }
  - { offsetInCU: 0x2451A, offset: 0x2451A, size: 0x8, addend: 0x0, symName: __ZNKSt6vectorISt4pairIfNSt7__cxx1112basic_stringIcSt11char_traitsIcESaIcEEEESaIS7_EE4sizeEv, symObjAddr: 0x3C48, symBinAddr: 0x10000780C, symSize: 0x34 }
  - { offsetInCU: 0x24544, offset: 0x24544, size: 0x8, addend: 0x0, symName: __ZNKSt6vectorISt4pairIfNSt7__cxx1112basic_stringIcSt11char_traitsIcESaIcEEEESaIS7_EE8max_sizeEv, symObjAddr: 0x3C28, symBinAddr: 0x1000077EC, symSize: 0x20 }
  - { offsetInCU: 0x2456E, offset: 0x2456E, size: 0x8, addend: 0x0, symName: __ZNKSt10_Select1stISt4pairIKNSt7__cxx1112basic_stringIcSt11char_traitsIcESaIcEEEiEEclERKS8_, symObjAddr: 0x3C10, symBinAddr: 0x1000077D4, symSize: 0x18 }
  - { offsetInCU: 0x245A9, offset: 0x245A9, size: 0x8, addend: 0x0, symName: __ZNKSt13_Rb_tree_nodeISt4pairIKNSt7__cxx1112basic_stringIcSt11char_traitsIcESaIcEEEiEE9_M_valptrEv, symObjAddr: 0x3BF0, symBinAddr: 0x1000077B4, symSize: 0x20 }
  - { offsetInCU: 0x245D5, offset: 0x245D5, size: 0x8, addend: 0x0, symName: __ZSt7forwardIRPSt18_Rb_tree_node_baseEOT_RNSt16remove_referenceIS3_E4typeE, symObjAddr: 0x3BDC, symBinAddr: 0x1000077A0, symSize: 0x14 }
  - { offsetInCU: 0x246D9, offset: 0x246D9, size: 0x8, addend: 0x0, symName: __ZNSt4pairIPSt18_Rb_tree_node_baseS1_EC1IRPSt13_Rb_tree_nodeIS_IKNSt7__cxx1112basic_stringIcSt11char_traitsIcESaIcEEEiEERS1_Lb1EEEOT_OT0_, symObjAddr: 0x3B94, symBinAddr: 0x100007758, symSize: 0x48 }
  - { offsetInCU: 0x2469D, offset: 0x2469D, size: 0x8, addend: 0x0, symName: __ZNSt8_Rb_treeINSt7__cxx1112basic_stringIcSt11char_traitsIcESaIcEEESt4pairIKS5_iESt10_Select1stIS8_ESt4lessIS5_ESaIS8_EE17_M_construct_nodeIJRKSt21piecewise_construct_tSt5tupleIJRS7_EESJ_IJEEEEEvPSt13_Rb_tree_nodeIS8_EDpOT_, symObjAddr: 0x3A18, symBinAddr: 0x1000075DC, symSize: 0x17C }
  - { offsetInCU: 0x2479E, offset: 0x2479E, size: 0x8, addend: 0x0, symName: __ZNSt8_Rb_treeINSt7__cxx1112basic_stringIcSt11char_traitsIcESaIcEEESt4pairIKS5_iESt10_Select1stIS8_ESt4lessIS5_ESaIS8_EE11_M_get_nodeEv, symObjAddr: 0x39DC, symBinAddr: 0x1000075A0, symSize: 0x3C }
  - { offsetInCU: 0x24854, offset: 0x24854, size: 0x8, addend: 0x0, symName: __ZNSt8_Rb_treeINSt7__cxx1112basic_stringIcSt11char_traitsIcESaIcEEESt4pairIKS5_iESt10_Select1stIS8_ESt4lessIS5_ESaIS8_EE21_M_get_Node_allocatorEv, symObjAddr: 0x39C8, symBinAddr: 0x10000758C, symSize: 0x14 }
  - { offsetInCU: 0x2487A, offset: 0x2487A, size: 0x8, addend: 0x0, symName: __ZSt26__unguarded_insertion_sortIN9__gnu_cxx17__normal_iteratorIPSt4pairIiS2_IiNSt7__cxx1112basic_stringIcSt11char_traitsIcESaIcEEEEESt6vectorISA_SaISA_EEEENS0_5__ops15_Iter_comp_iterISt7greaterIvEEEEvT_SL_T0_, symObjAddr: 0x395C, symBinAddr: 0x100007520, symSize: 0x6C }
  - { offsetInCU: 0x248FC, offset: 0x248FC, size: 0x8, addend: 0x0, symName: __ZSt16__insertion_sortIN9__gnu_cxx17__normal_iteratorIPSt4pairIiS2_IiNSt7__cxx1112basic_stringIcSt11char_traitsIcESaIcEEEEESt6vectorISA_SaISA_EEEENS0_5__ops15_Iter_comp_iterISt7greaterIvEEEEvT_SL_T0_, symObjAddr: 0x3844, symBinAddr: 0x100007408, symSize: 0x118 }
  - { offsetInCU: 0x24991, offset: 0x24991, size: 0x8, addend: 0x0, symName: __ZNK9__gnu_cxx17__normal_iteratorIPSt4pairIiS1_IiNSt7__cxx1112basic_stringIcSt11char_traitsIcESaIcEEEEESt6vectorIS9_SaIS9_EEEplEl, symObjAddr: 0x37F8, symBinAddr: 0x1000073BC, symSize: 0x4C }
  - { offsetInCU: 0x249C8, offset: 0x249C8, size: 0x8, addend: 0x0, symName: __ZSt27__unguarded_partition_pivotIN9__gnu_cxx17__normal_iteratorIPSt4pairIiS2_IiNSt7__cxx1112basic_stringIcSt11char_traitsIcESaIcEEEEESt6vectorISA_SaISA_EEEENS0_5__ops15_Iter_comp_iterISt7greaterIvEEEET_SL_SL_T0_, symObjAddr: 0x375C, symBinAddr: 0x100007320, symSize: 0x9C }
  - { offsetInCU: 0x24A37, offset: 0x24A37, size: 0x8, addend: 0x0, symName: __ZSt14__partial_sortIN9__gnu_cxx17__normal_iteratorIPSt4pairIiS2_IiNSt7__cxx1112basic_stringIcSt11char_traitsIcESaIcEEEEESt6vectorISA_SaISA_EEEENS0_5__ops15_Iter_comp_iterISt7greaterIvEEEEvT_SL_SL_T0_, symObjAddr: 0x3710, symBinAddr: 0x1000072D4, symSize: 0x4C }
  - { offsetInCU: 0x24AA6, offset: 0x24AA6, size: 0x8, addend: 0x0, symName: __ZSt26__unguarded_insertion_sortIN9__gnu_cxx17__normal_iteratorIPSt4pairIfNSt7__cxx1112basic_stringIcSt11char_traitsIcESaIcEEEESt6vectorIS9_SaIS9_EEEENS0_5__ops15_Iter_comp_iterISt7greaterIvEEEEvT_SK_T0_, symObjAddr: 0x36A4, symBinAddr: 0x100007268, symSize: 0x6C }
  - { offsetInCU: 0x24B28, offset: 0x24B28, size: 0x8, addend: 0x0, symName: __ZSt16__insertion_sortIN9__gnu_cxx17__normal_iteratorIPSt4pairIfNSt7__cxx1112basic_stringIcSt11char_traitsIcESaIcEEEESt6vectorIS9_SaIS9_EEEENS0_5__ops15_Iter_comp_iterISt7greaterIvEEEEvT_SK_T0_, symObjAddr: 0x358C, symBinAddr: 0x100007150, symSize: 0x118 }
  - { offsetInCU: 0x24BBB, offset: 0x24BBB, size: 0x8, addend: 0x0, symName: __ZNK9__gnu_cxx17__normal_iteratorIPSt4pairIfNSt7__cxx1112basic_stringIcSt11char_traitsIcESaIcEEEESt6vectorIS8_SaIS8_EEEplEl, symObjAddr: 0x3540, symBinAddr: 0x100007104, symSize: 0x4C }
  - { offsetInCU: 0x24BF2, offset: 0x24BF2, size: 0x8, addend: 0x0, symName: __ZSt27__unguarded_partition_pivotIN9__gnu_cxx17__normal_iteratorIPSt4pairIfNSt7__cxx1112basic_stringIcSt11char_traitsIcESaIcEEEESt6vectorIS9_SaIS9_EEEENS0_5__ops15_Iter_comp_iterISt7greaterIvEEEET_SK_SK_T0_, symObjAddr: 0x34A4, symBinAddr: 0x100007068, symSize: 0x9C }
  - { offsetInCU: 0x24C61, offset: 0x24C61, size: 0x8, addend: 0x0, symName: __ZSt14__partial_sortIN9__gnu_cxx17__normal_iteratorIPSt4pairIfNSt7__cxx1112basic_stringIcSt11char_traitsIcESaIcEEEESt6vectorIS9_SaIS9_EEEENS0_5__ops15_Iter_comp_iterISt7greaterIvEEEEvT_SK_SK_T0_, symObjAddr: 0x3458, symBinAddr: 0x10000701C, symSize: 0x4C }
  - { offsetInCU: 0x24CD4, offset: 0x24CD4, size: 0x8, addend: 0x0, symName: __ZNK9__gnu_cxx17__normal_iteratorIPSt4pairIfNSt7__cxx1112basic_stringIcSt11char_traitsIcESaIcEEEESt6vectorIS8_SaIS8_EEE4baseEv, symObjAddr: 0x3444, symBinAddr: 0x100007008, symSize: 0x14 }
  - { offsetInCU: 0x24CFE, offset: 0x24CFE, size: 0x8, addend: 0x0, symName: __ZNK9__gnu_cxx17__normal_iteratorIPSt4pairIiS1_IiNSt7__cxx1112basic_stringIcSt11char_traitsIcESaIcEEEEESt6vectorIS9_SaIS9_EEEmiEl, symObjAddr: 0x33F4, symBinAddr: 0x100006FB8, symSize: 0x50 }
  - { offsetInCU: 0x24D39, offset: 0x24D39, size: 0x8, addend: 0x0, symName: __ZNSt12_Vector_baseISt4pairIiS0_IiNSt7__cxx1112basic_stringIcSt11char_traitsIcESaIcEEEEESaIS8_EE19_M_get_Tp_allocatorEv, symObjAddr: 0x33E0, symBinAddr: 0x100006FA4, symSize: 0x14 }
  - { offsetInCU: 0x24D5F, offset: 0x24D5F, size: 0x8, addend: 0x0, symName: __ZNSt6vectorISt4pairIiS0_IiNSt7__cxx1112basic_stringIcSt11char_traitsIcESaIcEEEEESaIS8_EE11_S_relocateEPS8_SB_SB_RS9_, symObjAddr: 0x33AC, symBinAddr: 0x100006F70, symSize: 0x34 }
  - { offsetInCU: 0x24DBC, offset: 0x24DBC, size: 0x8, addend: 0x0, symName: __ZSt12__to_addressISt4pairIiS0_IiNSt7__cxx1112basic_stringIcSt11char_traitsIcESaIcEEEEEEPT_SA_, symObjAddr: 0x3398, symBinAddr: 0x100006F5C, symSize: 0x14 }
  - { offsetInCU: 0x24DF2, offset: 0x24DF2, size: 0x8, addend: 0x0, symName: __ZNSt12_Vector_baseISt4pairIiS0_IiNSt7__cxx1112basic_stringIcSt11char_traitsIcESaIcEEEEESaIS8_EE11_M_allocateEm, symObjAddr: 0x3348, symBinAddr: 0x100006F0C, symSize: 0x50 }
  - { offsetInCU: 0x24E5A, offset: 0x24E5A, size: 0x8, addend: 0x0, symName: __ZNKSt6vectorISt4pairIiS0_IiNSt7__cxx1112basic_stringIcSt11char_traitsIcESaIcEEEEESaIS8_EE12_M_check_lenEmPKc, symObjAddr: 0x3278, symBinAddr: 0x100006E3C, symSize: 0xD0 }
  - { offsetInCU: 0x24F62, offset: 0x24F62, size: 0x8, addend: 0x0, symName: __ZNSt4pairIiS_IiNSt7__cxx1112basic_stringIcSt11char_traitsIcESaIcEEEEEC1EOS7_, symObjAddr: 0x3230, symBinAddr: 0x100006DF4, symSize: 0x48 }
  - { offsetInCU: 0x24FAB, offset: 0x24FAB, size: 0x8, addend: 0x0, symName: __ZNSt4pairIiNSt7__cxx1112basic_stringIcSt11char_traitsIcESaIcEEEEC1EOS6_, symObjAddr: 0x31E8, symBinAddr: 0x100006DAC, symSize: 0x48 }
  - { offsetInCU: 0x24F95, offset: 0x24F95, size: 0x8, addend: 0x0, symName: __ZNK9__gnu_cxx17__normal_iteratorIPSt4pairIfNSt7__cxx1112basic_stringIcSt11char_traitsIcESaIcEEEESt6vectorIS8_SaIS8_EEEdeEv, symObjAddr: 0x31D0, symBinAddr: 0x100006D94, symSize: 0x18 }
  - { offsetInCU: 0x24FBF, offset: 0x24FBF, size: 0x8, addend: 0x0, symName: __ZNK9__gnu_cxx17__normal_iteratorIPSt4pairIfNSt7__cxx1112basic_stringIcSt11char_traitsIcESaIcEEEESt6vectorIS8_SaIS8_EEEmiEl, symObjAddr: 0x3180, symBinAddr: 0x100006D44, symSize: 0x50 }
  - { offsetInCU: 0x24FFA, offset: 0x24FFA, size: 0x8, addend: 0x0, symName: __ZNSt12_Vector_baseISt4pairIfNSt7__cxx1112basic_stringIcSt11char_traitsIcESaIcEEEESaIS7_EE19_M_get_Tp_allocatorEv, symObjAddr: 0x316C, symBinAddr: 0x100006D30, symSize: 0x14 }
  - { offsetInCU: 0x25020, offset: 0x25020, size: 0x8, addend: 0x0, symName: __ZNSt6vectorISt4pairIfNSt7__cxx1112basic_stringIcSt11char_traitsIcESaIcEEEESaIS7_EE11_S_relocateEPS7_SA_SA_RS8_, symObjAddr: 0x3138, symBinAddr: 0x100006CFC, symSize: 0x34 }
  - { offsetInCU: 0x2507D, offset: 0x2507D, size: 0x8, addend: 0x0, symName: __ZSt12__to_addressISt4pairIfNSt7__cxx1112basic_stringIcSt11char_traitsIcESaIcEEEEEPT_S9_, symObjAddr: 0x3124, symBinAddr: 0x100006CE8, symSize: 0x14 }
  - { offsetInCU: 0x250B3, offset: 0x250B3, size: 0x8, addend: 0x0, symName: __ZNSt12_Vector_baseISt4pairIfNSt7__cxx1112basic_stringIcSt11char_traitsIcESaIcEEEESaIS7_EE11_M_allocateEm, symObjAddr: 0x30D4, symBinAddr: 0x100006C98, symSize: 0x50 }
  - { offsetInCU: 0x2511B, offset: 0x2511B, size: 0x8, addend: 0x0, symName: __ZNKSt6vectorISt4pairIfNSt7__cxx1112basic_stringIcSt11char_traitsIcESaIcEEEESaIS7_EE12_M_check_lenEmPKc, symObjAddr: 0x3004, symBinAddr: 0x100006BC8, symSize: 0xD0 }
  - { offsetInCU: 0x2521E, offset: 0x2521E, size: 0x8, addend: 0x0, symName: __ZNSt4pairIfNSt7__cxx1112basic_stringIcSt11char_traitsIcESaIcEEEEC1EOS6_, symObjAddr: 0x2FBC, symBinAddr: 0x100006B80, symSize: 0x48 }
  - { offsetInCU: 0x2520D, offset: 0x2520D, size: 0x8, addend: 0x0, symName: __ZN9__gnu_cxx16__aligned_membufISt4pairIKNSt7__cxx1112basic_stringIcSt11char_traitsIcESaIcEEEiEE7_M_addrEv, symObjAddr: 0x2FA8, symBinAddr: 0x100006B6C, symSize: 0x14 }
  - { offsetInCU: 0x25236, offset: 0x25236, size: 0x8, addend: 0x0, symName: __ZNSt8_Rb_treeINSt7__cxx1112basic_stringIcSt11char_traitsIcESaIcEEESt4pairIKS5_iESt10_Select1stIS8_ESt4lessIS5_ESaIS8_EE14_M_insert_nodeEPSt18_Rb_tree_node_baseSG_PSt13_Rb_tree_nodeIS8_E, symObjAddr: 0x2ED8, symBinAddr: 0x100006A9C, symSize: 0xD0 }
  - { offsetInCU: 0x252A0, offset: 0x252A0, size: 0x8, addend: 0x0, symName: __ZNSt8_Rb_treeINSt7__cxx1112basic_stringIcSt11char_traitsIcESaIcEEESt4pairIKS5_iESt10_Select1stIS8_ESt4lessIS5_ESaIS8_EE6_S_keyEPKSt13_Rb_tree_nodeIS8_E, symObjAddr: 0x2EB0, symBinAddr: 0x100006A74, symSize: 0x28 }
  - { offsetInCU: 0x252CE, offset: 0x252CE, size: 0x8, addend: 0x0, symName: __ZNSt17_Rb_tree_iteratorISt4pairIKNSt7__cxx1112basic_stringIcSt11char_traitsIcESaIcEEEiEEmmEv, symObjAddr: 0x2E80, symBinAddr: 0x100006A44, symSize: 0x30 }
  - { offsetInCU: 0x2537A, offset: 0x2537A, size: 0x8, addend: 0x0, symName: __ZNSt4pairIPSt18_Rb_tree_node_baseS1_EC1IRS1_S4_Lb1EEEOT_OT0_, symObjAddr: 0x2E38, symBinAddr: 0x1000069FC, symSize: 0x48 }
  - { offsetInCU: 0x2538A, offset: 0x2538A, size: 0x8, addend: 0x0, symName: __ZNSt8_Rb_treeINSt7__cxx1112basic_stringIcSt11char_traitsIcESaIcEEESt4pairIKS5_iESt10_Select1stIS8_ESt4lessIS5_ESaIS8_EE11_M_leftmostEv, symObjAddr: 0x2E20, symBinAddr: 0x1000069E4, symSize: 0x18 }
  - { offsetInCU: 0x253B4, offset: 0x253B4, size: 0x8, addend: 0x0, symName: __ZNSt8_Rb_treeINSt7__cxx1112basic_stringIcSt11char_traitsIcESaIcEEESt4pairIKS5_iESt10_Select1stIS8_ESt4lessIS5_ESaIS8_EE24_M_get_insert_unique_posERS7_, symObjAddr: 0x2CC8, symBinAddr: 0x10000688C, symSize: 0x158 }
  - { offsetInCU: 0x254BA, offset: 0x254BA, size: 0x8, addend: 0x0, symName: __ZNSt4pairIPSt18_Rb_tree_node_baseS1_EC1IS1_S1_Lb1EEERKS1_S5_, symObjAddr: 0x2C8C, symBinAddr: 0x100006850, symSize: 0x3C }
  - { offsetInCU: 0x254C6, offset: 0x254C6, size: 0x8, addend: 0x0, symName: __ZNSt8_Rb_treeINSt7__cxx1112basic_stringIcSt11char_traitsIcESaIcEEESt4pairIKS5_iESt10_Select1stIS8_ESt4lessIS5_ESaIS8_EE6_S_keyEPKSt18_Rb_tree_node_base, symObjAddr: 0x2C70, symBinAddr: 0x100006834, symSize: 0x1C }
  - { offsetInCU: 0x254F4, offset: 0x254F4, size: 0x8, addend: 0x0, symName: __ZNSt8_Rb_treeINSt7__cxx1112basic_stringIcSt11char_traitsIcESaIcEEESt4pairIKS5_iESt10_Select1stIS8_ESt4lessIS5_ESaIS8_EE12_M_rightmostEv, symObjAddr: 0x2C58, symBinAddr: 0x10000681C, symSize: 0x18 }
  - { offsetInCU: 0x2551E, offset: 0x2551E, size: 0x8, addend: 0x0, symName: __ZNKSt8_Rb_treeINSt7__cxx1112basic_stringIcSt11char_traitsIcESaIcEEESt4pairIKS5_iESt10_Select1stIS8_ESt4lessIS5_ESaIS8_EE4sizeEv, symObjAddr: 0x2C40, symBinAddr: 0x100006804, symSize: 0x18 }
  - { offsetInCU: 0x25548, offset: 0x25548, size: 0x8, addend: 0x0, symName: __ZNKSt23_Rb_tree_const_iteratorISt4pairIKNSt7__cxx1112basic_stringIcSt11char_traitsIcESaIcEEEiEE13_M_const_castEv, symObjAddr: 0x2C18, symBinAddr: 0x1000067DC, symSize: 0x28 }
  - { offsetInCU: 0x25572, offset: 0x25572, size: 0x8, addend: 0x0, symName: __ZNSt8_Rb_treeINSt7__cxx1112basic_stringIcSt11char_traitsIcESaIcEEESt4pairIKS5_iESt10_Select1stIS8_ESt4lessIS5_ESaIS8_EE14_M_create_nodeIJRKSt21piecewise_construct_tSt5tupleIJRS7_EESJ_IJEEEEEPSt13_Rb_tree_nodeIS8_EDpOT_, symObjAddr: 0x2BA8, symBinAddr: 0x10000676C, symSize: 0x70 }
  - { offsetInCU: 0x2565F, offset: 0x2565F, size: 0x8, addend: 0x0, symName: __ZNSt10_Head_baseILm0ERKNSt7__cxx1112basic_stringIcSt11char_traitsIcESaIcEEELb0EEC2ES7_, symObjAddr: 0x2B84, symBinAddr: 0x100006748, symSize: 0x24 }
  - { offsetInCU: 0x2563A, offset: 0x2563A, size: 0x8, addend: 0x0, symName: __ZNSt8_Rb_treeINSt7__cxx1112basic_stringIcSt11char_traitsIcESaIcEEESt4pairIKS5_iESt10_Select1stIS8_ESt4lessIS5_ESaIS8_EE14_M_lower_boundEPSt13_Rb_tree_nodeIS8_EPSt18_Rb_tree_node_baseRS7_, symObjAddr: 0x2AE8, symBinAddr: 0x1000066AC, symSize: 0x9C }
  - { offsetInCU: 0x25697, offset: 0x25697, size: 0x8, addend: 0x0, symName: __ZNSt8_Rb_treeINSt7__cxx1112basic_stringIcSt11char_traitsIcESaIcEEESt4pairIKS5_iESt10_Select1stIS8_ESt4lessIS5_ESaIS8_EE6_M_endEv, symObjAddr: 0x2AD0, symBinAddr: 0x100006694, symSize: 0x18 }
  - { offsetInCU: 0x256C1, offset: 0x256C1, size: 0x8, addend: 0x0, symName: __ZNSt15__new_allocatorISt4pairIiS0_IiNSt7__cxx1112basic_stringIcSt11char_traitsIcESaIcEEEEEE10deallocateEPS8_m, symObjAddr: 0x2A94, symBinAddr: 0x100006658, symSize: 0x3C }
  - { offsetInCU: 0x2570B, offset: 0x2570B, size: 0x8, addend: 0x0, symName: __ZNSt15__new_allocatorISt4pairIfNSt7__cxx1112basic_stringIcSt11char_traitsIcESaIcEEEEE10deallocateEPS7_m, symObjAddr: 0x2A58, symBinAddr: 0x10000661C, symSize: 0x3C }
  - { offsetInCU: 0x25755, offset: 0x25755, size: 0x8, addend: 0x0, symName: __ZNSt8_Rb_treeINSt7__cxx1112basic_stringIcSt11char_traitsIcESaIcEEESt4pairIKS5_iESt10_Select1stIS8_ESt4lessIS5_ESaIS8_EE11_M_put_nodeEPSt13_Rb_tree_nodeIS8_E, symObjAddr: 0x2A0C, symBinAddr: 0x1000065D0, symSize: 0x4C }
  - { offsetInCU: 0x257C6, offset: 0x257C6, size: 0x8, addend: 0x0, symName: __ZNSt8_Rb_treeINSt7__cxx1112basic_stringIcSt11char_traitsIcESaIcEEESt4pairIKS5_iESt10_Select1stIS8_ESt4lessIS5_ESaIS8_EE15_M_destroy_nodeEPSt13_Rb_tree_nodeIS8_E, symObjAddr: 0x29AC, symBinAddr: 0x100006570, symSize: 0x60 }
  - { offsetInCU: 0x25857, offset: 0x25857, size: 0x8, addend: 0x0, symName: __ZSt13__countl_zeroImEiT_, symObjAddr: 0x2958, symBinAddr: 0x10000651C, symSize: 0x54 }
  - { offsetInCU: 0x258EC, offset: 0x258EC, size: 0x8, addend: 0x0, symName: __ZSt22__final_insertion_sortIN9__gnu_cxx17__normal_iteratorIPSt4pairIiS2_IiNSt7__cxx1112basic_stringIcSt11char_traitsIcESaIcEEEEESt6vectorISA_SaISA_EEEENS0_5__ops15_Iter_comp_iterISt7greaterIvEEEEvT_SL_T0_, symObjAddr: 0x28CC, symBinAddr: 0x100006490, symSize: 0x8C }
  - { offsetInCU: 0x2594A, offset: 0x2594A, size: 0x8, addend: 0x0, symName: __ZSt16__introsort_loopIN9__gnu_cxx17__normal_iteratorIPSt4pairIiS2_IiNSt7__cxx1112basic_stringIcSt11char_traitsIcESaIcEEEEESt6vectorISA_SaISA_EEEElNS0_5__ops15_Iter_comp_iterISt7greaterIvEEEEvT_SL_T0_T1_, symObjAddr: 0x2824, symBinAddr: 0x1000063E8, symSize: 0xA8 }
  - { offsetInCU: 0x259E6, offset: 0x259E6, size: 0x8, addend: 0x0, symName: __ZN9__gnu_cxxmiIPSt4pairIiS1_IiNSt7__cxx1112basic_stringIcSt11char_traitsIcESaIcEEEEESt6vectorIS9_SaIS9_EEEENS_17__normal_iteratorIT_T0_E15difference_typeERKSH_SK_, symObjAddr: 0x27D8, symBinAddr: 0x10000639C, symSize: 0x4C }
  - { offsetInCU: 0x25A33, offset: 0x25A33, size: 0x8, addend: 0x0, symName: __ZSt22__final_insertion_sortIN9__gnu_cxx17__normal_iteratorIPSt4pairIfNSt7__cxx1112basic_stringIcSt11char_traitsIcESaIcEEEESt6vectorIS9_SaIS9_EEEENS0_5__ops15_Iter_comp_iterISt7greaterIvEEEEvT_SK_T0_, symObjAddr: 0x274C, symBinAddr: 0x100006310, symSize: 0x8C }
  - { offsetInCU: 0x25A91, offset: 0x25A91, size: 0x8, addend: 0x0, symName: __ZSt16__introsort_loopIN9__gnu_cxx17__normal_iteratorIPSt4pairIfNSt7__cxx1112basic_stringIcSt11char_traitsIcESaIcEEEESt6vectorIS9_SaIS9_EEEElNS0_5__ops15_Iter_comp_iterISt7greaterIvEEEEvT_SK_T0_T1_, symObjAddr: 0x26A4, symBinAddr: 0x100006268, symSize: 0xA8 }
  - { offsetInCU: 0x25B2D, offset: 0x25B2D, size: 0x8, addend: 0x0, symName: __ZSt4__lgIlET_S0_, symObjAddr: 0x2680, symBinAddr: 0x100006244, symSize: 0x24 }
  - { offsetInCU: 0x25B60, offset: 0x25B60, size: 0x8, addend: 0x0, symName: __ZN9__gnu_cxxmiIPSt4pairIfNSt7__cxx1112basic_stringIcSt11char_traitsIcESaIcEEEESt6vectorIS8_SaIS8_EEEENS_17__normal_iteratorIT_T0_E15difference_typeERKSG_SJ_, symObjAddr: 0x2634, symBinAddr: 0x1000061F8, symSize: 0x4C }
  - { offsetInCU: 0x25BAD, offset: 0x25BAD, size: 0x8, addend: 0x0, symName: __ZN9__gnu_cxxneIPSt4pairIfNSt7__cxx1112basic_stringIcSt11char_traitsIcESaIcEEEESt6vectorIS8_SaIS8_EEEEbRKNS_17__normal_iteratorIT_T0_EESI_, symObjAddr: 0x25F0, symBinAddr: 0x1000061B4, symSize: 0x44 }
  - { offsetInCU: 0x25C5B, offset: 0x25C5B, size: 0x8, addend: 0x0, symName: __ZN9__gnu_cxx5__ops15_Iter_comp_iterISt7greaterIvEEC1ES3_, symObjAddr: 0x25CC, symBinAddr: 0x100006190, symSize: 0x24 }
  - { offsetInCU: 0x25C5D, offset: 0x25C5D, size: 0x8, addend: 0x0, symName: __ZSt4moveIRSt7greaterIvEEONSt16remove_referenceIT_E4typeEOS4_, symObjAddr: 0x25B8, symBinAddr: 0x10000617C, symSize: 0x14 }
  - { offsetInCU: 0x25C93, offset: 0x25C93, size: 0x8, addend: 0x0, symName: __ZNSt6vectorISt4pairIiS0_IiNSt7__cxx1112basic_stringIcSt11char_traitsIcESaIcEEEEESaIS8_EE4backEv, symObjAddr: 0x2580, symBinAddr: 0x100006144, symSize: 0x38 }
  - { offsetInCU: 0x25CBD, offset: 0x25CBD, size: 0x8, addend: 0x0, symName: __ZNSt6vectorISt4pairIiS0_IiNSt7__cxx1112basic_stringIcSt11char_traitsIcESaIcEEEEESaIS8_EE17_M_realloc_appendIJS8_EEEvDpOT_, symObjAddr: 0x2394, symBinAddr: 0x100005F58, symSize: 0x1EC }
  - { offsetInCU: 0x25ECE, offset: 0x25ECE, size: 0x8, addend: 0x0, symName: __ZZNSt6vectorISt4pairIiS0_IiNSt7__cxx1112basic_stringIcSt11char_traitsIcESaIcEEEEESaIS8_EE17_M_realloc_appendIJS8_EEEvDpOT_EN6_GuardC1EPS8_mRS9_, symObjAddr: 0x22F0, symBinAddr: 0x100005EB4, symSize: 0x44 }
  - { offsetInCU: 0x25F0C, offset: 0x25F0C, size: 0x8, addend: 0x0, symName: __ZZNSt6vectorISt4pairIiS0_IiNSt7__cxx1112basic_stringIcSt11char_traitsIcESaIcEEEEESaIS8_EE17_M_realloc_appendIJS8_EEEvDpOT_EN6_GuardD1Ev, symObjAddr: 0x2334, symBinAddr: 0x100005EF8, symSize: 0x60 }
  - { offsetInCU: 0x25FBF, offset: 0x25FBF, size: 0x8, addend: 0x0, symName: __ZSt7forwardISt4pairIiS0_IiNSt7__cxx1112basic_stringIcSt11char_traitsIcESaIcEEEEEEOT_RNSt16remove_referenceIS9_E4typeE, symObjAddr: 0x22DC, symBinAddr: 0x100005EA0, symSize: 0x14 }
  - { offsetInCU: 0x25FF5, offset: 0x25FF5, size: 0x8, addend: 0x0, symName: __ZNSt6vectorISt4pairIfNSt7__cxx1112basic_stringIcSt11char_traitsIcESaIcEEEESaIS7_EE4backEv, symObjAddr: 0x22A4, symBinAddr: 0x100005E68, symSize: 0x38 }
  - { offsetInCU: 0x2601F, offset: 0x2601F, size: 0x8, addend: 0x0, symName: __ZNSt6vectorISt4pairIfNSt7__cxx1112basic_stringIcSt11char_traitsIcESaIcEEEESaIS7_EE17_M_realloc_appendIJS7_EEEvDpOT_, symObjAddr: 0x20B8, symBinAddr: 0x100005C7C, symSize: 0x1EC }
  - { offsetInCU: 0x2622A, offset: 0x2622A, size: 0x8, addend: 0x0, symName: __ZZNSt6vectorISt4pairIfNSt7__cxx1112basic_stringIcSt11char_traitsIcESaIcEEEESaIS7_EE17_M_realloc_appendIJS7_EEEvDpOT_EN6_GuardC1EPS7_mRS8_, symObjAddr: 0x2014, symBinAddr: 0x100005BD8, symSize: 0x44 }
  - { offsetInCU: 0x26268, offset: 0x26268, size: 0x8, addend: 0x0, symName: __ZZNSt6vectorISt4pairIfNSt7__cxx1112basic_stringIcSt11char_traitsIcESaIcEEEESaIS7_EE17_M_realloc_appendIJS7_EEEvDpOT_EN6_GuardD1Ev, symObjAddr: 0x2058, symBinAddr: 0x100005C1C, symSize: 0x60 }
  - { offsetInCU: 0x26321, offset: 0x26321, size: 0x8, addend: 0x0, symName: __ZSt7forwardISt4pairIfNSt7__cxx1112basic_stringIcSt11char_traitsIcESaIcEEEEEOT_RNSt16remove_referenceIS8_E4typeE, symObjAddr: 0x2000, symBinAddr: 0x100005BC4, symSize: 0x14 }
  - { offsetInCU: 0x26357, offset: 0x26357, size: 0x8, addend: 0x0, symName: __ZN9__gnu_cxx16__aligned_membufISt4pairIKNSt7__cxx1112basic_stringIcSt11char_traitsIcESaIcEEEiEE6_M_ptrEv, symObjAddr: 0x1FE4, symBinAddr: 0x100005BA8, symSize: 0x1C }
  - { offsetInCU: 0x26419, offset: 0x26419, size: 0x8, addend: 0x0, symName: __ZNSt17_Rb_tree_iteratorISt4pairIKNSt7__cxx1112basic_stringIcSt11char_traitsIcESaIcEEEiEEC1EPSt18_Rb_tree_node_base, symObjAddr: 0x1FC0, symBinAddr: 0x100005B84, symSize: 0x24 }
  - { offsetInCU: 0x263D8, offset: 0x263D8, size: 0x8, addend: 0x0, symName: __ZNSt8_Rb_treeINSt7__cxx1112basic_stringIcSt11char_traitsIcESaIcEEESt4pairIKS5_iESt10_Select1stIS8_ESt4lessIS5_ESaIS8_EE10_Auto_node9_M_insertES6_IPSt18_Rb_tree_node_baseSH_E, symObjAddr: 0x1F74, symBinAddr: 0x100005B38, symSize: 0x4C }
  - { offsetInCU: 0x26424, offset: 0x26424, size: 0x8, addend: 0x0, symName: __ZNKSt8_Rb_treeINSt7__cxx1112basic_stringIcSt11char_traitsIcESaIcEEESt4pairIKS5_iESt10_Select1stIS8_ESt4lessIS5_ESaIS8_EE10_Auto_node6_M_keyEv, symObjAddr: 0x1F54, symBinAddr: 0x100005B18, symSize: 0x20 }
  - { offsetInCU: 0x2644E, offset: 0x2644E, size: 0x8, addend: 0x0, symName: __ZNSt8_Rb_treeINSt7__cxx1112basic_stringIcSt11char_traitsIcESaIcEEESt4pairIKS5_iESt10_Select1stIS8_ESt4lessIS5_ESaIS8_EE29_M_get_insert_hint_unique_posESt23_Rb_tree_const_iteratorIS8_ERS7_, symObjAddr: 0x1C30, symBinAddr: 0x1000057F4, symSize: 0x324 }
  - { offsetInCU: 0x265A2, offset: 0x265A2, size: 0x8, addend: 0x0, symName: __ZNSt8_Rb_treeINSt7__cxx1112basic_stringIcSt11char_traitsIcESaIcEEESt4pairIKS5_iESt10_Select1stIS8_ESt4lessIS5_ESaIS8_EE10_Auto_nodeD1Ev, symObjAddr: 0x1BEC, symBinAddr: 0x1000057B0, symSize: 0x44 }
  - { offsetInCU: 0x26659, offset: 0x26659, size: 0x8, addend: 0x0, symName: __ZNSt8_Rb_treeINSt7__cxx1112basic_stringIcSt11char_traitsIcESaIcEEESt4pairIKS5_iESt10_Select1stIS8_ESt4lessIS5_ESaIS8_EE10_Auto_nodeC1IJRKSt21piecewise_construct_tSt5tupleIJRS7_EESK_IJEEEEERSE_DpOT_, symObjAddr: 0x1B70, symBinAddr: 0x100005734, symSize: 0x7C }
  - { offsetInCU: 0x265FE, offset: 0x265FE, size: 0x8, addend: 0x0, symName: __ZSt7forwardISt5tupleIJEEEOT_RNSt16remove_referenceIS2_E4typeE, symObjAddr: 0x1B5C, symBinAddr: 0x100005720, symSize: 0x14 }
  - { offsetInCU: 0x26636, offset: 0x26636, size: 0x8, addend: 0x0, symName: __ZSt7forwardISt5tupleIJRKNSt7__cxx1112basic_stringIcSt11char_traitsIcESaIcEEEEEEOT_RNSt16remove_referenceISA_E4typeE, symObjAddr: 0x1B48, symBinAddr: 0x10000570C, symSize: 0x14 }
  - { offsetInCU: 0x2666E, offset: 0x2666E, size: 0x8, addend: 0x0, symName: __ZSt7forwardIRKSt21piecewise_construct_tEOT_RNSt16remove_referenceIS3_E4typeE, symObjAddr: 0x1B34, symBinAddr: 0x1000056F8, symSize: 0x14 }
  - { offsetInCU: 0x2671F, offset: 0x2671F, size: 0x8, addend: 0x0, symName: __ZNSt11_Tuple_implILm0EJRKNSt7__cxx1112basic_stringIcSt11char_traitsIcESaIcEEEEEC2ES7_, symObjAddr: 0x1B0C, symBinAddr: 0x1000056D0, symSize: 0x28 }
  - { offsetInCU: 0x266F7, offset: 0x266F7, size: 0x8, addend: 0x0, symName: __ZStltIcSt11char_traitsIcESaIcEEbRKNSt7__cxx1112basic_stringIT_T0_T1_EESA_, symObjAddr: 0x1AE0, symBinAddr: 0x1000056A4, symSize: 0x2C }
  - { offsetInCU: 0x26751, offset: 0x26751, size: 0x8, addend: 0x0, symName: __ZNKSt8_Rb_treeINSt7__cxx1112basic_stringIcSt11char_traitsIcESaIcEEESt4pairIKS5_iESt10_Select1stIS8_ESt4lessIS5_ESaIS8_EE8key_compEv, symObjAddr: 0x1AC8, symBinAddr: 0x10000568C, symSize: 0x18 }
  - { offsetInCU: 0x2677B, offset: 0x2677B, size: 0x8, addend: 0x0, symName: __ZNSt8_Rb_treeINSt7__cxx1112basic_stringIcSt11char_traitsIcESaIcEEESt4pairIKS5_iESt10_Select1stIS8_ESt4lessIS5_ESaIS8_EE11lower_boundERS7_, symObjAddr: 0x1A80, symBinAddr: 0x100005644, symSize: 0x48 }
  - { offsetInCU: 0x26846, offset: 0x26846, size: 0x8, addend: 0x0, symName: __ZNKSt8_Rb_treeINSt7__cxx1112basic_stringIcSt11char_traitsIcESaIcEEESt4pairIKS5_iESt10_Select1stIS8_ESt4lessIS5_ESaIS8_EE9_M_mbeginEv, symObjAddr: 0x1A68, symBinAddr: 0x10000562C, symSize: 0x18 }
  - { offsetInCU: 0x26870, offset: 0x26870, size: 0x8, addend: 0x0, symName: __ZNSt8_Rb_treeINSt7__cxx1112basic_stringIcSt11char_traitsIcESaIcEEESt4pairIKS5_iESt10_Select1stIS8_ESt4lessIS5_ESaIS8_EE12_M_drop_nodeEPSt13_Rb_tree_nodeIS8_E, symObjAddr: 0x1A34, symBinAddr: 0x1000055F8, symSize: 0x34 }
  - { offsetInCU: 0x268A7, offset: 0x268A7, size: 0x8, addend: 0x0, symName: __ZNSt8_Rb_treeINSt7__cxx1112basic_stringIcSt11char_traitsIcESaIcEEESt4pairIKS5_iESt10_Select1stIS8_ESt4lessIS5_ESaIS8_EE7_S_leftEPSt18_Rb_tree_node_base, symObjAddr: 0x1A1C, symBinAddr: 0x1000055E0, symSize: 0x18 }
  - { offsetInCU: 0x268D1, offset: 0x268D1, size: 0x8, addend: 0x0, symName: __ZNSt8_Rb_treeINSt7__cxx1112basic_stringIcSt11char_traitsIcESaIcEEESt4pairIKS5_iESt10_Select1stIS8_ESt4lessIS5_ESaIS8_EE8_S_rightEPSt18_Rb_tree_node_base, symObjAddr: 0x1A04, symBinAddr: 0x1000055C8, symSize: 0x18 }
  - { offsetInCU: 0x26911, offset: 0x26911, size: 0x8, addend: 0x0, symName: __ZSt11__bit_widthImEiT_, symObjAddr: 0x19D4, symBinAddr: 0x100005598, symSize: 0x30 }
  - { offsetInCU: 0x26959, offset: 0x26959, size: 0x8, addend: 0x0, symName: __ZNK9__gnu_cxx17__normal_iteratorIPSt4pairIiS1_IiNSt7__cxx1112basic_stringIcSt11char_traitsIcESaIcEEEEESt6vectorIS9_SaIS9_EEE4baseEv, symObjAddr: 0x19C0, symBinAddr: 0x100005584, symSize: 0x14 }
  - { offsetInCU: 0x2697F, offset: 0x2697F, size: 0x8, addend: 0x0, symName: __ZSt6__sortIN9__gnu_cxx17__normal_iteratorIPSt4pairIiS2_IiNSt7__cxx1112basic_stringIcSt11char_traitsIcESaIcEEEEESt6vectorISA_SaISA_EEEENS0_5__ops15_Iter_comp_iterISt7greaterIvEEEEvT_SL_T0_, symObjAddr: 0x1950, symBinAddr: 0x100005514, symSize: 0x70 }
  - { offsetInCU: 0x26A8A, offset: 0x26A8A, size: 0x8, addend: 0x0, symName: __ZN9__gnu_cxx17__normal_iteratorIPSt4pairIiS1_IiNSt7__cxx1112basic_stringIcSt11char_traitsIcESaIcEEEEESt6vectorIS9_SaIS9_EEEC1ERKSA_, symObjAddr: 0x1928, symBinAddr: 0x1000054EC, symSize: 0x28 }
  - { offsetInCU: 0x26A34, offset: 0x26A34, size: 0x8, addend: 0x0, symName: __ZSt6__sortIN9__gnu_cxx17__normal_iteratorIPSt4pairIfNSt7__cxx1112basic_stringIcSt11char_traitsIcESaIcEEEESt6vectorIS9_SaIS9_EEEENS0_5__ops15_Iter_comp_iterISt7greaterIvEEEEvT_SK_T0_, symObjAddr: 0x18B8, symBinAddr: 0x10000547C, symSize: 0x70 }
  - { offsetInCU: 0x26A92, offset: 0x26A92, size: 0x8, addend: 0x0, symName: __ZN9__gnu_cxx5__ops16__iter_comp_iterISt7greaterIvEEENS0_15_Iter_comp_iterIT_EES5_, symObjAddr: 0x1880, symBinAddr: 0x100005444, symSize: 0x38 }
  - { offsetInCU: 0x26B6B, offset: 0x26B6B, size: 0x8, addend: 0x0, symName: __ZN9__gnu_cxx17__normal_iteratorIPSt4pairIfNSt7__cxx1112basic_stringIcSt11char_traitsIcESaIcEEEESt6vectorIS8_SaIS8_EEEC1ERKS9_, symObjAddr: 0x1858, symBinAddr: 0x10000541C, symSize: 0x28 }
  - { offsetInCU: 0x26B1F, offset: 0x26B1F, size: 0x8, addend: 0x0, symName: __ZNSt6vectorISt4pairIiS0_IiNSt7__cxx1112basic_stringIcSt11char_traitsIcESaIcEEEEESaIS8_EE12emplace_backIJS8_EEERS8_DpOT_, symObjAddr: 0x177C, symBinAddr: 0x100005340, symSize: 0xDC }
  - { offsetInCU: 0x26BD1, offset: 0x26BD1, size: 0x8, addend: 0x0, symName: __ZSt4moveIRSt4pairIiS0_IiNSt7__cxx1112basic_stringIcSt11char_traitsIcESaIcEEEEEEONSt16remove_referenceIT_E4typeEOSB_, symObjAddr: 0x1768, symBinAddr: 0x10000532C, symSize: 0x14 }
  - { offsetInCU: 0x26C09, offset: 0x26C09, size: 0x8, addend: 0x0, symName: __ZSt7forwardIRiEOT_RNSt16remove_referenceIS1_E4typeE, symObjAddr: 0x1754, symBinAddr: 0x100005318, symSize: 0x14 }
  - { offsetInCU: 0x26C3F, offset: 0x26C3F, size: 0x8, addend: 0x0, symName: __ZNSt6vectorISt4pairIfNSt7__cxx1112basic_stringIcSt11char_traitsIcESaIcEEEESaIS7_EE12emplace_backIJS7_EEERS7_DpOT_, symObjAddr: 0x1678, symBinAddr: 0x10000523C, symSize: 0xDC }
  - { offsetInCU: 0x26CF1, offset: 0x26CF1, size: 0x8, addend: 0x0, symName: __ZSt4moveIRSt4pairIfNSt7__cxx1112basic_stringIcSt11char_traitsIcESaIcEEEEEONSt16remove_referenceIT_E4typeEOSA_, symObjAddr: 0x1664, symBinAddr: 0x100005228, symSize: 0x14 }
  - { offsetInCU: 0x26D29, offset: 0x26D29, size: 0x8, addend: 0x0, symName: __ZSt7forwardIRKNSt7__cxx1112basic_stringIcSt11char_traitsIcESaIcEEEEOT_RNSt16remove_referenceIS8_E4typeE, symObjAddr: 0x1650, symBinAddr: 0x100005214, symSize: 0x14 }
  - { offsetInCU: 0x26D61, offset: 0x26D61, size: 0x8, addend: 0x0, symName: __ZSt7forwardIfEOT_RNSt16remove_referenceIS0_E4typeE, symObjAddr: 0x163C, symBinAddr: 0x100005200, symSize: 0x14 }
  - { offsetInCU: 0x26D97, offset: 0x26D97, size: 0x8, addend: 0x0, symName: __ZNSt13_Rb_tree_nodeISt4pairIKNSt7__cxx1112basic_stringIcSt11char_traitsIcESaIcEEEiEE9_M_valptrEv, symObjAddr: 0x161C, symBinAddr: 0x1000051E0, symSize: 0x20 }
  - { offsetInCU: 0x26DC1, offset: 0x26DC1, size: 0x8, addend: 0x0, symName: __ZNSt8_Rb_treeINSt7__cxx1112basic_stringIcSt11char_traitsIcESaIcEEESt4pairIKS5_iESt10_Select1stIS8_ESt4lessIS5_ESaIS8_EE3endEv, symObjAddr: 0x15F4, symBinAddr: 0x1000051B8, symSize: 0x28 }
  - { offsetInCU: 0x26DEB, offset: 0x26DEB, size: 0x8, addend: 0x0, symName: __ZNSt8_Rb_treeINSt7__cxx1112basic_stringIcSt11char_traitsIcESaIcEEESt4pairIKS5_iESt10_Select1stIS8_ESt4lessIS5_ESaIS8_EE5beginEv, symObjAddr: 0x15CC, symBinAddr: 0x100005190, symSize: 0x28 }
  - { offsetInCU: 0x26E15, offset: 0x26E15, size: 0x8, addend: 0x0, symName: __ZNSt8_Rb_treeINSt7__cxx1112basic_stringIcSt11char_traitsIcESaIcEEESt4pairIKS5_iESt10_Select1stIS8_ESt4lessIS5_ESaIS8_EE22_M_emplace_hint_uniqueIJRKSt21piecewise_construct_tSt5tupleIJRS7_EESJ_IJEEEEESt17_Rb_tree_iteratorIS8_ESt23_Rb_tree_const_iteratorIS8_EDpOT_, symObjAddr: 0x14F4, symBinAddr: 0x1000050B8, symSize: 0xD8 }
  - { offsetInCU: 0x26F4F, offset: 0x26F4F, size: 0x8, addend: 0x0, symName: __ZNSt23_Rb_tree_const_iteratorISt4pairIKNSt7__cxx1112basic_stringIcSt11char_traitsIcESaIcEEEiEEC1ERKSt17_Rb_tree_iteratorIS8_E, symObjAddr: 0x14CC, symBinAddr: 0x100005090, symSize: 0x28 }
  - { offsetInCU: 0x26F87, offset: 0x26F87, size: 0x8, addend: 0x0, symName: __ZNSt5tupleIJRKNSt7__cxx1112basic_stringIcSt11char_traitsIcESaIcEEEEEC1ILb1ELb1EEES7_, symObjAddr: 0x14A4, symBinAddr: 0x100005068, symSize: 0x28 }
  - { offsetInCU: 0x26F6E, offset: 0x26F6E, size: 0x8, addend: 0x0, symName: __ZNKSt4lessINSt7__cxx1112basic_stringIcSt11char_traitsIcESaIcEEEEclERKS5_S8_, symObjAddr: 0x147C, symBinAddr: 0x100005040, symSize: 0x28 }
  - { offsetInCU: 0x26FBA, offset: 0x26FBA, size: 0x8, addend: 0x0, symName: __ZNKSt3mapINSt7__cxx1112basic_stringIcSt11char_traitsIcESaIcEEEiSt4lessIS5_ESaISt4pairIKS5_iEEE8key_compEv, symObjAddr: 0x1450, symBinAddr: 0x100005014, symSize: 0x2C }
  - { offsetInCU: 0x26FE6, offset: 0x26FE6, size: 0x8, addend: 0x0, symName: __ZSteqRKSt17_Rb_tree_iteratorISt4pairIKNSt7__cxx1112basic_stringIcSt11char_traitsIcESaIcEEEiEESB_, symObjAddr: 0x1420, symBinAddr: 0x100004FE4, symSize: 0x30 }
  - { offsetInCU: 0x27025, offset: 0x27025, size: 0x8, addend: 0x0, symName: __ZNSt3mapINSt7__cxx1112basic_stringIcSt11char_traitsIcESaIcEEEiSt4lessIS5_ESaISt4pairIKS5_iEEE11lower_boundERS9_, symObjAddr: 0x13FC, symBinAddr: 0x100004FC0, symSize: 0x24 }
  - { offsetInCU: 0x27060, offset: 0x27060, size: 0x8, addend: 0x0, symName: __ZNSt12_Vector_baseISt4pairIiS0_IiNSt7__cxx1112basic_stringIcSt11char_traitsIcESaIcEEEEESaIS8_EE13_M_deallocateEPS8_m, symObjAddr: 0x13A4, symBinAddr: 0x100004F68, symSize: 0x58 }
  - { offsetInCU: 0x27163, offset: 0x27163, size: 0x8, addend: 0x0, symName: __ZNSt15__new_allocatorISt4pairIiS0_IiNSt7__cxx1112basic_stringIcSt11char_traitsIcESaIcEEEEEED2Ev, symObjAddr: 0x1390, symBinAddr: 0x100004F54, symSize: 0x14 }
  - { offsetInCU: 0x271BA, offset: 0x271BA, size: 0x8, addend: 0x0, symName: __ZNSt12_Vector_baseISt4pairIiS0_IiNSt7__cxx1112basic_stringIcSt11char_traitsIcESaIcEEEEESaIS8_EE17_Vector_impl_dataC2Ev, symObjAddr: 0x1364, symBinAddr: 0x100004F28, symSize: 0x2C }
  - { offsetInCU: 0x27182, offset: 0x27182, size: 0x8, addend: 0x0, symName: __ZNSt12_Vector_baseISt4pairIfNSt7__cxx1112basic_stringIcSt11char_traitsIcESaIcEEEESaIS7_EE13_M_deallocateEPS7_m, symObjAddr: 0x130C, symBinAddr: 0x100004ED0, symSize: 0x58 }
  - { offsetInCU: 0x2727F, offset: 0x2727F, size: 0x8, addend: 0x0, symName: __ZNSt15__new_allocatorISt4pairIfNSt7__cxx1112basic_stringIcSt11char_traitsIcESaIcEEEEED2Ev, symObjAddr: 0x12F8, symBinAddr: 0x100004EBC, symSize: 0x14 }
  - { offsetInCU: 0x272D6, offset: 0x272D6, size: 0x8, addend: 0x0, symName: __ZNSt12_Vector_baseISt4pairIfNSt7__cxx1112basic_stringIcSt11char_traitsIcESaIcEEEESaIS7_EE17_Vector_impl_dataC2Ev, symObjAddr: 0x12CC, symBinAddr: 0x100004E90, symSize: 0x2C }
  - { offsetInCU: 0x272A4, offset: 0x272A4, size: 0x8, addend: 0x0, symName: __ZNSt8_Rb_treeINSt7__cxx1112basic_stringIcSt11char_traitsIcESaIcEEESt4pairIKS5_iESt10_Select1stIS8_ESt4lessIS5_ESaIS8_EE8_M_beginEv, symObjAddr: 0x12B0, symBinAddr: 0x100004E74, symSize: 0x1C }
  - { offsetInCU: 0x272CE, offset: 0x272CE, size: 0x8, addend: 0x0, symName: __ZNSt8_Rb_treeINSt7__cxx1112basic_stringIcSt11char_traitsIcESaIcEEESt4pairIKS5_iESt10_Select1stIS8_ESt4lessIS5_ESaIS8_EE8_M_eraseEPSt13_Rb_tree_nodeIS8_E, symObjAddr: 0x124C, symBinAddr: 0x100004E10, symSize: 0x64 }
  - { offsetInCU: 0x273BC, offset: 0x273BC, size: 0x8, addend: 0x0, symName: __ZNSt15__new_allocatorISt13_Rb_tree_nodeISt4pairIKNSt7__cxx1112basic_stringIcSt11char_traitsIcESaIcEEEiEEED2Ev, symObjAddr: 0x1238, symBinAddr: 0x100004DFC, symSize: 0x14 }
  - { offsetInCU: 0x273EC, offset: 0x273EC, size: 0x8, addend: 0x0, symName: __ZNSt20_Rb_tree_key_compareISt4lessINSt7__cxx1112basic_stringIcSt11char_traitsIcESaIcEEEEEC2Ev, symObjAddr: 0x1224, symBinAddr: 0x100004DE8, symSize: 0x14 }
  - { offsetInCU: 0x273C9, offset: 0x273C9, size: 0x8, addend: 0x0, symName: __ZN9__gnu_cxx11char_traitsIcE2eqERKcS3_, symObjAddr: 0x11F4, symBinAddr: 0x100004DB8, symSize: 0x30 }
  - { offsetInCU: 0x27406, offset: 0x27406, size: 0x8, addend: 0x0, symName: __ZNK9__gnu_cxx17__normal_iteratorIPSt4pairIiS1_IiNSt7__cxx1112basic_stringIcSt11char_traitsIcESaIcEEEEESt6vectorIS9_SaIS9_EEEdeEv, symObjAddr: 0x11DC, symBinAddr: 0x100004DA0, symSize: 0x18 }
  - { offsetInCU: 0x27430, offset: 0x27430, size: 0x8, addend: 0x0, symName: __ZN9__gnu_cxx17__normal_iteratorIPSt4pairIiS1_IiNSt7__cxx1112basic_stringIcSt11char_traitsIcESaIcEEEEESt6vectorIS9_SaIS9_EEEppEv, symObjAddr: 0x11B4, symBinAddr: 0x100004D78, symSize: 0x28 }
  - { offsetInCU: 0x27456, offset: 0x27456, size: 0x8, addend: 0x0, symName: __ZN9__gnu_cxxneIPSt4pairIiS1_IiNSt7__cxx1112basic_stringIcSt11char_traitsIcESaIcEEEEESt6vectorIS9_SaIS9_EEEEbRKNS_17__normal_iteratorIT_T0_EESJ_, symObjAddr: 0x1170, symBinAddr: 0x100004D34, symSize: 0x44 }
  - { offsetInCU: 0x274A3, offset: 0x274A3, size: 0x8, addend: 0x0, symName: __ZSt4sortIN9__gnu_cxx17__normal_iteratorIPSt4pairIiS2_IiNSt7__cxx1112basic_stringIcSt11char_traitsIcESaIcEEEEESt6vectorISA_SaISA_EEEESt7greaterIvEEvT_SI_T0_, symObjAddr: 0x1130, symBinAddr: 0x100004CF4, symSize: 0x40 }
  - { offsetInCU: 0x27505, offset: 0x27505, size: 0x8, addend: 0x0, symName: __ZNSt6vectorISt4pairIiS0_IiNSt7__cxx1112basic_stringIcSt11char_traitsIcESaIcEEEEESaIS8_EE3endEv, symObjAddr: 0x1108, symBinAddr: 0x100004CCC, symSize: 0x28 }
  - { offsetInCU: 0x2752F, offset: 0x2752F, size: 0x8, addend: 0x0, symName: __ZNSt6vectorISt4pairIiS0_IiNSt7__cxx1112basic_stringIcSt11char_traitsIcESaIcEEEEESaIS8_EE5beginEv, symObjAddr: 0x10E4, symBinAddr: 0x100004CA8, symSize: 0x24 }
  - { offsetInCU: 0x27555, offset: 0x27555, size: 0x8, addend: 0x0, symName: __ZSteqIcSt11char_traitsIcESaIcEEbRKNSt7__cxx1112basic_stringIT_T0_T1_EESA_, symObjAddr: 0x1064, symBinAddr: 0x100004C28, symSize: 0x80 }
  - { offsetInCU: 0x275AF, offset: 0x275AF, size: 0x8, addend: 0x0, symName: __ZNSt6vectorISt4pairIiS0_IiNSt7__cxx1112basic_stringIcSt11char_traitsIcESaIcEEEEESaIS8_EEixEm, symObjAddr: 0x1030, symBinAddr: 0x100004BF4, symSize: 0x34 }
  - { offsetInCU: 0x275EA, offset: 0x275EA, size: 0x8, addend: 0x0, symName: __ZNSt6vectorISt4pairIfNSt7__cxx1112basic_stringIcSt11char_traitsIcESaIcEEEESaIS7_EEixEm, symObjAddr: 0xFFC, symBinAddr: 0x100004BC0, symSize: 0x34 }
  - { offsetInCU: 0x27625, offset: 0x27625, size: 0x8, addend: 0x0, symName: __ZNKSt6vectorISt4pairIiS0_IiNSt7__cxx1112basic_stringIcSt11char_traitsIcESaIcEEEEESaIS8_EE4sizeEv, symObjAddr: 0xFC8, symBinAddr: 0x100004B8C, symSize: 0x34 }
  - { offsetInCU: 0x2764B, offset: 0x2764B, size: 0x8, addend: 0x0, symName: __ZSt4sortIN9__gnu_cxx17__normal_iteratorIPSt4pairIfNSt7__cxx1112basic_stringIcSt11char_traitsIcESaIcEEEESt6vectorIS9_SaIS9_EEEESt7greaterIvEEvT_SH_T0_, symObjAddr: 0xF88, symBinAddr: 0x100004B4C, symSize: 0x40 }
  - { offsetInCU: 0x276AD, offset: 0x276AD, size: 0x8, addend: 0x0, symName: __ZNSt6vectorISt4pairIfNSt7__cxx1112basic_stringIcSt11char_traitsIcESaIcEEEESaIS7_EE3endEv, symObjAddr: 0xF60, symBinAddr: 0x100004B24, symSize: 0x28 }
  - { offsetInCU: 0x276D7, offset: 0x276D7, size: 0x8, addend: 0x0, symName: __ZNSt6vectorISt4pairIfNSt7__cxx1112basic_stringIcSt11char_traitsIcESaIcEEEESaIS7_EE5beginEv, symObjAddr: 0xF3C, symBinAddr: 0x100004B00, symSize: 0x24 }
  - { offsetInCU: 0x27701, offset: 0x27701, size: 0x8, addend: 0x0, symName: __ZNSt6vectorISt4pairIiS0_IiNSt7__cxx1112basic_stringIcSt11char_traitsIcESaIcEEEEESaIS8_EE9push_backEOS8_, symObjAddr: 0xF0C, symBinAddr: 0x100004AD0, symSize: 0x30 }
  - { offsetInCU: 0x277DC, offset: 0x277DC, size: 0x8, addend: 0x0, symName: __ZNSt4pairIiS_IiNSt7__cxx1112basic_stringIcSt11char_traitsIcESaIcEEEEEC1IiS6_Lb1EEERKiRKS6_, symObjAddr: 0xECC, symBinAddr: 0x100004A90, symSize: 0x40 }
  - { offsetInCU: 0x2786B, offset: 0x2786B, size: 0x8, addend: 0x0, symName: __ZNSt4pairIiNSt7__cxx1112basic_stringIcSt11char_traitsIcESaIcEEEEC1IRiRKS5_Lb1EEEOT_OT0_, symObjAddr: 0xE74, symBinAddr: 0x100004A38, symSize: 0x58 }
  - { offsetInCU: 0x27860, offset: 0x27860, size: 0x8, addend: 0x0, symName: __ZNSt6vectorISt4pairIfNSt7__cxx1112basic_stringIcSt11char_traitsIcESaIcEEEESaIS7_EE9push_backEOS7_, symObjAddr: 0xE44, symBinAddr: 0x100004A08, symSize: 0x30 }
  - { offsetInCU: 0x27937, offset: 0x27937, size: 0x8, addend: 0x0, symName: __ZNSt4pairIfNSt7__cxx1112basic_stringIcSt11char_traitsIcESaIcEEEEC1IfRKS5_Lb1EEEOT_OT0_, symObjAddr: 0xDEC, symBinAddr: 0x1000049B0, symSize: 0x58 }
  - { offsetInCU: 0x2792D, offset: 0x2792D, size: 0x8, addend: 0x0, symName: __ZNKSt17_Rb_tree_iteratorISt4pairIKNSt7__cxx1112basic_stringIcSt11char_traitsIcESaIcEEEiEEdeEv, symObjAddr: 0xDCC, symBinAddr: 0x100004990, symSize: 0x20 }
  - { offsetInCU: 0x27957, offset: 0x27957, size: 0x8, addend: 0x0, symName: __ZNSt17_Rb_tree_iteratorISt4pairIKNSt7__cxx1112basic_stringIcSt11char_traitsIcESaIcEEEiEEppEv, symObjAddr: 0xD9C, symBinAddr: 0x100004960, symSize: 0x30 }
  - { offsetInCU: 0x2797D, offset: 0x2797D, size: 0x8, addend: 0x0, symName: __ZStneRKSt17_Rb_tree_iteratorISt4pairIKNSt7__cxx1112basic_stringIcSt11char_traitsIcESaIcEEEiEESB_, symObjAddr: 0xD6C, symBinAddr: 0x100004930, symSize: 0x30 }
  - { offsetInCU: 0x279BC, offset: 0x279BC, size: 0x8, addend: 0x0, symName: __ZNSt3mapINSt7__cxx1112basic_stringIcSt11char_traitsIcESaIcEEEiSt4lessIS5_ESaISt4pairIKS5_iEEE3endEv, symObjAddr: 0xD50, symBinAddr: 0x100004914, symSize: 0x1C }
  - { offsetInCU: 0x279E6, offset: 0x279E6, size: 0x8, addend: 0x0, symName: __ZNSt3mapINSt7__cxx1112basic_stringIcSt11char_traitsIcESaIcEEEiSt4lessIS5_ESaISt4pairIKS5_iEEE5beginEv, symObjAddr: 0xD34, symBinAddr: 0x1000048F8, symSize: 0x1C }
  - { offsetInCU: 0x27A10, offset: 0x27A10, size: 0x8, addend: 0x0, symName: __ZNSt3mapINSt7__cxx1112basic_stringIcSt11char_traitsIcESaIcEEEiSt4lessIS5_ESaISt4pairIKS5_iEEEixERS9_, symObjAddr: 0xC48, symBinAddr: 0x10000480C, symSize: 0xEC }
  - { offsetInCU: 0x27A58, offset: 0x27A58, size: 0x8, addend: 0x0, symName: __ZSteqIcSt11char_traitsIcESaIcEEbRKNSt7__cxx1112basic_stringIT_T0_T1_EEPKS5_, symObjAddr: 0xBD4, symBinAddr: 0x100004798, symSize: 0x74 }
  - { offsetInCU: 0x27B37, offset: 0x27B37, size: 0x8, addend: 0x0, symName: __ZNSt12_Vector_baseISt4pairIiS0_IiNSt7__cxx1112basic_stringIcSt11char_traitsIcESaIcEEEEESaIS8_EED2Ev, symObjAddr: 0xB78, symBinAddr: 0x10000473C, symSize: 0x5C }
  - { offsetInCU: 0x27BA5, offset: 0x27BA5, size: 0x8, addend: 0x0, symName: __ZNSt12_Vector_baseISt4pairIiS0_IiNSt7__cxx1112basic_stringIcSt11char_traitsIcESaIcEEEEESaIS8_EE12_Vector_implC1Ev, symObjAddr: 0xB40, symBinAddr: 0x100004704, symSize: 0x38 }
  - { offsetInCU: 0x27C21, offset: 0x27C21, size: 0x8, addend: 0x0, symName: __ZNSt12_Vector_baseISt4pairIfNSt7__cxx1112basic_stringIcSt11char_traitsIcESaIcEEEESaIS7_EED2Ev, symObjAddr: 0xAE4, symBinAddr: 0x1000046A8, symSize: 0x5C }
  - { offsetInCU: 0x27C8F, offset: 0x27C8F, size: 0x8, addend: 0x0, symName: __ZNSt12_Vector_baseISt4pairIfNSt7__cxx1112basic_stringIcSt11char_traitsIcESaIcEEEESaIS7_EE12_Vector_implC1Ev, symObjAddr: 0xAAC, symBinAddr: 0x100004670, symSize: 0x38 }
  - { offsetInCU: 0x27D2F, offset: 0x27D2F, size: 0x8, addend: 0x0, symName: __ZNSt8_Rb_treeINSt7__cxx1112basic_stringIcSt11char_traitsIcESaIcEEESt4pairIKS5_iESt10_Select1stIS8_ESt4lessIS5_ESaIS8_EED1Ev, symObjAddr: 0xA78, symBinAddr: 0x10000463C, symSize: 0x34 }
  - { offsetInCU: 0x27DA7, offset: 0x27DA7, size: 0x8, addend: 0x0, symName: __ZNSt8_Rb_treeINSt7__cxx1112basic_stringIcSt11char_traitsIcESaIcEEESt4pairIKS5_iESt10_Select1stIS8_ESt4lessIS5_ESaIS8_EE13_Rb_tree_implISC_Lb1EEC1Ev, symObjAddr: 0xA34, symBinAddr: 0x1000045F8, symSize: 0x44 }
  - { offsetInCU: 0x27D85, offset: 0x27D85, size: 0x8, addend: 0x0, symName: __ZSt7forwardIiEOT_RNSt16remove_referenceIS0_E4typeE, symObjAddr: 0xA20, symBinAddr: 0x1000045E4, symSize: 0x14 }
  - { offsetInCU: 0x27DB7, offset: 0x27DB7, size: 0x8, addend: 0x0, symName: __ZSt3maxImERKT_S2_S2_, symObjAddr: 0x9E8, symBinAddr: 0x1000045AC, symSize: 0x38 }
  - { offsetInCU: 0x27DFB, offset: 0x27DFB, size: 0x8, addend: 0x0, symName: __ZN9__gnu_cxx11char_traitsIcE6lengthEPKc, symObjAddr: 0x990, symBinAddr: 0x100004554, symSize: 0x58 }
  - { offsetInCU: 0x27E3D, offset: 0x27E3D, size: 0x8, addend: 0x0, symName: _main, symObjAddr: 0x4C8, symBinAddr: 0x10000408C, symSize: 0x4C8 }
  - { offsetInCU: 0x28004, offset: 0x28004, size: 0x8, addend: 0x0, symName: __ZNSt4pairIiS_IiNSt7__cxx1112basic_stringIcSt11char_traitsIcESaIcEEEEEC1ERKS7_, symObjAddr: 0x480, symBinAddr: 0x100004044, symSize: 0x48 }
  - { offsetInCU: 0x2804D, offset: 0x2804D, size: 0x8, addend: 0x0, symName: __ZNSt4pairIiNSt7__cxx1112basic_stringIcSt11char_traitsIcESaIcEEEEC1ERKS6_, symObjAddr: 0x438, symBinAddr: 0x100003FFC, symSize: 0x48 }
  - { offsetInCU: 0x280A5, offset: 0x280A5, size: 0x8, addend: 0x0, symName: __ZNSt4pairIiS_IiNSt7__cxx1112basic_stringIcSt11char_traitsIcESaIcEEEEED1Ev, symObjAddr: 0x414, symBinAddr: 0x100003FD8, symSize: 0x24 }
  - { offsetInCU: 0x280EE, offset: 0x280EE, size: 0x8, addend: 0x0, symName: __ZNSt4pairIiNSt7__cxx1112basic_stringIcSt11char_traitsIcESaIcEEEED1Ev, symObjAddr: 0x3F0, symBinAddr: 0x100003FB4, symSize: 0x24 }
  - { offsetInCU: 0x2813C, offset: 0x2813C, size: 0x8, addend: 0x0, symName: __ZNSt4pairIfNSt7__cxx1112basic_stringIcSt11char_traitsIcESaIcEEEED1Ev, symObjAddr: 0x3CC, symBinAddr: 0x100003F90, symSize: 0x24 }
  - { offsetInCU: 0x2818B, offset: 0x2818B, size: 0x8, addend: 0x0, symName: __ZNSt4pairIKNSt7__cxx1112basic_stringIcSt11char_traitsIcESaIcEEEiED1Ev, symObjAddr: 0x3AC, symBinAddr: 0x100003F70, symSize: 0x20 }
  - { offsetInCU: 0x281D4, offset: 0x281D4, size: 0x8, addend: 0x0, symName: __ZNSt4pairIKNSt7__cxx1112basic_stringIcSt11char_traitsIcESaIcEEEiEC1ERKS7_, symObjAddr: 0x374, symBinAddr: 0x100003F38, symSize: 0x38 }
  - { offsetInCU: 0x28230, offset: 0x28230, size: 0x8, addend: 0x0, symName: __ZNSt6vectorISt4pairIiS0_IiNSt7__cxx1112basic_stringIcSt11char_traitsIcESaIcEEEEESaIS8_EEC1Ev, symObjAddr: 0x354, symBinAddr: 0x100003F18, symSize: 0x20 }
  - { offsetInCU: 0x28277, offset: 0x28277, size: 0x8, addend: 0x0, symName: __ZNSt12_Vector_baseISt4pairIiS0_IiNSt7__cxx1112basic_stringIcSt11char_traitsIcESaIcEEEEESaIS8_EEC2Ev, symObjAddr: 0x334, symBinAddr: 0x100003EF8, symSize: 0x20 }
  - { offsetInCU: 0x282D2, offset: 0x282D2, size: 0x8, addend: 0x0, symName: __ZNSt12_Vector_baseISt4pairIiS0_IiNSt7__cxx1112basic_stringIcSt11char_traitsIcESaIcEEEEESaIS8_EE12_Vector_implD1Ev, symObjAddr: 0x308, symBinAddr: 0x100003ECC, symSize: 0x2C }
  - { offsetInCU: 0x2831A, offset: 0x2831A, size: 0x8, addend: 0x0, symName: __ZNSt6vectorISt4pairIfNSt7__cxx1112basic_stringIcSt11char_traitsIcESaIcEEEESaIS7_EEC1Ev, symObjAddr: 0x2E8, symBinAddr: 0x100003EAC, symSize: 0x20 }
  - { offsetInCU: 0x28361, offset: 0x28361, size: 0x8, addend: 0x0, symName: __ZNSt12_Vector_baseISt4pairIfNSt7__cxx1112basic_stringIcSt11char_traitsIcESaIcEEEESaIS7_EEC2Ev, symObjAddr: 0x2C8, symBinAddr: 0x100003E8C, symSize: 0x20 }
  - { offsetInCU: 0x283BC, offset: 0x283BC, size: 0x8, addend: 0x0, symName: __ZNSt12_Vector_baseISt4pairIfNSt7__cxx1112basic_stringIcSt11char_traitsIcESaIcEEEESaIS7_EE12_Vector_implD1Ev, symObjAddr: 0x29C, symBinAddr: 0x100003E60, symSize: 0x2C }
  - { offsetInCU: 0x28415, offset: 0x28415, size: 0x8, addend: 0x0, symName: __ZNSt3mapINSt7__cxx1112basic_stringIcSt11char_traitsIcESaIcEEEiSt4lessIS5_ESaISt4pairIKS5_iEEEC1Ev, symObjAddr: 0x27C, symBinAddr: 0x100003E40, symSize: 0x20 }
  - { offsetInCU: 0x2846F, offset: 0x2846F, size: 0x8, addend: 0x0, symName: __ZNSt8_Rb_treeINSt7__cxx1112basic_stringIcSt11char_traitsIcESaIcEEESt4pairIKS5_iESt10_Select1stIS8_ESt4lessIS5_ESaIS8_EEC1Ev, symObjAddr: 0x25C, symBinAddr: 0x100003E20, symSize: 0x20 }
  - { offsetInCU: 0x284D5, offset: 0x284D5, size: 0x8, addend: 0x0, symName: __ZNSt8_Rb_treeINSt7__cxx1112basic_stringIcSt11char_traitsIcESaIcEEESt4pairIKS5_iESt10_Select1stIS8_ESt4lessIS5_ESaIS8_EE13_Rb_tree_implISC_Lb1EED1Ev, symObjAddr: 0x230, symBinAddr: 0x100003DF4, symSize: 0x2C }
  - { offsetInCU: 0x2848E, offset: 0x2848E, size: 0x8, addend: 0x0, symName: __ZNSt15_Rb_tree_header8_M_resetEv, symObjAddr: 0x1F4, symBinAddr: 0x100003DB8, symSize: 0x3C }
  - { offsetInCU: 0x284E9, offset: 0x284E9, size: 0x8, addend: 0x0, symName: __ZNSt15_Rb_tree_headerC2Ev, symObjAddr: 0x1CC, symBinAddr: 0x100003D90, symSize: 0x28 }
  - { offsetInCU: 0x284F4, offset: 0x284F4, size: 0x8, addend: 0x0, symName: __ZSt3minImERKT_S2_S2_, symObjAddr: 0x194, symBinAddr: 0x100003D58, symSize: 0x38 }
  - { offsetInCU: 0x28536, offset: 0x28536, size: 0x8, addend: 0x0, symName: __ZNSt11char_traitsIcE6lengthEPKc, symObjAddr: 0x158, symBinAddr: 0x100003D1C, symSize: 0x3C }
  - { offsetInCU: 0x2857A, offset: 0x2857A, size: 0x8, addend: 0x0, symName: __ZNSt11char_traitsIcE7compareEPKcS2_m, symObjAddr: 0x68, symBinAddr: 0x100003C2C, symSize: 0xF0 }
  - { offsetInCU: 0x28604, offset: 0x28604, size: 0x8, addend: 0x0, symName: __ZNSt11char_traitsIcE2ltERKcS2_, symObjAddr: 0x30, symBinAddr: 0x100003BF4, symSize: 0x38 }
  - { offsetInCU: 0x2864C, offset: 0x2864C, size: 0x8, addend: 0x0, symName: __ZdlPvS_, symObjAddr: 0x18, symBinAddr: 0x100003BDC, symSize: 0x18 }
  - { offsetInCU: 0x28681, offset: 0x28681, size: 0x8, addend: 0x0, symName: __ZnwmPv, symObjAddr: 0x0, symBinAddr: 0x100003BC4, symSize: 0x18 }
...
