---
triple:          'arm64-apple-darwin'
binary-path:     '/Users/pai/code/CU Grader/output/Ice_Cream_Sales'
relocations:
  - { offsetInCU: 0x1BE44, offset: 0x1BE44, size: 0x8, addend: 0x0, symName: __ZStL8__ioinit, symObjAddr: 0x831D8, symBinAddr: 0x10000C000, symSize: 0x0 }
  - { offsetInCU: 0x1C332, offset: 0x1C332, size: 0x8, addend: 0x0, symName: __Z6icreamB5cxx11, symObjAddr: 0x831E0, symBinAddr: 0x10000C008, symSize: 0x0 }
  - { offsetInCU: 0x1C34B, offset: 0x1C34B, size: 0x8, addend: 0x0, symName: __Z5salesB5cxx11, symObjAddr: 0x83210, symBinAddr: 0x10000C038, symSize: 0x0 }
  - { offsetInCU: 0x1C690, offset: 0x1C690, size: 0x8, addend: 0x0, symName: __ZNSt3mapINSt7__cxx1112basic_stringIcSt11char_traitsIcESaIcEEEfSt4lessIS5_ESaISt4pairIKS5_fEEED1Ev, symObjAddr: 0x1B0C, symBinAddr: 0x1000062A0, symSize: 0x20 }
  - { offsetInCU: 0x1C653, offset: 0x1C653, size: 0x8, addend: 0x0, symName: __ZNSt10_Head_baseILm0ERKNSt7__cxx1112basic_stringIcSt11char_traitsIcESaIcEEELb0EE7_M_headERS8_, symObjAddr: 0x1AF4, symBinAddr: 0x100006288, symSize: 0x18 }
  - { offsetInCU: 0x1C67C, offset: 0x1C67C, size: 0x8, addend: 0x0, symName: __ZNSt11_Tuple_implILm0EJRKNSt7__cxx1112basic_stringIcSt11char_traitsIcESaIcEEEEE7_M_headERS8_, symObjAddr: 0x1AD8, symBinAddr: 0x10000626C, symSize: 0x1C }
  - { offsetInCU: 0x1C6A6, offset: 0x1C6A6, size: 0x8, addend: 0x0, symName: __ZSt12__get_helperILm0ERKNSt7__cxx1112basic_stringIcSt11char_traitsIcESaIcEEEJEERT0_RSt11_Tuple_implIXT_EJS8_DpT1_EE, symObjAddr: 0x1ABC, symBinAddr: 0x100006250, symSize: 0x1C }
  - { offsetInCU: 0x1C6EE, offset: 0x1C6EE, size: 0x8, addend: 0x0, symName: __ZSt7forwardIRKNSt7__cxx1112basic_stringIcSt11char_traitsIcESaIcEEEEOT_RNSt16remove_referenceIS8_E4typeE, symObjAddr: 0x1AA8, symBinAddr: 0x10000623C, symSize: 0x14 }
  - { offsetInCU: 0x1C720, offset: 0x1C720, size: 0x8, addend: 0x0, symName: __ZSt3getILm0EJRKNSt7__cxx1112basic_stringIcSt11char_traitsIcESaIcEEEEERNSt13tuple_elementIXT_ESt5tupleIJDpT0_EEE4typeERSC_, symObjAddr: 0x1A8C, symBinAddr: 0x100006220, symSize: 0x1C }
  - { offsetInCU: 0x1C867, offset: 0x1C867, size: 0x8, addend: 0x0, symName: __ZNSt4pairIKNSt7__cxx1112basic_stringIcSt11char_traitsIcESaIcEEEfEC1IJRS6_EJLm0EEJEJEEERSt5tupleIJDpT_EERSA_IJDpT1_EESt12_Index_tupleIJXspT0_EEESJ_IJXspT2_EEE, symObjAddr: 0x1A38, symBinAddr: 0x1000061CC, symSize: 0x54 }
  - { offsetInCU: 0x1C90B, offset: 0x1C90B, size: 0x8, addend: 0x0, symName: __ZNSt4pairIKNSt7__cxx1112basic_stringIcSt11char_traitsIcESaIcEEEfEC1IJRS6_EJEEESt21piecewise_construct_tSt5tupleIJDpT_EESB_IJDpT0_EE, symObjAddr: 0x19FC, symBinAddr: 0x100006190, symSize: 0x3C }
  - { offsetInCU: 0x1C958, offset: 0x1C958, size: 0x8, addend: 0x0, symName: __ZNSt11_Tuple_implILm0EJRKNSt7__cxx1112basic_stringIcSt11char_traitsIcESaIcEEEEEC2EOS8_, symObjAddr: 0x19D4, symBinAddr: 0x100006168, symSize: 0x28 }
  - { offsetInCU: 0x1C938, offset: 0x1C938, size: 0x8, addend: 0x0, symName: __ZNK9__gnu_cxx16__aligned_membufISt4pairIKNSt7__cxx1112basic_stringIcSt11char_traitsIcESaIcEEEfEE7_M_addrEv, symObjAddr: 0x19C0, symBinAddr: 0x100006154, symSize: 0x14 }
  - { offsetInCU: 0x1CA2C, offset: 0x1CA2C, size: 0x8, addend: 0x0, symName: __ZNSt5tupleIJRKNSt7__cxx1112basic_stringIcSt11char_traitsIcESaIcEEEEEC1EOS8_, symObjAddr: 0x1998, symBinAddr: 0x10000612C, symSize: 0x28 }
  - { offsetInCU: 0x1CA12, offset: 0x1CA12, size: 0x8, addend: 0x0, symName: __ZNSt15__new_allocatorISt13_Rb_tree_nodeISt4pairIKNSt7__cxx1112basic_stringIcSt11char_traitsIcESaIcEEEfEEE8allocateEmPKv, symObjAddr: 0x1900, symBinAddr: 0x100006094, symSize: 0x98 }
  - { offsetInCU: 0x1CA9E, offset: 0x1CA9E, size: 0x8, addend: 0x0, symName: __ZNK9__gnu_cxx16__aligned_membufISt4pairIKNSt7__cxx1112basic_stringIcSt11char_traitsIcESaIcEEEfEE6_M_ptrEv, symObjAddr: 0x18E4, symBinAddr: 0x100006078, symSize: 0x1C }
  - { offsetInCU: 0x1CAD0, offset: 0x1CAD0, size: 0x8, addend: 0x0, symName: __ZSt7forwardIRPSt13_Rb_tree_nodeISt4pairIKNSt7__cxx1112basic_stringIcSt11char_traitsIcESaIcEEEfEEEOT_RNSt16remove_referenceISD_E4typeE, symObjAddr: 0x18D0, symBinAddr: 0x100006064, symSize: 0x14 }
  - { offsetInCU: 0x1CB82, offset: 0x1CB82, size: 0x8, addend: 0x0, symName: __ZNSt15__new_allocatorISt13_Rb_tree_nodeISt4pairIKNSt7__cxx1112basic_stringIcSt11char_traitsIcESaIcEEEfEEE10deallocateEPSA_m, symObjAddr: 0x1894, symBinAddr: 0x100006028, symSize: 0x3C }
  - { offsetInCU: 0x1CBF8, offset: 0x1CBF8, size: 0x8, addend: 0x0, symName: __ZNKSt10_Select1stISt4pairIKNSt7__cxx1112basic_stringIcSt11char_traitsIcESaIcEEEfEEclERKS8_, symObjAddr: 0x187C, symBinAddr: 0x100006010, symSize: 0x18 }
  - { offsetInCU: 0x1CC33, offset: 0x1CC33, size: 0x8, addend: 0x0, symName: __ZNKSt13_Rb_tree_nodeISt4pairIKNSt7__cxx1112basic_stringIcSt11char_traitsIcESaIcEEEfEE9_M_valptrEv, symObjAddr: 0x185C, symBinAddr: 0x100005FF0, symSize: 0x20 }
  - { offsetInCU: 0x1CC5F, offset: 0x1CC5F, size: 0x8, addend: 0x0, symName: __ZSt7forwardIRPSt18_Rb_tree_node_baseEOT_RNSt16remove_referenceIS3_E4typeE, symObjAddr: 0x1848, symBinAddr: 0x100005FDC, symSize: 0x14 }
  - { offsetInCU: 0x1CD63, offset: 0x1CD63, size: 0x8, addend: 0x0, symName: __ZNSt4pairIPSt18_Rb_tree_node_baseS1_EC1IRPSt13_Rb_tree_nodeIS_IKNSt7__cxx1112basic_stringIcSt11char_traitsIcESaIcEEEfEERS1_Lb1EEEOT_OT0_, symObjAddr: 0x1800, symBinAddr: 0x100005F94, symSize: 0x48 }
  - { offsetInCU: 0x1CD27, offset: 0x1CD27, size: 0x8, addend: 0x0, symName: __ZNSt8_Rb_treeINSt7__cxx1112basic_stringIcSt11char_traitsIcESaIcEEESt4pairIKS5_fESt10_Select1stIS8_ESt4lessIS5_ESaIS8_EE17_M_construct_nodeIJRKSt21piecewise_construct_tSt5tupleIJRS7_EESJ_IJEEEEEvPSt13_Rb_tree_nodeIS8_EDpOT_, symObjAddr: 0x1684, symBinAddr: 0x100005E18, symSize: 0x17C }
  - { offsetInCU: 0x1CE28, offset: 0x1CE28, size: 0x8, addend: 0x0, symName: __ZNSt8_Rb_treeINSt7__cxx1112basic_stringIcSt11char_traitsIcESaIcEEESt4pairIKS5_fESt10_Select1stIS8_ESt4lessIS5_ESaIS8_EE11_M_get_nodeEv, symObjAddr: 0x1648, symBinAddr: 0x100005DDC, symSize: 0x3C }
  - { offsetInCU: 0x1CEDE, offset: 0x1CEDE, size: 0x8, addend: 0x0, symName: __ZNSt8_Rb_treeINSt7__cxx1112basic_stringIcSt11char_traitsIcESaIcEEESt4pairIKS5_fESt10_Select1stIS8_ESt4lessIS5_ESaIS8_EE21_M_get_Node_allocatorEv, symObjAddr: 0x1634, symBinAddr: 0x100005DC8, symSize: 0x14 }
  - { offsetInCU: 0x1CF0D, offset: 0x1CF0D, size: 0x8, addend: 0x0, symName: __ZN9__gnu_cxx16__aligned_membufISt4pairIKNSt7__cxx1112basic_stringIcSt11char_traitsIcESaIcEEEfEE7_M_addrEv, symObjAddr: 0x1620, symBinAddr: 0x100005DB4, symSize: 0x14 }
  - { offsetInCU: 0x1CF36, offset: 0x1CF36, size: 0x8, addend: 0x0, symName: __ZNSt8_Rb_treeINSt7__cxx1112basic_stringIcSt11char_traitsIcESaIcEEESt4pairIKS5_fESt10_Select1stIS8_ESt4lessIS5_ESaIS8_EE14_M_insert_nodeEPSt18_Rb_tree_node_baseSG_PSt13_Rb_tree_nodeIS8_E, symObjAddr: 0x1550, symBinAddr: 0x100005CE4, symSize: 0xD0 }
  - { offsetInCU: 0x1CFA0, offset: 0x1CFA0, size: 0x8, addend: 0x0, symName: __ZNSt8_Rb_treeINSt7__cxx1112basic_stringIcSt11char_traitsIcESaIcEEESt4pairIKS5_fESt10_Select1stIS8_ESt4lessIS5_ESaIS8_EE6_S_keyEPKSt13_Rb_tree_nodeIS8_E, symObjAddr: 0x1528, symBinAddr: 0x100005CBC, symSize: 0x28 }
  - { offsetInCU: 0x1CFCE, offset: 0x1CFCE, size: 0x8, addend: 0x0, symName: __ZNSt17_Rb_tree_iteratorISt4pairIKNSt7__cxx1112basic_stringIcSt11char_traitsIcESaIcEEEfEEmmEv, symObjAddr: 0x14F8, symBinAddr: 0x100005C8C, symSize: 0x30 }
  - { offsetInCU: 0x1D07A, offset: 0x1D07A, size: 0x8, addend: 0x0, symName: __ZNSt4pairIPSt18_Rb_tree_node_baseS1_EC1IRS1_S4_Lb1EEEOT_OT0_, symObjAddr: 0x14B0, symBinAddr: 0x100005C44, symSize: 0x48 }
  - { offsetInCU: 0x1D08A, offset: 0x1D08A, size: 0x8, addend: 0x0, symName: __ZNSt8_Rb_treeINSt7__cxx1112basic_stringIcSt11char_traitsIcESaIcEEESt4pairIKS5_fESt10_Select1stIS8_ESt4lessIS5_ESaIS8_EE11_M_leftmostEv, symObjAddr: 0x1498, symBinAddr: 0x100005C2C, symSize: 0x18 }
  - { offsetInCU: 0x1D0B4, offset: 0x1D0B4, size: 0x8, addend: 0x0, symName: __ZNSt8_Rb_treeINSt7__cxx1112basic_stringIcSt11char_traitsIcESaIcEEESt4pairIKS5_fESt10_Select1stIS8_ESt4lessIS5_ESaIS8_EE24_M_get_insert_unique_posERS7_, symObjAddr: 0x1340, symBinAddr: 0x100005AD4, symSize: 0x158 }
  - { offsetInCU: 0x1D1BA, offset: 0x1D1BA, size: 0x8, addend: 0x0, symName: __ZNSt4pairIPSt18_Rb_tree_node_baseS1_EC1IS1_S1_Lb1EEERKS1_S5_, symObjAddr: 0x1304, symBinAddr: 0x100005A98, symSize: 0x3C }
  - { offsetInCU: 0x1D1CA, offset: 0x1D1CA, size: 0x8, addend: 0x0, symName: __ZNSt8_Rb_treeINSt7__cxx1112basic_stringIcSt11char_traitsIcESaIcEEESt4pairIKS5_fESt10_Select1stIS8_ESt4lessIS5_ESaIS8_EE12_M_rightmostEv, symObjAddr: 0x12EC, symBinAddr: 0x100005A80, symSize: 0x18 }
  - { offsetInCU: 0x1D1F4, offset: 0x1D1F4, size: 0x8, addend: 0x0, symName: __ZNKSt8_Rb_treeINSt7__cxx1112basic_stringIcSt11char_traitsIcESaIcEEESt4pairIKS5_fESt10_Select1stIS8_ESt4lessIS5_ESaIS8_EE4sizeEv, symObjAddr: 0x12D4, symBinAddr: 0x100005A68, symSize: 0x18 }
  - { offsetInCU: 0x1D21E, offset: 0x1D21E, size: 0x8, addend: 0x0, symName: __ZNKSt23_Rb_tree_const_iteratorISt4pairIKNSt7__cxx1112basic_stringIcSt11char_traitsIcESaIcEEEfEE13_M_const_castEv, symObjAddr: 0x12AC, symBinAddr: 0x100005A40, symSize: 0x28 }
  - { offsetInCU: 0x1D248, offset: 0x1D248, size: 0x8, addend: 0x0, symName: __ZNSt8_Rb_treeINSt7__cxx1112basic_stringIcSt11char_traitsIcESaIcEEESt4pairIKS5_fESt10_Select1stIS8_ESt4lessIS5_ESaIS8_EE14_M_create_nodeIJRKSt21piecewise_construct_tSt5tupleIJRS7_EESJ_IJEEEEEPSt13_Rb_tree_nodeIS8_EDpOT_, symObjAddr: 0x123C, symBinAddr: 0x1000059D0, symSize: 0x70 }
  - { offsetInCU: 0x1D335, offset: 0x1D335, size: 0x8, addend: 0x0, symName: __ZNSt10_Head_baseILm0ERKNSt7__cxx1112basic_stringIcSt11char_traitsIcESaIcEEELb0EEC2ES7_, symObjAddr: 0x1218, symBinAddr: 0x1000059AC, symSize: 0x24 }
  - { offsetInCU: 0x1D310, offset: 0x1D310, size: 0x8, addend: 0x0, symName: __ZNSt8_Rb_treeINSt7__cxx1112basic_stringIcSt11char_traitsIcESaIcEEESt4pairIKS5_fESt10_Select1stIS8_ESt4lessIS5_ESaIS8_EE11_M_put_nodeEPSt13_Rb_tree_nodeIS8_E, symObjAddr: 0x11CC, symBinAddr: 0x100005960, symSize: 0x4C }
  - { offsetInCU: 0x1D381, offset: 0x1D381, size: 0x8, addend: 0x0, symName: __ZNSt8_Rb_treeINSt7__cxx1112basic_stringIcSt11char_traitsIcESaIcEEESt4pairIKS5_fESt10_Select1stIS8_ESt4lessIS5_ESaIS8_EE15_M_destroy_nodeEPSt13_Rb_tree_nodeIS8_E, symObjAddr: 0x116C, symBinAddr: 0x100005900, symSize: 0x60 }
  - { offsetInCU: 0x1D416, offset: 0x1D416, size: 0x8, addend: 0x0, symName: __ZN9__gnu_cxx16__aligned_membufISt4pairIKNSt7__cxx1112basic_stringIcSt11char_traitsIcESaIcEEEfEE6_M_ptrEv, symObjAddr: 0x1150, symBinAddr: 0x1000058E4, symSize: 0x1C }
  - { offsetInCU: 0x1D43C, offset: 0x1D43C, size: 0x8, addend: 0x0, symName: __ZNSt8_Rb_treeINSt7__cxx1112basic_stringIcSt11char_traitsIcESaIcEEESt4pairIKS5_fESt10_Select1stIS8_ESt4lessIS5_ESaIS8_EE6_S_keyEPKSt18_Rb_tree_node_base, symObjAddr: 0x1134, symBinAddr: 0x1000058C8, symSize: 0x1C }
  - { offsetInCU: 0x1D46A, offset: 0x1D46A, size: 0x8, addend: 0x0, symName: __ZNSt8_Rb_treeINSt7__cxx1112basic_stringIcSt11char_traitsIcESaIcEEESt4pairIKS5_fESt10_Select1stIS8_ESt4lessIS5_ESaIS8_EE14_M_lower_boundEPSt13_Rb_tree_nodeIS8_EPSt18_Rb_tree_node_baseRS7_, symObjAddr: 0x1098, symBinAddr: 0x10000582C, symSize: 0x9C }
  - { offsetInCU: 0x1D4C7, offset: 0x1D4C7, size: 0x8, addend: 0x0, symName: __ZNSt8_Rb_treeINSt7__cxx1112basic_stringIcSt11char_traitsIcESaIcEEESt4pairIKS5_fESt10_Select1stIS8_ESt4lessIS5_ESaIS8_EE6_M_endEv, symObjAddr: 0x1080, symBinAddr: 0x100005814, symSize: 0x18 }
  - { offsetInCU: 0x1D589, offset: 0x1D589, size: 0x8, addend: 0x0, symName: __ZNSt17_Rb_tree_iteratorISt4pairIKNSt7__cxx1112basic_stringIcSt11char_traitsIcESaIcEEEfEEC1EPSt18_Rb_tree_node_base, symObjAddr: 0x105C, symBinAddr: 0x1000057F0, symSize: 0x24 }
  - { offsetInCU: 0x1D548, offset: 0x1D548, size: 0x8, addend: 0x0, symName: __ZNSt8_Rb_treeINSt7__cxx1112basic_stringIcSt11char_traitsIcESaIcEEESt4pairIKS5_fESt10_Select1stIS8_ESt4lessIS5_ESaIS8_EE10_Auto_node9_M_insertES6_IPSt18_Rb_tree_node_baseSH_E, symObjAddr: 0x1010, symBinAddr: 0x1000057A4, symSize: 0x4C }
  - { offsetInCU: 0x1D594, offset: 0x1D594, size: 0x8, addend: 0x0, symName: __ZNKSt8_Rb_treeINSt7__cxx1112basic_stringIcSt11char_traitsIcESaIcEEESt4pairIKS5_fESt10_Select1stIS8_ESt4lessIS5_ESaIS8_EE10_Auto_node6_M_keyEv, symObjAddr: 0xFF0, symBinAddr: 0x100005784, symSize: 0x20 }
  - { offsetInCU: 0x1D5BE, offset: 0x1D5BE, size: 0x8, addend: 0x0, symName: __ZNSt8_Rb_treeINSt7__cxx1112basic_stringIcSt11char_traitsIcESaIcEEESt4pairIKS5_fESt10_Select1stIS8_ESt4lessIS5_ESaIS8_EE29_M_get_insert_hint_unique_posESt23_Rb_tree_const_iteratorIS8_ERS7_, symObjAddr: 0xCCC, symBinAddr: 0x100005460, symSize: 0x324 }
  - { offsetInCU: 0x1D712, offset: 0x1D712, size: 0x8, addend: 0x0, symName: __ZNSt8_Rb_treeINSt7__cxx1112basic_stringIcSt11char_traitsIcESaIcEEESt4pairIKS5_fESt10_Select1stIS8_ESt4lessIS5_ESaIS8_EE10_Auto_nodeD1Ev, symObjAddr: 0xC88, symBinAddr: 0x10000541C, symSize: 0x44 }
  - { offsetInCU: 0x1D7C9, offset: 0x1D7C9, size: 0x8, addend: 0x0, symName: __ZNSt8_Rb_treeINSt7__cxx1112basic_stringIcSt11char_traitsIcESaIcEEESt4pairIKS5_fESt10_Select1stIS8_ESt4lessIS5_ESaIS8_EE10_Auto_nodeC1IJRKSt21piecewise_construct_tSt5tupleIJRS7_EESK_IJEEEEERSE_DpOT_, symObjAddr: 0xC0C, symBinAddr: 0x1000053A0, symSize: 0x7C }
  - { offsetInCU: 0x1D76E, offset: 0x1D76E, size: 0x8, addend: 0x0, symName: __ZSt7forwardISt5tupleIJEEEOT_RNSt16remove_referenceIS2_E4typeE, symObjAddr: 0xBF8, symBinAddr: 0x10000538C, symSize: 0x14 }
  - { offsetInCU: 0x1D7A6, offset: 0x1D7A6, size: 0x8, addend: 0x0, symName: __ZSt7forwardISt5tupleIJRKNSt7__cxx1112basic_stringIcSt11char_traitsIcESaIcEEEEEEOT_RNSt16remove_referenceISA_E4typeE, symObjAddr: 0xBE4, symBinAddr: 0x100005378, symSize: 0x14 }
  - { offsetInCU: 0x1D7DE, offset: 0x1D7DE, size: 0x8, addend: 0x0, symName: __ZSt7forwardIRKSt21piecewise_construct_tEOT_RNSt16remove_referenceIS3_E4typeE, symObjAddr: 0xBD0, symBinAddr: 0x100005364, symSize: 0x14 }
  - { offsetInCU: 0x1D88F, offset: 0x1D88F, size: 0x8, addend: 0x0, symName: __ZNSt11_Tuple_implILm0EJRKNSt7__cxx1112basic_stringIcSt11char_traitsIcESaIcEEEEEC2ES7_, symObjAddr: 0xBA8, symBinAddr: 0x10000533C, symSize: 0x28 }
  - { offsetInCU: 0x1D867, offset: 0x1D867, size: 0x8, addend: 0x0, symName: __ZStltIcSt11char_traitsIcESaIcEEbRKNSt7__cxx1112basic_stringIT_T0_T1_EESA_, symObjAddr: 0xB7C, symBinAddr: 0x100005310, symSize: 0x2C }
  - { offsetInCU: 0x1D8C1, offset: 0x1D8C1, size: 0x8, addend: 0x0, symName: __ZNKSt8_Rb_treeINSt7__cxx1112basic_stringIcSt11char_traitsIcESaIcEEESt4pairIKS5_fESt10_Select1stIS8_ESt4lessIS5_ESaIS8_EE8key_compEv, symObjAddr: 0xB64, symBinAddr: 0x1000052F8, symSize: 0x18 }
  - { offsetInCU: 0x1D8EB, offset: 0x1D8EB, size: 0x8, addend: 0x0, symName: __ZNSt8_Rb_treeINSt7__cxx1112basic_stringIcSt11char_traitsIcESaIcEEESt4pairIKS5_fESt10_Select1stIS8_ESt4lessIS5_ESaIS8_EE11lower_boundERS7_, symObjAddr: 0xB1C, symBinAddr: 0x1000052B0, symSize: 0x48 }
  - { offsetInCU: 0x1D926, offset: 0x1D926, size: 0x8, addend: 0x0, symName: __ZNKSt8_Rb_treeINSt7__cxx1112basic_stringIcSt11char_traitsIcESaIcEEESt4pairIKS5_fESt10_Select1stIS8_ESt4lessIS5_ESaIS8_EE9_M_mbeginEv, symObjAddr: 0xB04, symBinAddr: 0x100005298, symSize: 0x18 }
  - { offsetInCU: 0x1D950, offset: 0x1D950, size: 0x8, addend: 0x0, symName: __ZNSt8_Rb_treeINSt7__cxx1112basic_stringIcSt11char_traitsIcESaIcEEESt4pairIKS5_fESt10_Select1stIS8_ESt4lessIS5_ESaIS8_EE12_M_drop_nodeEPSt13_Rb_tree_nodeIS8_E, symObjAddr: 0xAD0, symBinAddr: 0x100005264, symSize: 0x34 }
  - { offsetInCU: 0x1D987, offset: 0x1D987, size: 0x8, addend: 0x0, symName: __ZNSt8_Rb_treeINSt7__cxx1112basic_stringIcSt11char_traitsIcESaIcEEESt4pairIKS5_fESt10_Select1stIS8_ESt4lessIS5_ESaIS8_EE7_S_leftEPSt18_Rb_tree_node_base, symObjAddr: 0xAB8, symBinAddr: 0x10000524C, symSize: 0x18 }
  - { offsetInCU: 0x1D9B1, offset: 0x1D9B1, size: 0x8, addend: 0x0, symName: __ZNSt8_Rb_treeINSt7__cxx1112basic_stringIcSt11char_traitsIcESaIcEEESt4pairIKS5_fESt10_Select1stIS8_ESt4lessIS5_ESaIS8_EE8_S_rightEPSt18_Rb_tree_node_base, symObjAddr: 0xAA0, symBinAddr: 0x100005234, symSize: 0x18 }
  - { offsetInCU: 0x1D9F5, offset: 0x1D9F5, size: 0x8, addend: 0x0, symName: __ZNSt13_Rb_tree_nodeISt4pairIKNSt7__cxx1112basic_stringIcSt11char_traitsIcESaIcEEEfEE9_M_valptrEv, symObjAddr: 0xA80, symBinAddr: 0x100005214, symSize: 0x20 }
  - { offsetInCU: 0x1DA1F, offset: 0x1DA1F, size: 0x8, addend: 0x0, symName: __ZNSt8_Rb_treeINSt7__cxx1112basic_stringIcSt11char_traitsIcESaIcEEESt4pairIKS5_fESt10_Select1stIS8_ESt4lessIS5_ESaIS8_EE5beginEv, symObjAddr: 0xA58, symBinAddr: 0x1000051EC, symSize: 0x28 }
  - { offsetInCU: 0x1DA49, offset: 0x1DA49, size: 0x8, addend: 0x0, symName: __ZNSt8_Rb_treeINSt7__cxx1112basic_stringIcSt11char_traitsIcESaIcEEESt4pairIKS5_fESt10_Select1stIS8_ESt4lessIS5_ESaIS8_EE3endEv, symObjAddr: 0xA30, symBinAddr: 0x1000051C4, symSize: 0x28 }
  - { offsetInCU: 0x1DA73, offset: 0x1DA73, size: 0x8, addend: 0x0, symName: __ZNSt8_Rb_treeINSt7__cxx1112basic_stringIcSt11char_traitsIcESaIcEEESt4pairIKS5_fESt10_Select1stIS8_ESt4lessIS5_ESaIS8_EE4findERS7_, symObjAddr: 0x988, symBinAddr: 0x10000511C, symSize: 0xA8 }
  - { offsetInCU: 0x1DABF, offset: 0x1DABF, size: 0x8, addend: 0x0, symName: __ZNSt8_Rb_treeINSt7__cxx1112basic_stringIcSt11char_traitsIcESaIcEEESt4pairIKS5_fESt10_Select1stIS8_ESt4lessIS5_ESaIS8_EE22_M_emplace_hint_uniqueIJRKSt21piecewise_construct_tSt5tupleIJRS7_EESJ_IJEEEEESt17_Rb_tree_iteratorIS8_ESt23_Rb_tree_const_iteratorIS8_EDpOT_, symObjAddr: 0x8B0, symBinAddr: 0x100005044, symSize: 0xD8 }
  - { offsetInCU: 0x1DBF9, offset: 0x1DBF9, size: 0x8, addend: 0x0, symName: __ZNSt23_Rb_tree_const_iteratorISt4pairIKNSt7__cxx1112basic_stringIcSt11char_traitsIcESaIcEEEfEEC1ERKSt17_Rb_tree_iteratorIS8_E, symObjAddr: 0x888, symBinAddr: 0x10000501C, symSize: 0x28 }
  - { offsetInCU: 0x1DC31, offset: 0x1DC31, size: 0x8, addend: 0x0, symName: __ZNSt5tupleIJRKNSt7__cxx1112basic_stringIcSt11char_traitsIcESaIcEEEEEC1ILb1ELb1EEES7_, symObjAddr: 0x860, symBinAddr: 0x100004FF4, symSize: 0x28 }
  - { offsetInCU: 0x1DC18, offset: 0x1DC18, size: 0x8, addend: 0x0, symName: __ZNKSt4lessINSt7__cxx1112basic_stringIcSt11char_traitsIcESaIcEEEEclERKS5_S8_, symObjAddr: 0x838, symBinAddr: 0x100004FCC, symSize: 0x28 }
  - { offsetInCU: 0x1DC64, offset: 0x1DC64, size: 0x8, addend: 0x0, symName: __ZNKSt3mapINSt7__cxx1112basic_stringIcSt11char_traitsIcESaIcEEEfSt4lessIS5_ESaISt4pairIKS5_fEEE8key_compEv, symObjAddr: 0x80C, symBinAddr: 0x100004FA0, symSize: 0x2C }
  - { offsetInCU: 0x1DC90, offset: 0x1DC90, size: 0x8, addend: 0x0, symName: __ZSteqRKSt17_Rb_tree_iteratorISt4pairIKNSt7__cxx1112basic_stringIcSt11char_traitsIcESaIcEEEfEESB_, symObjAddr: 0x7DC, symBinAddr: 0x100004F70, symSize: 0x30 }
  - { offsetInCU: 0x1DCCF, offset: 0x1DCCF, size: 0x8, addend: 0x0, symName: __ZNSt3mapINSt7__cxx1112basic_stringIcSt11char_traitsIcESaIcEEEfSt4lessIS5_ESaISt4pairIKS5_fEEE11lower_boundERS9_, symObjAddr: 0x7B8, symBinAddr: 0x100004F4C, symSize: 0x24 }
  - { offsetInCU: 0x1DD0A, offset: 0x1DD0A, size: 0x8, addend: 0x0, symName: __ZNSt8_Rb_treeINSt7__cxx1112basic_stringIcSt11char_traitsIcESaIcEEESt4pairIKS5_fESt10_Select1stIS8_ESt4lessIS5_ESaIS8_EE8_M_beginEv, symObjAddr: 0x79C, symBinAddr: 0x100004F30, symSize: 0x1C }
  - { offsetInCU: 0x1DD34, offset: 0x1DD34, size: 0x8, addend: 0x0, symName: __ZNSt8_Rb_treeINSt7__cxx1112basic_stringIcSt11char_traitsIcESaIcEEESt4pairIKS5_fESt10_Select1stIS8_ESt4lessIS5_ESaIS8_EE8_M_eraseEPSt13_Rb_tree_nodeIS8_E, symObjAddr: 0x738, symBinAddr: 0x100004ECC, symSize: 0x64 }
  - { offsetInCU: 0x1DE22, offset: 0x1DE22, size: 0x8, addend: 0x0, symName: __ZNSt15__new_allocatorISt13_Rb_tree_nodeISt4pairIKNSt7__cxx1112basic_stringIcSt11char_traitsIcESaIcEEEfEEED2Ev, symObjAddr: 0x724, symBinAddr: 0x100004EB8, symSize: 0x14 }
  - { offsetInCU: 0x1DE52, offset: 0x1DE52, size: 0x8, addend: 0x0, symName: __ZNSt20_Rb_tree_key_compareISt4lessINSt7__cxx1112basic_stringIcSt11char_traitsIcESaIcEEEEEC2Ev, symObjAddr: 0x710, symBinAddr: 0x100004EA4, symSize: 0x14 }
  - { offsetInCU: 0x1DE33, offset: 0x1DE33, size: 0x8, addend: 0x0, symName: __ZNKSt17_Rb_tree_iteratorISt4pairIKNSt7__cxx1112basic_stringIcSt11char_traitsIcESaIcEEEfEEdeEv, symObjAddr: 0x6F0, symBinAddr: 0x100004E84, symSize: 0x20 }
  - { offsetInCU: 0x1DE5D, offset: 0x1DE5D, size: 0x8, addend: 0x0, symName: __ZNSt17_Rb_tree_iteratorISt4pairIKNSt7__cxx1112basic_stringIcSt11char_traitsIcESaIcEEEfEEppEv, symObjAddr: 0x6C0, symBinAddr: 0x100004E54, symSize: 0x30 }
  - { offsetInCU: 0x1DE87, offset: 0x1DE87, size: 0x8, addend: 0x0, symName: __ZNSt3mapINSt7__cxx1112basic_stringIcSt11char_traitsIcESaIcEEEfSt4lessIS5_ESaISt4pairIKS5_fEEE5beginEv, symObjAddr: 0x6A4, symBinAddr: 0x100004E38, symSize: 0x1C }
  - { offsetInCU: 0x1DEB3, offset: 0x1DEB3, size: 0x8, addend: 0x0, symName: __ZSt3maxIfERKT_S2_S2_, symObjAddr: 0x668, symBinAddr: 0x100004DFC, symSize: 0x3C }
  - { offsetInCU: 0x1DEF7, offset: 0x1DEF7, size: 0x8, addend: 0x0, symName: __ZStneRKSt17_Rb_tree_iteratorISt4pairIKNSt7__cxx1112basic_stringIcSt11char_traitsIcESaIcEEEfEESB_, symObjAddr: 0x638, symBinAddr: 0x100004DCC, symSize: 0x30 }
  - { offsetInCU: 0x1DF36, offset: 0x1DF36, size: 0x8, addend: 0x0, symName: __ZNSt3mapINSt7__cxx1112basic_stringIcSt11char_traitsIcESaIcEEEfSt4lessIS5_ESaISt4pairIKS5_fEEE3endEv, symObjAddr: 0x61C, symBinAddr: 0x100004DB0, symSize: 0x1C }
  - { offsetInCU: 0x1DF60, offset: 0x1DF60, size: 0x8, addend: 0x0, symName: __ZNSt3mapINSt7__cxx1112basic_stringIcSt11char_traitsIcESaIcEEEfSt4lessIS5_ESaISt4pairIKS5_fEEE4findERS9_, symObjAddr: 0x5F8, symBinAddr: 0x100004D8C, symSize: 0x24 }
  - { offsetInCU: 0x1DF9B, offset: 0x1DF9B, size: 0x8, addend: 0x0, symName: __ZNSt3mapINSt7__cxx1112basic_stringIcSt11char_traitsIcESaIcEEEfSt4lessIS5_ESaISt4pairIKS5_fEEEixERS9_, symObjAddr: 0x50C, symBinAddr: 0x100004CA0, symSize: 0xEC }
  - { offsetInCU: 0x1E084, offset: 0x1E084, size: 0x8, addend: 0x0, symName: __ZNSt8_Rb_treeINSt7__cxx1112basic_stringIcSt11char_traitsIcESaIcEEESt4pairIKS5_fESt10_Select1stIS8_ESt4lessIS5_ESaIS8_EED1Ev, symObjAddr: 0x4D8, symBinAddr: 0x100004C6C, symSize: 0x34 }
  - { offsetInCU: 0x1E0FC, offset: 0x1E0FC, size: 0x8, addend: 0x0, symName: __ZNSt8_Rb_treeINSt7__cxx1112basic_stringIcSt11char_traitsIcESaIcEEESt4pairIKS5_fESt10_Select1stIS8_ESt4lessIS5_ESaIS8_EE13_Rb_tree_implISC_Lb1EEC1Ev, symObjAddr: 0x494, symBinAddr: 0x100004C28, symSize: 0x44 }
  - { offsetInCU: 0x1E0DD, offset: 0x1E0DD, size: 0x8, addend: 0x0, symName: _main, symObjAddr: 0x158, symBinAddr: 0x1000048EC, symSize: 0x33C }
  - { offsetInCU: 0x1E24D, offset: 0x1E24D, size: 0x8, addend: 0x0, symName: __ZNSt4pairIKNSt7__cxx1112basic_stringIcSt11char_traitsIcESaIcEEEfED1Ev, symObjAddr: 0x138, symBinAddr: 0x1000048CC, symSize: 0x20 }
  - { offsetInCU: 0x1E296, offset: 0x1E296, size: 0x8, addend: 0x0, symName: __ZNSt4pairIKNSt7__cxx1112basic_stringIcSt11char_traitsIcESaIcEEEfEC1ERKS7_, symObjAddr: 0x100, symBinAddr: 0x100004894, symSize: 0x38 }
  - { offsetInCU: 0x1E2F7, offset: 0x1E2F7, size: 0x8, addend: 0x0, symName: __ZNSt3mapINSt7__cxx1112basic_stringIcSt11char_traitsIcESaIcEEEfSt4lessIS5_ESaISt4pairIKS5_fEEEC1Ev, symObjAddr: 0xE0, symBinAddr: 0x100004874, symSize: 0x20 }
  - { offsetInCU: 0x1E351, offset: 0x1E351, size: 0x8, addend: 0x0, symName: __ZNSt8_Rb_treeINSt7__cxx1112basic_stringIcSt11char_traitsIcESaIcEEESt4pairIKS5_fESt10_Select1stIS8_ESt4lessIS5_ESaIS8_EEC1Ev, symObjAddr: 0xC0, symBinAddr: 0x100004854, symSize: 0x20 }
  - { offsetInCU: 0x1E3B7, offset: 0x1E3B7, size: 0x8, addend: 0x0, symName: __ZNSt8_Rb_treeINSt7__cxx1112basic_stringIcSt11char_traitsIcESaIcEEESt4pairIKS5_fESt10_Select1stIS8_ESt4lessIS5_ESaIS8_EE13_Rb_tree_implISC_Lb1EED1Ev, symObjAddr: 0x94, symBinAddr: 0x100004828, symSize: 0x2C }
  - { offsetInCU: 0x1E370, offset: 0x1E370, size: 0x8, addend: 0x0, symName: __ZNSt15_Rb_tree_header8_M_resetEv, symObjAddr: 0x58, symBinAddr: 0x1000047EC, symSize: 0x3C }
  - { offsetInCU: 0x1E3CB, offset: 0x1E3CB, size: 0x8, addend: 0x0, symName: __ZNSt15_Rb_tree_headerC2Ev, symObjAddr: 0x30, symBinAddr: 0x1000047C4, symSize: 0x28 }
  - { offsetInCU: 0x1E3E3, offset: 0x1E3E3, size: 0x8, addend: 0x0, symName: __ZdlPvS_, symObjAddr: 0x18, symBinAddr: 0x1000047AC, symSize: 0x18 }
  - { offsetInCU: 0x1E418, offset: 0x1E418, size: 0x8, addend: 0x0, symName: __ZnwmPv, symObjAddr: 0x0, symBinAddr: 0x100004794, symSize: 0x18 }
...
