---
triple:          'arm64-apple-darwin'
binary-path:     '/Users/pai/code/CU Grader/output/Recurrences_1'
relocations:
  - { offsetInCU: 0x1C53B, offset: 0x1C53B, size: 0x8, addend: 0x0, symName: __ZStL8__ioinit, symObjAddr: 0x8B730, symBinAddr: 0x10000C000, symSize: 0x0 }
  - { offsetInCU: 0x1CD0D, offset: 0x1CD0D, size: 0x8, addend: 0x0, symName: __ZNSt10_Head_baseILm0ERKNSt7__cxx1112basic_stringIcSt11char_traitsIcESaIcEEELb0EE7_M_headERS8_, symObjAddr: 0x24F4, symBinAddr: 0x100005A2C, symSize: 0x18 }
  - { offsetInCU: 0x1CD36, offset: 0x1CD36, size: 0x8, addend: 0x0, symName: __ZNSt11_Tuple_implILm0EJRKNSt7__cxx1112basic_stringIcSt11char_traitsIcESaIcEEEEE7_M_headERS8_, symObjAddr: 0x24D8, symBinAddr: 0x100005A10, symSize: 0x1C }
  - { offsetInCU: 0x1CD60, offset: 0x1CD60, size: 0x8, addend: 0x0, symName: __ZSt12__get_helperILm0ERKNSt7__cxx1112basic_stringIcSt11char_traitsIcESaIcEEEJEERT0_RSt11_Tuple_implIXT_EJS8_DpT1_EE, symObjAddr: 0x24BC, symBinAddr: 0x1000059F4, symSize: 0x1C }
  - { offsetInCU: 0x1CDA8, offset: 0x1CDA8, size: 0x8, addend: 0x0, symName: __ZSt7forwardIRKNSt7__cxx1112basic_stringIcSt11char_traitsIcESaIcEEEEOT_RNSt16remove_referenceIS8_E4typeE, symObjAddr: 0x24A8, symBinAddr: 0x1000059E0, symSize: 0x14 }
  - { offsetInCU: 0x1CDDA, offset: 0x1CDDA, size: 0x8, addend: 0x0, symName: __ZSt3getILm0EJRKNSt7__cxx1112basic_stringIcSt11char_traitsIcESaIcEEEEERNSt13tuple_elementIXT_ESt5tupleIJDpT0_EEE4typeERSC_, symObjAddr: 0x248C, symBinAddr: 0x1000059C4, symSize: 0x1C }
  - { offsetInCU: 0x1CF25, offset: 0x1CF25, size: 0x8, addend: 0x0, symName: __ZNSt4pairIKNSt7__cxx1112basic_stringIcSt11char_traitsIcESaIcEEEPFiiEEC1IJRS6_EJLm0EEJEJEEERSt5tupleIJDpT_EERSC_IJDpT1_EESt12_Index_tupleIJXspT0_EEESL_IJXspT2_EEE, symObjAddr: 0x2438, symBinAddr: 0x100005970, symSize: 0x54 }
  - { offsetInCU: 0x1CFA5, offset: 0x1CFA5, size: 0x8, addend: 0x0, symName: __ZNSt4pairIKNSt7__cxx1112basic_stringIcSt11char_traitsIcESaIcEEEPFiiEEC1ERKS9_, symObjAddr: 0x2400, symBinAddr: 0x100005938, symSize: 0x38 }
  - { offsetInCU: 0x1D059, offset: 0x1D059, size: 0x8, addend: 0x0, symName: __ZNSt4pairIKNSt7__cxx1112basic_stringIcSt11char_traitsIcESaIcEEEPFiiEEC1IJRS6_EJEEESt21piecewise_construct_tSt5tupleIJDpT_EESD_IJDpT0_EE, symObjAddr: 0x23C4, symBinAddr: 0x1000058FC, symSize: 0x3C }
  - { offsetInCU: 0x1D0A2, offset: 0x1D0A2, size: 0x8, addend: 0x0, symName: __ZNSt11_Tuple_implILm0EJRKNSt7__cxx1112basic_stringIcSt11char_traitsIcESaIcEEEEEC2EOS8_, symObjAddr: 0x239C, symBinAddr: 0x1000058D4, symSize: 0x28 }
  - { offsetInCU: 0x1D18C, offset: 0x1D18C, size: 0x8, addend: 0x0, symName: __ZNSt5tupleIJRKNSt7__cxx1112basic_stringIcSt11char_traitsIcESaIcEEEEEC1EOS8_, symObjAddr: 0x2374, symBinAddr: 0x1000058AC, symSize: 0x28 }
  - { offsetInCU: 0x1D172, offset: 0x1D172, size: 0x8, addend: 0x0, symName: __ZNSt15__new_allocatorISt13_Rb_tree_nodeISt4pairIKNSt7__cxx1112basic_stringIcSt11char_traitsIcESaIcEEEPFiiEEEE8allocateEmPKv, symObjAddr: 0x22DC, symBinAddr: 0x100005814, symSize: 0x98 }
  - { offsetInCU: 0x1D203, offset: 0x1D203, size: 0x8, addend: 0x0, symName: __ZNK9__gnu_cxx16__aligned_membufISt4pairIKNSt7__cxx1112basic_stringIcSt11char_traitsIcESaIcEEEPFiiEEE7_M_addrEv, symObjAddr: 0x22C8, symBinAddr: 0x100005800, symSize: 0x14 }
  - { offsetInCU: 0x1D22C, offset: 0x1D22C, size: 0x8, addend: 0x0, symName: __ZNSt8_Rb_treeINSt7__cxx1112basic_stringIcSt11char_traitsIcESaIcEEESt4pairIKS5_PFiiEESt10_Select1stISA_ESt4lessIS5_ESaISA_EE17_M_construct_nodeIJRKSA_EEEvPSt13_Rb_tree_nodeISA_EDpOT_, symObjAddr: 0x21C4, symBinAddr: 0x1000056FC, symSize: 0x104 }
  - { offsetInCU: 0x1D2EF, offset: 0x1D2EF, size: 0x8, addend: 0x0, symName: __ZSt7forwardIRPSt13_Rb_tree_nodeISt4pairIKNSt7__cxx1112basic_stringIcSt11char_traitsIcESaIcEEEPFiiEEEEOT_RNSt16remove_referenceISF_E4typeE, symObjAddr: 0x21B0, symBinAddr: 0x1000056E8, symSize: 0x14 }
  - { offsetInCU: 0x1D3A1, offset: 0x1D3A1, size: 0x8, addend: 0x0, symName: __ZNK9__gnu_cxx16__aligned_membufISt4pairIKNSt7__cxx1112basic_stringIcSt11char_traitsIcESaIcEEEPFiiEEE6_M_ptrEv, symObjAddr: 0x2194, symBinAddr: 0x1000056CC, symSize: 0x1C }
  - { offsetInCU: 0x1D3CB, offset: 0x1D3CB, size: 0x8, addend: 0x0, symName: __ZNSt15__new_allocatorISt13_Rb_tree_nodeISt4pairIKNSt7__cxx1112basic_stringIcSt11char_traitsIcESaIcEEEPFiiEEEE10deallocateEPSC_m, symObjAddr: 0x2158, symBinAddr: 0x100005690, symSize: 0x3C }
  - { offsetInCU: 0x1D441, offset: 0x1D441, size: 0x8, addend: 0x0, symName: __ZNSt8_Rb_treeINSt7__cxx1112basic_stringIcSt11char_traitsIcESaIcEEESt4pairIKS5_PFiiEESt10_Select1stISA_ESt4lessIS5_ESaISA_EE14_M_create_nodeIJRKSA_EEEPSt13_Rb_tree_nodeISA_EDpOT_, symObjAddr: 0x2118, symBinAddr: 0x100005650, symSize: 0x40 }
  - { offsetInCU: 0x1D499, offset: 0x1D499, size: 0x8, addend: 0x0, symName: __ZSt7forwardIRPSt18_Rb_tree_node_baseEOT_RNSt16remove_referenceIS3_E4typeE, symObjAddr: 0x2104, symBinAddr: 0x10000563C, symSize: 0x14 }
  - { offsetInCU: 0x1D5A1, offset: 0x1D5A1, size: 0x8, addend: 0x0, symName: __ZNSt4pairIPSt18_Rb_tree_node_baseS1_EC1IRPSt13_Rb_tree_nodeIS_IKNSt7__cxx1112basic_stringIcSt11char_traitsIcESaIcEEEPFiiEEERS1_Lb1EEEOT_OT0_, symObjAddr: 0x20BC, symBinAddr: 0x1000055F4, symSize: 0x48 }
  - { offsetInCU: 0x1D561, offset: 0x1D561, size: 0x8, addend: 0x0, symName: __ZNSt8_Rb_treeINSt7__cxx1112basic_stringIcSt11char_traitsIcESaIcEEESt4pairIKS5_PFiiEESt10_Select1stISA_ESt4lessIS5_ESaISA_EE5beginEv, symObjAddr: 0x2094, symBinAddr: 0x1000055CC, symSize: 0x28 }
  - { offsetInCU: 0x1D58B, offset: 0x1D58B, size: 0x8, addend: 0x0, symName: __ZNSt8_Rb_treeINSt7__cxx1112basic_stringIcSt11char_traitsIcESaIcEEESt4pairIKS5_PFiiEESt10_Select1stISA_ESt4lessIS5_ESaISA_EE17_M_construct_nodeIJRKSt21piecewise_construct_tSt5tupleIJRS7_EESL_IJEEEEEvPSt13_Rb_tree_nodeISA_EDpOT_, symObjAddr: 0x1F18, symBinAddr: 0x100005450, symSize: 0x17C }
  - { offsetInCU: 0x1D68C, offset: 0x1D68C, size: 0x8, addend: 0x0, symName: __ZNSt8_Rb_treeINSt7__cxx1112basic_stringIcSt11char_traitsIcESaIcEEESt4pairIKS5_PFiiEESt10_Select1stISA_ESt4lessIS5_ESaISA_EE11_M_get_nodeEv, symObjAddr: 0x1EDC, symBinAddr: 0x100005414, symSize: 0x3C }
  - { offsetInCU: 0x1D6E8, offset: 0x1D6E8, size: 0x8, addend: 0x0, symName: __ZN9__gnu_cxx16__aligned_membufISt4pairIKNSt7__cxx1112basic_stringIcSt11char_traitsIcESaIcEEEPFiiEEE7_M_addrEv, symObjAddr: 0x1EC8, symBinAddr: 0x100005400, symSize: 0x14 }
  - { offsetInCU: 0x1D711, offset: 0x1D711, size: 0x8, addend: 0x0, symName: __ZNKSt13_Rb_tree_nodeISt4pairIKNSt7__cxx1112basic_stringIcSt11char_traitsIcESaIcEEEPFiiEEE9_M_valptrEv, symObjAddr: 0x1EA8, symBinAddr: 0x1000053E0, symSize: 0x20 }
  - { offsetInCU: 0x1D79A, offset: 0x1D79A, size: 0x8, addend: 0x0, symName: __ZNSt8_Rb_treeINSt7__cxx1112basic_stringIcSt11char_traitsIcESaIcEEESt4pairIKS5_PFiiEESt10_Select1stISA_ESt4lessIS5_ESaISA_EE21_M_get_Node_allocatorEv, symObjAddr: 0x1E94, symBinAddr: 0x1000053CC, symSize: 0x14 }
  - { offsetInCU: 0x1D7CF, offset: 0x1D7CF, size: 0x8, addend: 0x0, symName: __ZNKSt8_Rb_treeINSt7__cxx1112basic_stringIcSt11char_traitsIcESaIcEEESt4pairIKS5_PFiiEESt10_Select1stISA_ESt4lessIS5_ESaISA_EE11_Alloc_nodeclIRKSA_EEPSt13_Rb_tree_nodeISA_EOT_, symObjAddr: 0x1E58, symBinAddr: 0x100005390, symSize: 0x3C }
  - { offsetInCU: 0x1D82E, offset: 0x1D82E, size: 0x8, addend: 0x0, symName: __ZNSt8_Rb_treeINSt7__cxx1112basic_stringIcSt11char_traitsIcESaIcEEESt4pairIKS5_PFiiEESt10_Select1stISA_ESt4lessIS5_ESaISA_EE14_M_insert_nodeEPSt18_Rb_tree_node_baseSI_PSt13_Rb_tree_nodeISA_E, symObjAddr: 0x1D88, symBinAddr: 0x1000052C0, symSize: 0xD0 }
  - { offsetInCU: 0x1D89C, offset: 0x1D89C, size: 0x8, addend: 0x0, symName: __ZNSt17_Rb_tree_iteratorISt4pairIKNSt7__cxx1112basic_stringIcSt11char_traitsIcESaIcEEEPFiiEEEppEv, symObjAddr: 0x1D58, symBinAddr: 0x100005290, symSize: 0x30 }
  - { offsetInCU: 0x1D8C6, offset: 0x1D8C6, size: 0x8, addend: 0x0, symName: __ZNSt17_Rb_tree_iteratorISt4pairIKNSt7__cxx1112basic_stringIcSt11char_traitsIcESaIcEEEPFiiEEEmmEv, symObjAddr: 0x1D28, symBinAddr: 0x100005260, symSize: 0x30 }
  - { offsetInCU: 0x1D972, offset: 0x1D972, size: 0x8, addend: 0x0, symName: __ZNSt4pairIPSt18_Rb_tree_node_baseS1_EC1IRS1_S4_Lb1EEEOT_OT0_, symObjAddr: 0x1CE0, symBinAddr: 0x100005218, symSize: 0x48 }
  - { offsetInCU: 0x1D982, offset: 0x1D982, size: 0x8, addend: 0x0, symName: __ZNSt8_Rb_treeINSt7__cxx1112basic_stringIcSt11char_traitsIcESaIcEEESt4pairIKS5_PFiiEESt10_Select1stISA_ESt4lessIS5_ESaISA_EE11_M_leftmostEv, symObjAddr: 0x1CC8, symBinAddr: 0x100005200, symSize: 0x18 }
  - { offsetInCU: 0x1D9AC, offset: 0x1D9AC, size: 0x8, addend: 0x0, symName: __ZNSt8_Rb_treeINSt7__cxx1112basic_stringIcSt11char_traitsIcESaIcEEESt4pairIKS5_PFiiEESt10_Select1stISA_ESt4lessIS5_ESaISA_EE24_M_get_insert_unique_posERS7_, symObjAddr: 0x1B70, symBinAddr: 0x1000050A8, symSize: 0x158 }
  - { offsetInCU: 0x1DAB2, offset: 0x1DAB2, size: 0x8, addend: 0x0, symName: __ZNSt4pairIPSt18_Rb_tree_node_baseS1_EC1IS1_S1_Lb1EEERKS1_S5_, symObjAddr: 0x1B34, symBinAddr: 0x10000506C, symSize: 0x3C }
  - { offsetInCU: 0x1DAC2, offset: 0x1DAC2, size: 0x8, addend: 0x0, symName: __ZNSt8_Rb_treeINSt7__cxx1112basic_stringIcSt11char_traitsIcESaIcEEESt4pairIKS5_PFiiEESt10_Select1stISA_ESt4lessIS5_ESaISA_EE12_M_rightmostEv, symObjAddr: 0x1B1C, symBinAddr: 0x100005054, symSize: 0x18 }
  - { offsetInCU: 0x1DAEC, offset: 0x1DAEC, size: 0x8, addend: 0x0, symName: __ZNKSt8_Rb_treeINSt7__cxx1112basic_stringIcSt11char_traitsIcESaIcEEESt4pairIKS5_PFiiEESt10_Select1stISA_ESt4lessIS5_ESaISA_EE4sizeEv, symObjAddr: 0x1B04, symBinAddr: 0x10000503C, symSize: 0x18 }
  - { offsetInCU: 0x1DB16, offset: 0x1DB16, size: 0x8, addend: 0x0, symName: __ZNKSt23_Rb_tree_const_iteratorISt4pairIKNSt7__cxx1112basic_stringIcSt11char_traitsIcESaIcEEEPFiiEEE13_M_const_castEv, symObjAddr: 0x1ADC, symBinAddr: 0x100005014, symSize: 0x28 }
  - { offsetInCU: 0x1DB40, offset: 0x1DB40, size: 0x8, addend: 0x0, symName: __ZNSt8_Rb_treeINSt7__cxx1112basic_stringIcSt11char_traitsIcESaIcEEESt4pairIKS5_PFiiEESt10_Select1stISA_ESt4lessIS5_ESaISA_EE14_M_create_nodeIJRKSt21piecewise_construct_tSt5tupleIJRS7_EESL_IJEEEEEPSt13_Rb_tree_nodeISA_EDpOT_, symObjAddr: 0x1A6C, symBinAddr: 0x100004FA4, symSize: 0x70 }
  - { offsetInCU: 0x1DC2D, offset: 0x1DC2D, size: 0x8, addend: 0x0, symName: __ZNSt10_Head_baseILm0ERKNSt7__cxx1112basic_stringIcSt11char_traitsIcESaIcEEELb0EEC2ES7_, symObjAddr: 0x1A48, symBinAddr: 0x100004F80, symSize: 0x24 }
  - { offsetInCU: 0x1DC08, offset: 0x1DC08, size: 0x8, addend: 0x0, symName: __ZN9__gnu_cxx16__aligned_membufISt4pairIKNSt7__cxx1112basic_stringIcSt11char_traitsIcESaIcEEEPFiiEEE6_M_ptrEv, symObjAddr: 0x1A2C, symBinAddr: 0x100004F64, symSize: 0x1C }
  - { offsetInCU: 0x1DC2E, offset: 0x1DC2E, size: 0x8, addend: 0x0, symName: __ZNSt8_Rb_treeINSt7__cxx1112basic_stringIcSt11char_traitsIcESaIcEEESt4pairIKS5_PFiiEESt10_Select1stISA_ESt4lessIS5_ESaISA_EE6_S_keyEPKSt13_Rb_tree_nodeISA_E, symObjAddr: 0x1A04, symBinAddr: 0x100004F3C, symSize: 0x28 }
  - { offsetInCU: 0x1DC5C, offset: 0x1DC5C, size: 0x8, addend: 0x0, symName: __ZNSt8_Rb_treeINSt7__cxx1112basic_stringIcSt11char_traitsIcESaIcEEESt4pairIKS5_PFiiEESt10_Select1stISA_ESt4lessIS5_ESaISA_EE11_M_put_nodeEPSt13_Rb_tree_nodeISA_E, symObjAddr: 0x19B8, symBinAddr: 0x100004EF0, symSize: 0x4C }
  - { offsetInCU: 0x1DCCD, offset: 0x1DCCD, size: 0x8, addend: 0x0, symName: __ZNSt8_Rb_treeINSt7__cxx1112basic_stringIcSt11char_traitsIcESaIcEEESt4pairIKS5_PFiiEESt10_Select1stISA_ESt4lessIS5_ESaISA_EE15_M_destroy_nodeEPSt13_Rb_tree_nodeISA_E, symObjAddr: 0x1958, symBinAddr: 0x100004E90, symSize: 0x60 }
  - { offsetInCU: 0x1DD68, offset: 0x1DD68, size: 0x8, addend: 0x0, symName: __ZNSt8_Rb_treeINSt7__cxx1112basic_stringIcSt11char_traitsIcESaIcEEESt4pairIKS5_PFiiEESt10_Select1stISA_ESt4lessIS5_ESaISA_EE10_M_insert_IRKSA_NSG_11_Alloc_nodeEEESt17_Rb_tree_iteratorISA_EPSt18_Rb_tree_node_baseSO_OT_RT0_, symObjAddr: 0x1868, symBinAddr: 0x100004DA0, symSize: 0xF0 }
  - { offsetInCU: 0x1DE0D, offset: 0x1DE0D, size: 0x8, addend: 0x0, symName: __ZSt7forwardIRKSt4pairIKNSt7__cxx1112basic_stringIcSt11char_traitsIcESaIcEEEPFiiEEEOT_RNSt16remove_referenceISD_E4typeE, symObjAddr: 0x1854, symBinAddr: 0x100004D8C, symSize: 0x14 }
  - { offsetInCU: 0x1DE43, offset: 0x1DE43, size: 0x8, addend: 0x0, symName: __ZNKSt10_Select1stISt4pairIKNSt7__cxx1112basic_stringIcSt11char_traitsIcESaIcEEEPFiiEEEclERKSA_, symObjAddr: 0x183C, symBinAddr: 0x100004D74, symSize: 0x18 }
  - { offsetInCU: 0x1DF04, offset: 0x1DF04, size: 0x8, addend: 0x0, symName: __ZNSt20_Rb_tree_key_compareISt4lessINSt7__cxx1112basic_stringIcSt11char_traitsIcESaIcEEEEEC2ERKS7_, symObjAddr: 0x1824, symBinAddr: 0x100004D5C, symSize: 0x18 }
  - { offsetInCU: 0x1DEFA, offset: 0x1DEFA, size: 0x8, addend: 0x0, symName: __ZSt4moveIRSaISt13_Rb_tree_nodeISt4pairIKNSt7__cxx1112basic_stringIcSt11char_traitsIcESaIcEEEPFiiEEEEEONSt16remove_referenceIT_E4typeEOSG_, symObjAddr: 0x1810, symBinAddr: 0x100004D48, symSize: 0x14 }
  - { offsetInCU: 0x1DF76, offset: 0x1DF76, size: 0x8, addend: 0x0, symName: __ZNSt8_Rb_treeINSt7__cxx1112basic_stringIcSt11char_traitsIcESaIcEEESt4pairIKS5_PFiiEESt10_Select1stISA_ESt4lessIS5_ESaISA_EE10_Auto_node9_M_insertES6_IPSt18_Rb_tree_node_baseSJ_E, symObjAddr: 0x17C4, symBinAddr: 0x100004CFC, symSize: 0x4C }
  - { offsetInCU: 0x1DFC2, offset: 0x1DFC2, size: 0x8, addend: 0x0, symName: __ZNKSt8_Rb_treeINSt7__cxx1112basic_stringIcSt11char_traitsIcESaIcEEESt4pairIKS5_PFiiEESt10_Select1stISA_ESt4lessIS5_ESaISA_EE10_Auto_node6_M_keyEv, symObjAddr: 0x17A4, symBinAddr: 0x100004CDC, symSize: 0x20 }
  - { offsetInCU: 0x1DFEC, offset: 0x1DFEC, size: 0x8, addend: 0x0, symName: __ZNSt8_Rb_treeINSt7__cxx1112basic_stringIcSt11char_traitsIcESaIcEEESt4pairIKS5_PFiiEESt10_Select1stISA_ESt4lessIS5_ESaISA_EE29_M_get_insert_hint_unique_posESt23_Rb_tree_const_iteratorISA_ERS7_, symObjAddr: 0x1480, symBinAddr: 0x1000049B8, symSize: 0x324 }
  - { offsetInCU: 0x1E144, offset: 0x1E144, size: 0x8, addend: 0x0, symName: __ZNSt8_Rb_treeINSt7__cxx1112basic_stringIcSt11char_traitsIcESaIcEEESt4pairIKS5_PFiiEESt10_Select1stISA_ESt4lessIS5_ESaISA_EE10_Auto_nodeD1Ev, symObjAddr: 0x143C, symBinAddr: 0x100004974, symSize: 0x44 }
  - { offsetInCU: 0x1E1FB, offset: 0x1E1FB, size: 0x8, addend: 0x0, symName: __ZNSt8_Rb_treeINSt7__cxx1112basic_stringIcSt11char_traitsIcESaIcEEESt4pairIKS5_PFiiEESt10_Select1stISA_ESt4lessIS5_ESaISA_EE10_Auto_nodeC1IJRKSt21piecewise_construct_tSt5tupleIJRS7_EESM_IJEEEEERSG_DpOT_, symObjAddr: 0x13C0, symBinAddr: 0x1000048F8, symSize: 0x7C }
  - { offsetInCU: 0x1E19C, offset: 0x1E19C, size: 0x8, addend: 0x0, symName: __ZSt7forwardISt5tupleIJEEEOT_RNSt16remove_referenceIS2_E4typeE, symObjAddr: 0x13AC, symBinAddr: 0x1000048E4, symSize: 0x14 }
  - { offsetInCU: 0x1E1D4, offset: 0x1E1D4, size: 0x8, addend: 0x0, symName: __ZSt7forwardISt5tupleIJRKNSt7__cxx1112basic_stringIcSt11char_traitsIcESaIcEEEEEEOT_RNSt16remove_referenceISA_E4typeE, symObjAddr: 0x1398, symBinAddr: 0x1000048D0, symSize: 0x14 }
  - { offsetInCU: 0x1E20C, offset: 0x1E20C, size: 0x8, addend: 0x0, symName: __ZSt7forwardIRKSt21piecewise_construct_tEOT_RNSt16remove_referenceIS3_E4typeE, symObjAddr: 0x1384, symBinAddr: 0x1000048BC, symSize: 0x14 }
  - { offsetInCU: 0x1E2BD, offset: 0x1E2BD, size: 0x8, addend: 0x0, symName: __ZNSt11_Tuple_implILm0EJRKNSt7__cxx1112basic_stringIcSt11char_traitsIcESaIcEEEEEC2ES7_, symObjAddr: 0x135C, symBinAddr: 0x100004894, symSize: 0x28 }
  - { offsetInCU: 0x1E295, offset: 0x1E295, size: 0x8, addend: 0x0, symName: __ZStltIcSt11char_traitsIcESaIcEEbRKNSt7__cxx1112basic_stringIT_T0_T1_EESA_, symObjAddr: 0x1330, symBinAddr: 0x100004868, symSize: 0x2C }
  - { offsetInCU: 0x1E2EF, offset: 0x1E2EF, size: 0x8, addend: 0x0, symName: __ZNSt13_Rb_tree_nodeISt4pairIKNSt7__cxx1112basic_stringIcSt11char_traitsIcESaIcEEEPFiiEEE9_M_valptrEv, symObjAddr: 0x1310, symBinAddr: 0x100004848, symSize: 0x20 }
  - { offsetInCU: 0x1E319, offset: 0x1E319, size: 0x8, addend: 0x0, symName: __ZNKSt8_Rb_treeINSt7__cxx1112basic_stringIcSt11char_traitsIcESaIcEEESt4pairIKS5_PFiiEESt10_Select1stISA_ESt4lessIS5_ESaISA_EE8key_compEv, symObjAddr: 0x12F8, symBinAddr: 0x100004830, symSize: 0x18 }
  - { offsetInCU: 0x1E343, offset: 0x1E343, size: 0x8, addend: 0x0, symName: __ZNSt8_Rb_treeINSt7__cxx1112basic_stringIcSt11char_traitsIcESaIcEEESt4pairIKS5_PFiiEESt10_Select1stISA_ESt4lessIS5_ESaISA_EE11lower_boundERS7_, symObjAddr: 0x12B0, symBinAddr: 0x1000047E8, symSize: 0x48 }
  - { offsetInCU: 0x1E41A, offset: 0x1E41A, size: 0x8, addend: 0x0, symName: __ZNSt17_Rb_tree_iteratorISt4pairIKNSt7__cxx1112basic_stringIcSt11char_traitsIcESaIcEEEPFiiEEEC1EPSt18_Rb_tree_node_base, symObjAddr: 0x128C, symBinAddr: 0x1000047C4, symSize: 0x24 }
  - { offsetInCU: 0x1E3D1, offset: 0x1E3D1, size: 0x8, addend: 0x0, symName: __ZNSt8_Rb_treeINSt7__cxx1112basic_stringIcSt11char_traitsIcESaIcEEESt4pairIKS5_PFiiEESt10_Select1stISA_ESt4lessIS5_ESaISA_EE6_S_keyEPKSt18_Rb_tree_node_base, symObjAddr: 0x1270, symBinAddr: 0x1000047A8, symSize: 0x1C }
  - { offsetInCU: 0x1E3FF, offset: 0x1E3FF, size: 0x8, addend: 0x0, symName: __ZNSt8_Rb_treeINSt7__cxx1112basic_stringIcSt11char_traitsIcESaIcEEESt4pairIKS5_PFiiEESt10_Select1stISA_ESt4lessIS5_ESaISA_EE14_M_lower_boundEPSt13_Rb_tree_nodeISA_EPSt18_Rb_tree_node_baseRS7_, symObjAddr: 0x11D4, symBinAddr: 0x10000470C, symSize: 0x9C }
  - { offsetInCU: 0x1E45C, offset: 0x1E45C, size: 0x8, addend: 0x0, symName: __ZNSt8_Rb_treeINSt7__cxx1112basic_stringIcSt11char_traitsIcESaIcEEESt4pairIKS5_PFiiEESt10_Select1stISA_ESt4lessIS5_ESaISA_EE6_M_endEv, symObjAddr: 0x11BC, symBinAddr: 0x1000046F4, symSize: 0x18 }
  - { offsetInCU: 0x1E486, offset: 0x1E486, size: 0x8, addend: 0x0, symName: __ZNKSt8_Rb_treeINSt7__cxx1112basic_stringIcSt11char_traitsIcESaIcEEESt4pairIKS5_PFiiEESt10_Select1stISA_ESt4lessIS5_ESaISA_EE9_M_mbeginEv, symObjAddr: 0x11A4, symBinAddr: 0x1000046DC, symSize: 0x18 }
  - { offsetInCU: 0x1E4B0, offset: 0x1E4B0, size: 0x8, addend: 0x0, symName: __ZNSt8_Rb_treeINSt7__cxx1112basic_stringIcSt11char_traitsIcESaIcEEESt4pairIKS5_PFiiEESt10_Select1stISA_ESt4lessIS5_ESaISA_EE12_M_drop_nodeEPSt13_Rb_tree_nodeISA_E, symObjAddr: 0x1170, symBinAddr: 0x1000046A8, symSize: 0x34 }
  - { offsetInCU: 0x1E4E7, offset: 0x1E4E7, size: 0x8, addend: 0x0, symName: __ZNSt8_Rb_treeINSt7__cxx1112basic_stringIcSt11char_traitsIcESaIcEEESt4pairIKS5_PFiiEESt10_Select1stISA_ESt4lessIS5_ESaISA_EE7_S_leftEPSt18_Rb_tree_node_base, symObjAddr: 0x1158, symBinAddr: 0x100004690, symSize: 0x18 }
  - { offsetInCU: 0x1E511, offset: 0x1E511, size: 0x8, addend: 0x0, symName: __ZNSt8_Rb_treeINSt7__cxx1112basic_stringIcSt11char_traitsIcESaIcEEESt4pairIKS5_PFiiEESt10_Select1stISA_ESt4lessIS5_ESaISA_EE8_S_rightEPSt18_Rb_tree_node_base, symObjAddr: 0x1140, symBinAddr: 0x100004678, symSize: 0x18 }
  - { offsetInCU: 0x1E5D2, offset: 0x1E5D2, size: 0x8, addend: 0x0, symName: __ZNSt15__new_allocatorISt13_Rb_tree_nodeISt4pairIKNSt7__cxx1112basic_stringIcSt11char_traitsIcESaIcEEEPFiiEEEED2Ev, symObjAddr: 0x112C, symBinAddr: 0x100004664, symSize: 0x14 }
  - { offsetInCU: 0x1E589, offset: 0x1E589, size: 0x8, addend: 0x0, symName: __ZNSt8_Rb_treeINSt7__cxx1112basic_stringIcSt11char_traitsIcESaIcEEESt4pairIKS5_PFiiEESt10_Select1stISA_ESt4lessIS5_ESaISA_EE17_M_insert_unique_IRKSA_NSG_11_Alloc_nodeEEESt17_Rb_tree_iteratorISA_ESt23_Rb_tree_const_iteratorISA_EOT_RT0_, symObjAddr: 0x109C, symBinAddr: 0x1000045D4, symSize: 0x90 }
  - { offsetInCU: 0x1E6BE, offset: 0x1E6BE, size: 0x8, addend: 0x0, symName: __ZNSt8_Rb_treeINSt7__cxx1112basic_stringIcSt11char_traitsIcESaIcEEESt4pairIKS5_PFiiEESt10_Select1stISA_ESt4lessIS5_ESaISA_EE11_Alloc_nodeC1ERSG_, symObjAddr: 0x1078, symBinAddr: 0x1000045B0, symSize: 0x24 }
  - { offsetInCU: 0x1E660, offset: 0x1E660, size: 0x8, addend: 0x0, symName: __ZNKSt16initializer_listISt4pairIKNSt7__cxx1112basic_stringIcSt11char_traitsIcESaIcEEEPFiiEEE4sizeEv, symObjAddr: 0x1060, symBinAddr: 0x100004598, symSize: 0x18 }
  - { offsetInCU: 0x1E774, offset: 0x1E774, size: 0x8, addend: 0x0, symName: __ZNSt8_Rb_treeINSt7__cxx1112basic_stringIcSt11char_traitsIcESaIcEEESt4pairIKS5_PFiiEESt10_Select1stISA_ESt4lessIS5_ESaISA_EE13_Rb_tree_implISE_Lb1EEC1ERKSE_OSaISt13_Rb_tree_nodeISA_EE, symObjAddr: 0xFF8, symBinAddr: 0x100004530, symSize: 0x68 }
  - { offsetInCU: 0x1E7BB, offset: 0x1E7BB, size: 0x8, addend: 0x0, symName: __ZNSt8_Rb_treeINSt7__cxx1112basic_stringIcSt11char_traitsIcESaIcEEESt4pairIKS5_PFiiEESt10_Select1stISA_ESt4lessIS5_ESaISA_EE22_M_emplace_hint_uniqueIJRKSt21piecewise_construct_tSt5tupleIJRS7_EESL_IJEEEEESt17_Rb_tree_iteratorISA_ESt23_Rb_tree_const_iteratorISA_EDpOT_, symObjAddr: 0xF20, symBinAddr: 0x100004458, symSize: 0xD8 }
  - { offsetInCU: 0x1E8F9, offset: 0x1E8F9, size: 0x8, addend: 0x0, symName: __ZNSt23_Rb_tree_const_iteratorISt4pairIKNSt7__cxx1112basic_stringIcSt11char_traitsIcESaIcEEEPFiiEEEC1ERKSt17_Rb_tree_iteratorISA_E, symObjAddr: 0xEF8, symBinAddr: 0x100004430, symSize: 0x28 }
  - { offsetInCU: 0x1E92D, offset: 0x1E92D, size: 0x8, addend: 0x0, symName: __ZNSt5tupleIJRKNSt7__cxx1112basic_stringIcSt11char_traitsIcESaIcEEEEEC1ILb1ELb1EEES7_, symObjAddr: 0xED0, symBinAddr: 0x100004408, symSize: 0x28 }
  - { offsetInCU: 0x1E914, offset: 0x1E914, size: 0x8, addend: 0x0, symName: __ZNKSt4lessINSt7__cxx1112basic_stringIcSt11char_traitsIcESaIcEEEEclERKS5_S8_, symObjAddr: 0xEA8, symBinAddr: 0x1000043E0, symSize: 0x28 }
  - { offsetInCU: 0x1E960, offset: 0x1E960, size: 0x8, addend: 0x0, symName: __ZNKSt17_Rb_tree_iteratorISt4pairIKNSt7__cxx1112basic_stringIcSt11char_traitsIcESaIcEEEPFiiEEEdeEv, symObjAddr: 0xE88, symBinAddr: 0x1000043C0, symSize: 0x20 }
  - { offsetInCU: 0x1E98A, offset: 0x1E98A, size: 0x8, addend: 0x0, symName: __ZNKSt3mapINSt7__cxx1112basic_stringIcSt11char_traitsIcESaIcEEEPFiiESt4lessIS5_ESaISt4pairIKS5_S7_EEE8key_compEv, symObjAddr: 0xE5C, symBinAddr: 0x100004394, symSize: 0x2C }
  - { offsetInCU: 0x1E9B6, offset: 0x1E9B6, size: 0x8, addend: 0x0, symName: __ZSteqRKSt17_Rb_tree_iteratorISt4pairIKNSt7__cxx1112basic_stringIcSt11char_traitsIcESaIcEEEPFiiEEESD_, symObjAddr: 0xE2C, symBinAddr: 0x100004364, symSize: 0x30 }
  - { offsetInCU: 0x1E9F5, offset: 0x1E9F5, size: 0x8, addend: 0x0, symName: __ZNSt3mapINSt7__cxx1112basic_stringIcSt11char_traitsIcESaIcEEEPFiiESt4lessIS5_ESaISt4pairIKS5_S7_EEE11lower_boundERSB_, symObjAddr: 0xE08, symBinAddr: 0x100004340, symSize: 0x24 }
  - { offsetInCU: 0x1EA30, offset: 0x1EA30, size: 0x8, addend: 0x0, symName: __ZNSt8_Rb_treeINSt7__cxx1112basic_stringIcSt11char_traitsIcESaIcEEESt4pairIKS5_PFiiEESt10_Select1stISA_ESt4lessIS5_ESaISA_EE3endEv, symObjAddr: 0xDE0, symBinAddr: 0x100004318, symSize: 0x28 }
  - { offsetInCU: 0x1EA5A, offset: 0x1EA5A, size: 0x8, addend: 0x0, symName: __ZNSt8_Rb_treeINSt7__cxx1112basic_stringIcSt11char_traitsIcESaIcEEESt4pairIKS5_PFiiEESt10_Select1stISA_ESt4lessIS5_ESaISA_EE4findERS7_, symObjAddr: 0xD38, symBinAddr: 0x100004270, symSize: 0xA8 }
  - { offsetInCU: 0x1EAA6, offset: 0x1EAA6, size: 0x8, addend: 0x0, symName: __ZNSt8_Rb_treeINSt7__cxx1112basic_stringIcSt11char_traitsIcESaIcEEESt4pairIKS5_PFiiEESt10_Select1stISA_ESt4lessIS5_ESaISA_EE8_M_beginEv, symObjAddr: 0xD1C, symBinAddr: 0x100004254, symSize: 0x1C }
  - { offsetInCU: 0x1EAD0, offset: 0x1EAD0, size: 0x8, addend: 0x0, symName: __ZNSt8_Rb_treeINSt7__cxx1112basic_stringIcSt11char_traitsIcESaIcEEESt4pairIKS5_PFiiEESt10_Select1stISA_ESt4lessIS5_ESaISA_EE8_M_eraseEPSt13_Rb_tree_nodeISA_E, symObjAddr: 0xCB8, symBinAddr: 0x1000041F0, symSize: 0x64 }
  - { offsetInCU: 0x1EB4F, offset: 0x1EB4F, size: 0x8, addend: 0x0, symName: __ZNSt8_Rb_treeINSt7__cxx1112basic_stringIcSt11char_traitsIcESaIcEEESt4pairIKS5_PFiiEESt10_Select1stISA_ESt4lessIS5_ESaISA_EE22_M_insert_range_uniqueIPKSA_EENSt9enable_ifIXsrSt7is_sameISA_NSt15iterator_traitsIT_E10value_typeEE5valueEvE4typeESN_SN_, symObjAddr: 0xC38, symBinAddr: 0x100004170, symSize: 0x80 }
  - { offsetInCU: 0x1EBB5, offset: 0x1EBB5, size: 0x8, addend: 0x0, symName: __ZNKSt16initializer_listISt4pairIKNSt7__cxx1112basic_stringIcSt11char_traitsIcESaIcEEEPFiiEEE3endEv, symObjAddr: 0xBF0, symBinAddr: 0x100004128, symSize: 0x48 }
  - { offsetInCU: 0x1EBDF, offset: 0x1EBDF, size: 0x8, addend: 0x0, symName: __ZNKSt16initializer_listISt4pairIKNSt7__cxx1112basic_stringIcSt11char_traitsIcESaIcEEEPFiiEEE5beginEv, symObjAddr: 0xBD8, symBinAddr: 0x100004110, symSize: 0x18 }
  - { offsetInCU: 0x1ECC5, offset: 0x1ECC5, size: 0x8, addend: 0x0, symName: __ZNSt8_Rb_treeINSt7__cxx1112basic_stringIcSt11char_traitsIcESaIcEEESt4pairIKS5_PFiiEESt10_Select1stISA_ESt4lessIS5_ESaISA_EEC1ERKSE_RKSF_, symObjAddr: 0xB60, symBinAddr: 0x100004098, symSize: 0x78 }
  - { offsetInCU: 0x1EDA9, offset: 0x1EDA9, size: 0x8, addend: 0x0, symName: __ZNSt15__new_allocatorISt4pairIKNSt7__cxx1112basic_stringIcSt11char_traitsIcESaIcEEEPFiiEEED2Ev, symObjAddr: 0xB4C, symBinAddr: 0x100004084, symSize: 0x14 }
  - { offsetInCU: 0x1ED89, offset: 0x1ED89, size: 0x8, addend: 0x0, symName: __ZNSt7__cxx1112basic_stringIcSt11char_traitsIcESaIcEE12_M_constructIPKcEEvT_S8_St20forward_iterator_tag, symObjAddr: 0xA4C, symBinAddr: 0x100003F84, symSize: 0x100 }
  - { offsetInCU: 0x1EF06, offset: 0x1EF06, size: 0x8, addend: 0x0, symName: __ZZNSt7__cxx1112basic_stringIcSt11char_traitsIcESaIcEE12_M_constructIPKcEEvT_S8_St20forward_iterator_tagEN6_GuardC1EPS4_, symObjAddr: 0x9F4, symBinAddr: 0x100003F2C, symSize: 0x24 }
  - { offsetInCU: 0x1EF37, offset: 0x1EF37, size: 0x8, addend: 0x0, symName: __ZZNSt7__cxx1112basic_stringIcSt11char_traitsIcESaIcEE12_M_constructIPKcEEvT_S8_St20forward_iterator_tagEN6_GuardD1Ev, symObjAddr: 0xA18, symBinAddr: 0x100003F50, symSize: 0x34 }
  - { offsetInCU: 0x1EFDE, offset: 0x1EFDE, size: 0x8, addend: 0x0, symName: __ZNSt15__new_allocatorIcED2Ev, symObjAddr: 0x9E0, symBinAddr: 0x100003F18, symSize: 0x14 }
  - { offsetInCU: 0x1F028, offset: 0x1F028, size: 0x8, addend: 0x0, symName: __ZN9__gnu_cxx11char_traitsIcE2eqERKcS3_, symObjAddr: 0x9B0, symBinAddr: 0x100003EE8, symSize: 0x30 }
  - { offsetInCU: 0x1F065, offset: 0x1F065, size: 0x8, addend: 0x0, symName: __ZNSt3mapINSt7__cxx1112basic_stringIcSt11char_traitsIcESaIcEEEPFiiESt4lessIS5_ESaISt4pairIKS5_S7_EEEixERSB_, symObjAddr: 0x8C4, symBinAddr: 0x100003DFC, symSize: 0xEC }
  - { offsetInCU: 0x1F0AD, offset: 0x1F0AD, size: 0x8, addend: 0x0, symName: __ZStneRKSt17_Rb_tree_iteratorISt4pairIKNSt7__cxx1112basic_stringIcSt11char_traitsIcESaIcEEEPFiiEEESD_, symObjAddr: 0x894, symBinAddr: 0x100003DCC, symSize: 0x30 }
  - { offsetInCU: 0x1F0EC, offset: 0x1F0EC, size: 0x8, addend: 0x0, symName: __ZNSt3mapINSt7__cxx1112basic_stringIcSt11char_traitsIcESaIcEEEPFiiESt4lessIS5_ESaISt4pairIKS5_S7_EEE3endEv, symObjAddr: 0x878, symBinAddr: 0x100003DB0, symSize: 0x1C }
  - { offsetInCU: 0x1F116, offset: 0x1F116, size: 0x8, addend: 0x0, symName: __ZNSt3mapINSt7__cxx1112basic_stringIcSt11char_traitsIcESaIcEEEPFiiESt4lessIS5_ESaISt4pairIKS5_S7_EEE4findERSB_, symObjAddr: 0x854, symBinAddr: 0x100003D8C, symSize: 0x24 }
  - { offsetInCU: 0x1F1F2, offset: 0x1F1F2, size: 0x8, addend: 0x0, symName: __ZNSt8_Rb_treeINSt7__cxx1112basic_stringIcSt11char_traitsIcESaIcEEESt4pairIKS5_PFiiEESt10_Select1stISA_ESt4lessIS5_ESaISA_EED1Ev, symObjAddr: 0x820, symBinAddr: 0x100003D58, symSize: 0x34 }
  - { offsetInCU: 0x1F258, offset: 0x1F258, size: 0x8, addend: 0x0, symName: __ZNSt8_Rb_treeINSt7__cxx1112basic_stringIcSt11char_traitsIcESaIcEEESt4pairIKS5_PFiiEESt10_Select1stISA_ESt4lessIS5_ESaISA_EE13_Rb_tree_implISE_Lb1EED1Ev, symObjAddr: 0x7F4, symBinAddr: 0x100003D2C, symSize: 0x2C }
  - { offsetInCU: 0x1F2D5, offset: 0x1F2D5, size: 0x8, addend: 0x0, symName: __ZNSt3mapINSt7__cxx1112basic_stringIcSt11char_traitsIcESaIcEEEPFiiESt4lessIS5_ESaISt4pairIKS5_S7_EEEC1ESt16initializer_listISC_ERKS9_RKSD_, symObjAddr: 0x734, symBinAddr: 0x100003C6C, symSize: 0xC0 }
  - { offsetInCU: 0x1F363, offset: 0x1F363, size: 0x8, addend: 0x0, symName: __ZSt7forwardIRFiiEEOT_RNSt16remove_referenceIS2_E4typeE, symObjAddr: 0x720, symBinAddr: 0x100003C58, symSize: 0x14 }
  - { offsetInCU: 0x1F3A1, offset: 0x1F3A1, size: 0x8, addend: 0x0, symName: __ZSt7forwardIRA2_KcEOT_RNSt16remove_referenceIS3_E4typeE, symObjAddr: 0x70C, symBinAddr: 0x100003C44, symSize: 0x14 }
  - { offsetInCU: 0x1F460, offset: 0x1F460, size: 0x8, addend: 0x0, symName: __ZNSt7__cxx1112basic_stringIcSt11char_traitsIcESaIcEEC1IS3_EEPKcRKS3_, symObjAddr: 0x670, symBinAddr: 0x100003BA8, symSize: 0x9C }
  - { offsetInCU: 0x1F524, offset: 0x1F524, size: 0x8, addend: 0x0, symName: __ZNSt7__cxx1112basic_stringIcSt11char_traitsIcESaIcEE12_Alloc_hiderD1Ev, symObjAddr: 0x644, symBinAddr: 0x100003B7C, symSize: 0x2C }
  - { offsetInCU: 0x1F525, offset: 0x1F525, size: 0x8, addend: 0x0, symName: __ZN9__gnu_cxx11char_traitsIcE6lengthEPKc, symObjAddr: 0x5EC, symBinAddr: 0x100003B24, symSize: 0x58 }
  - { offsetInCU: 0x1F567, offset: 0x1F567, size: 0x8, addend: 0x0, symName: _main, symObjAddr: 0x2F4, symBinAddr: 0x10000382C, symSize: 0x2F8 }
  - { offsetInCU: 0x1F6C1, offset: 0x1F6C1, size: 0x8, addend: 0x0, symName: __ZNSt3mapINSt7__cxx1112basic_stringIcSt11char_traitsIcESaIcEEEPFiiESt4lessIS5_ESaISt4pairIKS5_S7_EEED1Ev, symObjAddr: 0x2D4, symBinAddr: 0x10000380C, symSize: 0x20 }
  - { offsetInCU: 0x1F727, offset: 0x1F727, size: 0x8, addend: 0x0, symName: __ZNSt4pairIKNSt7__cxx1112basic_stringIcSt11char_traitsIcESaIcEEEPFiiEEC1IRA2_KcRS7_Lb1EEEOT_OT0_, symObjAddr: 0x244, symBinAddr: 0x10000377C, symSize: 0x90 }
  - { offsetInCU: 0x1F809, offset: 0x1F809, size: 0x8, addend: 0x0, symName: __ZNSt4pairIKNSt7__cxx1112basic_stringIcSt11char_traitsIcESaIcEEEPFiiEED1Ev, symObjAddr: 0x224, symBinAddr: 0x10000375C, symSize: 0x20 }
  - { offsetInCU: 0x1F7F0, offset: 0x1F7F0, size: 0x8, addend: 0x0, symName: __Z1Mi, symObjAddr: 0x1E0, symBinAddr: 0x100003718, symSize: 0x44 }
  - { offsetInCU: 0x1F824, offset: 0x1F824, size: 0x8, addend: 0x0, symName: __Z1Fi, symObjAddr: 0x19C, symBinAddr: 0x1000036D4, symSize: 0x44 }
  - { offsetInCU: 0x1F858, offset: 0x1F858, size: 0x8, addend: 0x0, symName: __Z1Ci, symObjAddr: 0x10C, symBinAddr: 0x100003644, symSize: 0x90 }
  - { offsetInCU: 0x1F8BF, offset: 0x1F8BF, size: 0x8, addend: 0x0, symName: __Z1Hi, symObjAddr: 0xD0, symBinAddr: 0x100003608, symSize: 0x3C }
  - { offsetInCU: 0x1F8EB, offset: 0x1F8EB, size: 0x8, addend: 0x0, symName: __ZNSt15_Rb_tree_header8_M_resetEv, symObjAddr: 0x94, symBinAddr: 0x1000035CC, symSize: 0x3C }
  - { offsetInCU: 0x1F946, offset: 0x1F946, size: 0x8, addend: 0x0, symName: __ZNSt15_Rb_tree_headerC2Ev, symObjAddr: 0x6C, symBinAddr: 0x1000035A4, symSize: 0x28 }
  - { offsetInCU: 0x1F951, offset: 0x1F951, size: 0x8, addend: 0x0, symName: __ZNSt11char_traitsIcE6lengthEPKc, symObjAddr: 0x30, symBinAddr: 0x100003568, symSize: 0x3C }
  - { offsetInCU: 0x1F9A2, offset: 0x1F9A2, size: 0x8, addend: 0x0, symName: __ZdlPvS_, symObjAddr: 0x18, symBinAddr: 0x100003550, symSize: 0x18 }
  - { offsetInCU: 0x1F9D7, offset: 0x1F9D7, size: 0x8, addend: 0x0, symName: __ZnwmPv, symObjAddr: 0x0, symBinAddr: 0x100003538, symSize: 0x18 }
...
