---
triple:          'arm64-apple-darwin'
binary-path:     '/Users/pai/code/CU Grader/output/ThaiToNum'
relocations:
  - { offsetInCU: 0x1E39B, offset: 0x1E39B, size: 0x8, addend: 0x0, symName: __ZStL8__ioinit, symObjAddr: 0x9B468, symBinAddr: 0x10000C000, symSize: 0x0 }
  - { offsetInCU: 0x1E94A, offset: 0x1E94A, size: 0x8, addend: 0x0, symName: __Z3digB5cxx11, symObjAddr: 0x9B470, symBinAddr: 0x10000C008, symSize: 0x0 }
  - { offsetInCU: 0x1E967, offset: 0x1E967, size: 0x8, addend: 0x0, symName: __Z4multB5cxx11, symObjAddr: 0x9B4A0, symBinAddr: 0x10000C038, symSize: 0x0 }
  - { offsetInCU: 0x1EE28, offset: 0x1EE28, size: 0x8, addend: 0x0, symName: __ZNSt3mapINSt7__cxx1112basic_stringIcSt11char_traitsIcESaIcEEEiSt4lessIS5_ESaISt4pairIKS5_iEEED1Ev, symObjAddr: 0x356C, symBinAddr: 0x100004350, symSize: 0x20 }
  - { offsetInCU: 0x1EDEB, offset: 0x1EDEB, size: 0x8, addend: 0x0, symName: __ZNSt10_Head_baseILm0ERKNSt7__cxx1112basic_stringIcSt11char_traitsIcESaIcEEELb0EE7_M_headERS8_, symObjAddr: 0x3554, symBinAddr: 0x100004338, symSize: 0x18 }
  - { offsetInCU: 0x1EE14, offset: 0x1EE14, size: 0x8, addend: 0x0, symName: __ZNSt11_Tuple_implILm0EJRKNSt7__cxx1112basic_stringIcSt11char_traitsIcESaIcEEEEE7_M_headERS8_, symObjAddr: 0x3538, symBinAddr: 0x10000431C, symSize: 0x1C }
  - { offsetInCU: 0x1EE3E, offset: 0x1EE3E, size: 0x8, addend: 0x0, symName: __ZSt12__get_helperILm0ERKNSt7__cxx1112basic_stringIcSt11char_traitsIcESaIcEEEJEERT0_RSt11_Tuple_implIXT_EJS8_DpT1_EE, symObjAddr: 0x351C, symBinAddr: 0x100004300, symSize: 0x1C }
  - { offsetInCU: 0x1EE80, offset: 0x1EE80, size: 0x8, addend: 0x0, symName: __ZSt3getILm0EJRKNSt7__cxx1112basic_stringIcSt11char_traitsIcESaIcEEEEERNSt13tuple_elementIXT_ESt5tupleIJDpT0_EEE4typeERSC_, symObjAddr: 0x3500, symBinAddr: 0x1000042E4, symSize: 0x1C }
  - { offsetInCU: 0x1EFC7, offset: 0x1EFC7, size: 0x8, addend: 0x0, symName: __ZNSt4pairIKNSt7__cxx1112basic_stringIcSt11char_traitsIcESaIcEEEiEC1IJRS6_EJLm0EEJEJEEERSt5tupleIJDpT_EERSA_IJDpT1_EESt12_Index_tupleIJXspT0_EEESJ_IJXspT2_EEE, symObjAddr: 0x34AC, symBinAddr: 0x100004290, symSize: 0x54 }
  - { offsetInCU: 0x1F047, offset: 0x1F047, size: 0x8, addend: 0x0, symName: __ZNSt4pairIKNSt7__cxx1112basic_stringIcSt11char_traitsIcESaIcEEEiEC1ERKS7_, symObjAddr: 0x3474, symBinAddr: 0x100004258, symSize: 0x38 }
  - { offsetInCU: 0x1F0FB, offset: 0x1F0FB, size: 0x8, addend: 0x0, symName: __ZNSt4pairIKNSt7__cxx1112basic_stringIcSt11char_traitsIcESaIcEEEiEC1IJRS6_EJEEESt21piecewise_construct_tSt5tupleIJDpT_EESB_IJDpT0_EE, symObjAddr: 0x3438, symBinAddr: 0x10000421C, symSize: 0x3C }
  - { offsetInCU: 0x1F148, offset: 0x1F148, size: 0x8, addend: 0x0, symName: __ZNSt11_Tuple_implILm0EJRKNSt7__cxx1112basic_stringIcSt11char_traitsIcESaIcEEEEEC2EOS8_, symObjAddr: 0x3410, symBinAddr: 0x1000041F4, symSize: 0x28 }
  - { offsetInCU: 0x1F168, offset: 0x1F168, size: 0x8, addend: 0x0, symName: __ZSt7forwardINSt7__cxx1112basic_stringIcSt11char_traitsIcESaIcEEEEOT_RNSt16remove_referenceIS6_E4typeE, symObjAddr: 0x33FC, symBinAddr: 0x1000041E0, symSize: 0x14 }
  - { offsetInCU: 0x1F2AE, offset: 0x1F2AE, size: 0x8, addend: 0x0, symName: __ZNSt5tupleIJRKNSt7__cxx1112basic_stringIcSt11char_traitsIcESaIcEEEEEC1EOS8_, symObjAddr: 0x33D4, symBinAddr: 0x1000041B8, symSize: 0x28 }
  - { offsetInCU: 0x1F294, offset: 0x1F294, size: 0x8, addend: 0x0, symName: __ZNSt15__new_allocatorISt13_Rb_tree_nodeISt4pairIKNSt7__cxx1112basic_stringIcSt11char_traitsIcESaIcEEEiEEE8allocateEmPKv, symObjAddr: 0x333C, symBinAddr: 0x100004120, symSize: 0x98 }
  - { offsetInCU: 0x1F325, offset: 0x1F325, size: 0x8, addend: 0x0, symName: __ZNK9__gnu_cxx16__aligned_membufISt4pairIKNSt7__cxx1112basic_stringIcSt11char_traitsIcESaIcEEEiEE7_M_addrEv, symObjAddr: 0x3328, symBinAddr: 0x10000410C, symSize: 0x14 }
  - { offsetInCU: 0x1F3A8, offset: 0x1F3A8, size: 0x8, addend: 0x0, symName: __ZNSt8_Rb_treeINSt7__cxx1112basic_stringIcSt11char_traitsIcESaIcEEESt4pairIKS5_iESt10_Select1stIS8_ESt4lessIS5_ESaIS8_EE17_M_construct_nodeIJRKS8_EEEvPSt13_Rb_tree_nodeIS8_EDpOT_, symObjAddr: 0x3224, symBinAddr: 0x100004008, symSize: 0x104 }
  - { offsetInCU: 0x1F463, offset: 0x1F463, size: 0x8, addend: 0x0, symName: __ZNSt15__new_allocatorISt13_Rb_tree_nodeISt4pairIKNSt7__cxx1112basic_stringIcSt11char_traitsIcESaIcEEEiEEE10deallocateEPSA_m, symObjAddr: 0x31E8, symBinAddr: 0x100003FCC, symSize: 0x3C }
  - { offsetInCU: 0x1F4E3, offset: 0x1F4E3, size: 0x8, addend: 0x0, symName: __ZSt7forwardIRPSt13_Rb_tree_nodeISt4pairIKNSt7__cxx1112basic_stringIcSt11char_traitsIcESaIcEEEiEEEOT_RNSt16remove_referenceISD_E4typeE, symObjAddr: 0x31D4, symBinAddr: 0x100003FB8, symSize: 0x14 }
  - { offsetInCU: 0x1F595, offset: 0x1F595, size: 0x8, addend: 0x0, symName: __ZNK9__gnu_cxx16__aligned_membufISt4pairIKNSt7__cxx1112basic_stringIcSt11char_traitsIcESaIcEEEiEE6_M_ptrEv, symObjAddr: 0x31B8, symBinAddr: 0x100003F9C, symSize: 0x1C }
  - { offsetInCU: 0x1F5BB, offset: 0x1F5BB, size: 0x8, addend: 0x0, symName: __ZSt19__relocate_object_aINSt7__cxx1112basic_stringIcSt11char_traitsIcESaIcEEES5_SaIS5_EEvPT_PT0_RT1_, symObjAddr: 0x30E8, symBinAddr: 0x100003ECC, symSize: 0xD0 }
  - { offsetInCU: 0x1F707, offset: 0x1F707, size: 0x8, addend: 0x0, symName: __ZNSt8_Rb_treeINSt7__cxx1112basic_stringIcSt11char_traitsIcESaIcEEESt4pairIKS5_iESt10_Select1stIS8_ESt4lessIS5_ESaIS8_EE14_M_create_nodeIJRKS8_EEEPSt13_Rb_tree_nodeIS8_EDpOT_, symObjAddr: 0x30A8, symBinAddr: 0x100003E8C, symSize: 0x40 }
  - { offsetInCU: 0x1F7BC, offset: 0x1F7BC, size: 0x8, addend: 0x0, symName: __ZNSt8_Rb_treeINSt7__cxx1112basic_stringIcSt11char_traitsIcESaIcEEESt4pairIKS5_iESt10_Select1stIS8_ESt4lessIS5_ESaIS8_EE21_M_get_Node_allocatorEv, symObjAddr: 0x3094, symBinAddr: 0x100003E78, symSize: 0x14 }
  - { offsetInCU: 0x1F7E9, offset: 0x1F7E9, size: 0x8, addend: 0x0, symName: __ZSt7forwardIRPSt18_Rb_tree_node_baseEOT_RNSt16remove_referenceIS3_E4typeE, symObjAddr: 0x3080, symBinAddr: 0x100003E64, symSize: 0x14 }
  - { offsetInCU: 0x1F8ED, offset: 0x1F8ED, size: 0x8, addend: 0x0, symName: __ZNSt4pairIPSt18_Rb_tree_node_baseS1_EC1IRPSt13_Rb_tree_nodeIS_IKNSt7__cxx1112basic_stringIcSt11char_traitsIcESaIcEEEiEERS1_Lb1EEEOT_OT0_, symObjAddr: 0x3038, symBinAddr: 0x100003E1C, symSize: 0x48 }
  - { offsetInCU: 0x1F8B1, offset: 0x1F8B1, size: 0x8, addend: 0x0, symName: __ZNSt8_Rb_treeINSt7__cxx1112basic_stringIcSt11char_traitsIcESaIcEEESt4pairIKS5_iESt10_Select1stIS8_ESt4lessIS5_ESaIS8_EE5beginEv, symObjAddr: 0x3010, symBinAddr: 0x100003DF4, symSize: 0x28 }
  - { offsetInCU: 0x1F8DB, offset: 0x1F8DB, size: 0x8, addend: 0x0, symName: __ZNSt8_Rb_treeINSt7__cxx1112basic_stringIcSt11char_traitsIcESaIcEEESt4pairIKS5_iESt10_Select1stIS8_ESt4lessIS5_ESaIS8_EE17_M_construct_nodeIJRKSt21piecewise_construct_tSt5tupleIJRS7_EESJ_IJEEEEEvPSt13_Rb_tree_nodeIS8_EDpOT_, symObjAddr: 0x2E94, symBinAddr: 0x100003C78, symSize: 0x17C }
  - { offsetInCU: 0x1F9DC, offset: 0x1F9DC, size: 0x8, addend: 0x0, symName: __ZNSt8_Rb_treeINSt7__cxx1112basic_stringIcSt11char_traitsIcESaIcEEESt4pairIKS5_iESt10_Select1stIS8_ESt4lessIS5_ESaIS8_EE11_M_get_nodeEv, symObjAddr: 0x2E58, symBinAddr: 0x100003C3C, symSize: 0x3C }
  - { offsetInCU: 0x1FA38, offset: 0x1FA38, size: 0x8, addend: 0x0, symName: __ZN9__gnu_cxx16__aligned_membufISt4pairIKNSt7__cxx1112basic_stringIcSt11char_traitsIcESaIcEEEiEE7_M_addrEv, symObjAddr: 0x2E44, symBinAddr: 0x100003C28, symSize: 0x14 }
  - { offsetInCU: 0x1FA61, offset: 0x1FA61, size: 0x8, addend: 0x0, symName: __ZNKSt13_Rb_tree_nodeISt4pairIKNSt7__cxx1112basic_stringIcSt11char_traitsIcESaIcEEEiEE9_M_valptrEv, symObjAddr: 0x2E24, symBinAddr: 0x100003C08, symSize: 0x20 }
  - { offsetInCU: 0x1FA87, offset: 0x1FA87, size: 0x8, addend: 0x0, symName: __ZSt14__relocate_a_1IPNSt7__cxx1112basic_stringIcSt11char_traitsIcESaIcEEES6_SaIS5_EET0_T_S9_S8_RT1_, symObjAddr: 0x2DA0, symBinAddr: 0x100003B84, symSize: 0x84 }
  - { offsetInCU: 0x1FB10, offset: 0x1FB10, size: 0x8, addend: 0x0, symName: __ZSt12__niter_baseIPNSt7__cxx1112basic_stringIcSt11char_traitsIcESaIcEEEET_S7_, symObjAddr: 0x2D8C, symBinAddr: 0x100003B70, symSize: 0x14 }
  - { offsetInCU: 0x1FB47, offset: 0x1FB47, size: 0x8, addend: 0x0, symName: __ZNSt15__new_allocatorINSt7__cxx1112basic_stringIcSt11char_traitsIcESaIcEEEE8allocateEmPKv, symObjAddr: 0x2D10, symBinAddr: 0x100003AF4, symSize: 0x7C }
  - { offsetInCU: 0x1FBD3, offset: 0x1FBD3, size: 0x8, addend: 0x0, symName: __ZNKSt12_Vector_baseINSt7__cxx1112basic_stringIcSt11char_traitsIcESaIcEEESaIS5_EE19_M_get_Tp_allocatorEv, symObjAddr: 0x2CFC, symBinAddr: 0x100003AE0, symSize: 0x14 }
  - { offsetInCU: 0x1FBF9, offset: 0x1FBF9, size: 0x8, addend: 0x0, symName: __ZNSt6vectorINSt7__cxx1112basic_stringIcSt11char_traitsIcESaIcEEESaIS5_EE11_S_max_sizeERKS6_, symObjAddr: 0x2CA8, symBinAddr: 0x100003A8C, symSize: 0x54 }
  - { offsetInCU: 0x1FCB0, offset: 0x1FCB0, size: 0x8, addend: 0x0, symName: __ZSt8_DestroyINSt7__cxx1112basic_stringIcSt11char_traitsIcESaIcEEEEvPT_, symObjAddr: 0x2C88, symBinAddr: 0x100003A6C, symSize: 0x20 }
  - { offsetInCU: 0x1FCF1, offset: 0x1FCF1, size: 0x8, addend: 0x0, symName: __ZNKSt8_Rb_treeINSt7__cxx1112basic_stringIcSt11char_traitsIcESaIcEEESt4pairIKS5_iESt10_Select1stIS8_ESt4lessIS5_ESaIS8_EE11_Alloc_nodeclIRKS8_EEPSt13_Rb_tree_nodeIS8_EOT_, symObjAddr: 0x2C4C, symBinAddr: 0x100003A30, symSize: 0x3C }
  - { offsetInCU: 0x1FD35, offset: 0x1FD35, size: 0x8, addend: 0x0, symName: __ZNSt8_Rb_treeINSt7__cxx1112basic_stringIcSt11char_traitsIcESaIcEEESt4pairIKS5_iESt10_Select1stIS8_ESt4lessIS5_ESaIS8_EE11_M_put_nodeEPSt13_Rb_tree_nodeIS8_E, symObjAddr: 0x2C00, symBinAddr: 0x1000039E4, symSize: 0x4C }
  - { offsetInCU: 0x1FDA6, offset: 0x1FDA6, size: 0x8, addend: 0x0, symName: __ZNSt8_Rb_treeINSt7__cxx1112basic_stringIcSt11char_traitsIcESaIcEEESt4pairIKS5_iESt10_Select1stIS8_ESt4lessIS5_ESaIS8_EE15_M_destroy_nodeEPSt13_Rb_tree_nodeIS8_E, symObjAddr: 0x2BA0, symBinAddr: 0x100003984, symSize: 0x60 }
  - { offsetInCU: 0x1FE56, offset: 0x1FE56, size: 0x8, addend: 0x0, symName: __ZNSt8_Rb_treeINSt7__cxx1112basic_stringIcSt11char_traitsIcESaIcEEESt4pairIKS5_iESt10_Select1stIS8_ESt4lessIS5_ESaIS8_EE14_M_insert_nodeEPSt18_Rb_tree_node_baseSG_PSt13_Rb_tree_nodeIS8_E, symObjAddr: 0x2AD0, symBinAddr: 0x1000038B4, symSize: 0xD0 }
  - { offsetInCU: 0x1FEC4, offset: 0x1FEC4, size: 0x8, addend: 0x0, symName: __ZNSt17_Rb_tree_iteratorISt4pairIKNSt7__cxx1112basic_stringIcSt11char_traitsIcESaIcEEEiEEppEv, symObjAddr: 0x2AA0, symBinAddr: 0x100003884, symSize: 0x30 }
  - { offsetInCU: 0x1FEEE, offset: 0x1FEEE, size: 0x8, addend: 0x0, symName: __ZNSt17_Rb_tree_iteratorISt4pairIKNSt7__cxx1112basic_stringIcSt11char_traitsIcESaIcEEEiEEmmEv, symObjAddr: 0x2A70, symBinAddr: 0x100003854, symSize: 0x30 }
  - { offsetInCU: 0x1FF9A, offset: 0x1FF9A, size: 0x8, addend: 0x0, symName: __ZNSt4pairIPSt18_Rb_tree_node_baseS1_EC1IRS1_S4_Lb1EEEOT_OT0_, symObjAddr: 0x2A28, symBinAddr: 0x10000380C, symSize: 0x48 }
  - { offsetInCU: 0x1FFAA, offset: 0x1FFAA, size: 0x8, addend: 0x0, symName: __ZNSt8_Rb_treeINSt7__cxx1112basic_stringIcSt11char_traitsIcESaIcEEESt4pairIKS5_iESt10_Select1stIS8_ESt4lessIS5_ESaIS8_EE11_M_leftmostEv, symObjAddr: 0x2A10, symBinAddr: 0x1000037F4, symSize: 0x18 }
  - { offsetInCU: 0x1FFD4, offset: 0x1FFD4, size: 0x8, addend: 0x0, symName: __ZNSt8_Rb_treeINSt7__cxx1112basic_stringIcSt11char_traitsIcESaIcEEESt4pairIKS5_iESt10_Select1stIS8_ESt4lessIS5_ESaIS8_EE24_M_get_insert_unique_posERS7_, symObjAddr: 0x28B8, symBinAddr: 0x10000369C, symSize: 0x158 }
  - { offsetInCU: 0x200DA, offset: 0x200DA, size: 0x8, addend: 0x0, symName: __ZNSt4pairIPSt18_Rb_tree_node_baseS1_EC1IS1_S1_Lb1EEERKS1_S5_, symObjAddr: 0x287C, symBinAddr: 0x100003660, symSize: 0x3C }
  - { offsetInCU: 0x200EA, offset: 0x200EA, size: 0x8, addend: 0x0, symName: __ZNSt8_Rb_treeINSt7__cxx1112basic_stringIcSt11char_traitsIcESaIcEEESt4pairIKS5_iESt10_Select1stIS8_ESt4lessIS5_ESaIS8_EE12_M_rightmostEv, symObjAddr: 0x2864, symBinAddr: 0x100003648, symSize: 0x18 }
  - { offsetInCU: 0x20114, offset: 0x20114, size: 0x8, addend: 0x0, symName: __ZNKSt8_Rb_treeINSt7__cxx1112basic_stringIcSt11char_traitsIcESaIcEEESt4pairIKS5_iESt10_Select1stIS8_ESt4lessIS5_ESaIS8_EE4sizeEv, symObjAddr: 0x284C, symBinAddr: 0x100003630, symSize: 0x18 }
  - { offsetInCU: 0x2013E, offset: 0x2013E, size: 0x8, addend: 0x0, symName: __ZNKSt23_Rb_tree_const_iteratorISt4pairIKNSt7__cxx1112basic_stringIcSt11char_traitsIcESaIcEEEiEE13_M_const_castEv, symObjAddr: 0x2824, symBinAddr: 0x100003608, symSize: 0x28 }
  - { offsetInCU: 0x20168, offset: 0x20168, size: 0x8, addend: 0x0, symName: __ZNSt8_Rb_treeINSt7__cxx1112basic_stringIcSt11char_traitsIcESaIcEEESt4pairIKS5_iESt10_Select1stIS8_ESt4lessIS5_ESaIS8_EE14_M_create_nodeIJRKSt21piecewise_construct_tSt5tupleIJRS7_EESJ_IJEEEEEPSt13_Rb_tree_nodeIS8_EDpOT_, symObjAddr: 0x27B4, symBinAddr: 0x100003598, symSize: 0x70 }
  - { offsetInCU: 0x20255, offset: 0x20255, size: 0x8, addend: 0x0, symName: __ZNSt10_Head_baseILm0ERKNSt7__cxx1112basic_stringIcSt11char_traitsIcESaIcEEELb0EEC2ES7_, symObjAddr: 0x2790, symBinAddr: 0x100003574, symSize: 0x24 }
  - { offsetInCU: 0x20230, offset: 0x20230, size: 0x8, addend: 0x0, symName: __ZN9__gnu_cxx16__aligned_membufISt4pairIKNSt7__cxx1112basic_stringIcSt11char_traitsIcESaIcEEEiEE6_M_ptrEv, symObjAddr: 0x2774, symBinAddr: 0x100003558, symSize: 0x1C }
  - { offsetInCU: 0x20256, offset: 0x20256, size: 0x8, addend: 0x0, symName: __ZNSt8_Rb_treeINSt7__cxx1112basic_stringIcSt11char_traitsIcESaIcEEESt4pairIKS5_iESt10_Select1stIS8_ESt4lessIS5_ESaIS8_EE6_S_keyEPKSt13_Rb_tree_nodeIS8_E, symObjAddr: 0x274C, symBinAddr: 0x100003530, symSize: 0x28 }
  - { offsetInCU: 0x20280, offset: 0x20280, size: 0x8, addend: 0x0, symName: __ZSt12__relocate_aIPNSt7__cxx1112basic_stringIcSt11char_traitsIcESaIcEEES6_SaIS5_EET0_T_S9_S8_RT1_, symObjAddr: 0x26F0, symBinAddr: 0x1000034D4, symSize: 0x5C }
  - { offsetInCU: 0x20320, offset: 0x20320, size: 0x8, addend: 0x0, symName: __ZNK9__gnu_cxx17__normal_iteratorIPNSt7__cxx1112basic_stringIcSt11char_traitsIcESaIcEEESt6vectorIS6_SaIS6_EEE4baseEv, symObjAddr: 0x26DC, symBinAddr: 0x1000034C0, symSize: 0x14 }
  - { offsetInCU: 0x2034A, offset: 0x2034A, size: 0x8, addend: 0x0, symName: __ZNKSt6vectorINSt7__cxx1112basic_stringIcSt11char_traitsIcESaIcEEESaIS5_EE4sizeEv, symObjAddr: 0x26B4, symBinAddr: 0x100003498, symSize: 0x28 }
  - { offsetInCU: 0x20374, offset: 0x20374, size: 0x8, addend: 0x0, symName: __ZNKSt6vectorINSt7__cxx1112basic_stringIcSt11char_traitsIcESaIcEEESaIS5_EE8max_sizeEv, symObjAddr: 0x2694, symBinAddr: 0x100003478, symSize: 0x20 }
  - { offsetInCU: 0x2039A, offset: 0x2039A, size: 0x8, addend: 0x0, symName: __ZNSt12_Destroy_auxILb0EE9__destroyIPNSt7__cxx1112basic_stringIcSt11char_traitsIcESaIcEEEEEvT_S9_, symObjAddr: 0x2648, symBinAddr: 0x10000342C, symSize: 0x4C }
  - { offsetInCU: 0x203E0, offset: 0x203E0, size: 0x8, addend: 0x0, symName: __ZNSt15__new_allocatorINSt7__cxx1112basic_stringIcSt11char_traitsIcESaIcEEEE10deallocateEPS5_m, symObjAddr: 0x2618, symBinAddr: 0x1000033FC, symSize: 0x30 }
  - { offsetInCU: 0x20431, offset: 0x20431, size: 0x8, addend: 0x0, symName: __ZNSt8_Rb_treeINSt7__cxx1112basic_stringIcSt11char_traitsIcESaIcEEESt4pairIKS5_iESt10_Select1stIS8_ESt4lessIS5_ESaIS8_EE10_M_insert_IRKS8_NSE_11_Alloc_nodeEEESt17_Rb_tree_iteratorIS8_EPSt18_Rb_tree_node_baseSM_OT_RT0_, symObjAddr: 0x2528, symBinAddr: 0x10000330C, symSize: 0xF0 }
  - { offsetInCU: 0x204D7, offset: 0x204D7, size: 0x8, addend: 0x0, symName: __ZSt7forwardIRKSt4pairIKNSt7__cxx1112basic_stringIcSt11char_traitsIcESaIcEEEiEEOT_RNSt16remove_referenceISB_E4typeE, symObjAddr: 0x2514, symBinAddr: 0x1000032F8, symSize: 0x14 }
  - { offsetInCU: 0x2050D, offset: 0x2050D, size: 0x8, addend: 0x0, symName: __ZNKSt10_Select1stISt4pairIKNSt7__cxx1112basic_stringIcSt11char_traitsIcESaIcEEEiEEclERKS8_, symObjAddr: 0x24FC, symBinAddr: 0x1000032E0, symSize: 0x18 }
  - { offsetInCU: 0x20548, offset: 0x20548, size: 0x8, addend: 0x0, symName: __ZNKSt8_Rb_treeINSt7__cxx1112basic_stringIcSt11char_traitsIcESaIcEEESt4pairIKS5_iESt10_Select1stIS8_ESt4lessIS5_ESaIS8_EE9_M_mbeginEv, symObjAddr: 0x24E4, symBinAddr: 0x1000032C8, symSize: 0x18 }
  - { offsetInCU: 0x20572, offset: 0x20572, size: 0x8, addend: 0x0, symName: __ZNSt8_Rb_treeINSt7__cxx1112basic_stringIcSt11char_traitsIcESaIcEEESt4pairIKS5_iESt10_Select1stIS8_ESt4lessIS5_ESaIS8_EE12_M_drop_nodeEPSt13_Rb_tree_nodeIS8_E, symObjAddr: 0x24B0, symBinAddr: 0x100003294, symSize: 0x34 }
  - { offsetInCU: 0x205A9, offset: 0x205A9, size: 0x8, addend: 0x0, symName: __ZNSt8_Rb_treeINSt7__cxx1112basic_stringIcSt11char_traitsIcESaIcEEESt4pairIKS5_iESt10_Select1stIS8_ESt4lessIS5_ESaIS8_EE7_S_leftEPSt18_Rb_tree_node_base, symObjAddr: 0x2498, symBinAddr: 0x10000327C, symSize: 0x18 }
  - { offsetInCU: 0x205D3, offset: 0x205D3, size: 0x8, addend: 0x0, symName: __ZNSt8_Rb_treeINSt7__cxx1112basic_stringIcSt11char_traitsIcESaIcEEESt4pairIKS5_iESt10_Select1stIS8_ESt4lessIS5_ESaIS8_EE8_S_rightEPSt18_Rb_tree_node_base, symObjAddr: 0x2480, symBinAddr: 0x100003264, symSize: 0x18 }
  - { offsetInCU: 0x20687, offset: 0x20687, size: 0x8, addend: 0x0, symName: __ZNSt20_Rb_tree_key_compareISt4lessINSt7__cxx1112basic_stringIcSt11char_traitsIcESaIcEEEEEC2ERKS7_, symObjAddr: 0x2468, symBinAddr: 0x10000324C, symSize: 0x18 }
  - { offsetInCU: 0x2067D, offset: 0x2067D, size: 0x8, addend: 0x0, symName: __ZSt4moveIRSaISt13_Rb_tree_nodeISt4pairIKNSt7__cxx1112basic_stringIcSt11char_traitsIcESaIcEEEiEEEEONSt16remove_referenceIT_E4typeEOSE_, symObjAddr: 0x2454, symBinAddr: 0x100003238, symSize: 0x14 }
  - { offsetInCU: 0x20742, offset: 0x20742, size: 0x8, addend: 0x0, symName: __ZNSt15__new_allocatorISt13_Rb_tree_nodeISt4pairIKNSt7__cxx1112basic_stringIcSt11char_traitsIcESaIcEEEiEEED2Ev, symObjAddr: 0x2440, symBinAddr: 0x100003224, symSize: 0x14 }
  - { offsetInCU: 0x2076F, offset: 0x2076F, size: 0x8, addend: 0x0, symName: __ZNSt8_Rb_treeINSt7__cxx1112basic_stringIcSt11char_traitsIcESaIcEEESt4pairIKS5_iESt10_Select1stIS8_ESt4lessIS5_ESaIS8_EE10_Auto_node9_M_insertES6_IPSt18_Rb_tree_node_baseSH_E, symObjAddr: 0x23F4, symBinAddr: 0x1000031D8, symSize: 0x4C }
  - { offsetInCU: 0x207BB, offset: 0x207BB, size: 0x8, addend: 0x0, symName: __ZNKSt8_Rb_treeINSt7__cxx1112basic_stringIcSt11char_traitsIcESaIcEEESt4pairIKS5_iESt10_Select1stIS8_ESt4lessIS5_ESaIS8_EE10_Auto_node6_M_keyEv, symObjAddr: 0x23D4, symBinAddr: 0x1000031B8, symSize: 0x20 }
  - { offsetInCU: 0x207E5, offset: 0x207E5, size: 0x8, addend: 0x0, symName: __ZNSt8_Rb_treeINSt7__cxx1112basic_stringIcSt11char_traitsIcESaIcEEESt4pairIKS5_iESt10_Select1stIS8_ESt4lessIS5_ESaIS8_EE29_M_get_insert_hint_unique_posESt23_Rb_tree_const_iteratorIS8_ERS7_, symObjAddr: 0x20B0, symBinAddr: 0x100002E94, symSize: 0x324 }
  - { offsetInCU: 0x20939, offset: 0x20939, size: 0x8, addend: 0x0, symName: __ZNSt8_Rb_treeINSt7__cxx1112basic_stringIcSt11char_traitsIcESaIcEEESt4pairIKS5_iESt10_Select1stIS8_ESt4lessIS5_ESaIS8_EE10_Auto_nodeD1Ev, symObjAddr: 0x206C, symBinAddr: 0x100002E50, symSize: 0x44 }
  - { offsetInCU: 0x209F0, offset: 0x209F0, size: 0x8, addend: 0x0, symName: __ZNSt8_Rb_treeINSt7__cxx1112basic_stringIcSt11char_traitsIcESaIcEEESt4pairIKS5_iESt10_Select1stIS8_ESt4lessIS5_ESaIS8_EE10_Auto_nodeC1IJRKSt21piecewise_construct_tSt5tupleIJRS7_EESK_IJEEEEERSE_DpOT_, symObjAddr: 0x1FF0, symBinAddr: 0x100002DD4, symSize: 0x7C }
  - { offsetInCU: 0x20996, offset: 0x20996, size: 0x8, addend: 0x0, symName: __ZSt7forwardISt5tupleIJEEEOT_RNSt16remove_referenceIS2_E4typeE, symObjAddr: 0x1FDC, symBinAddr: 0x100002DC0, symSize: 0x14 }
  - { offsetInCU: 0x209CF, offset: 0x209CF, size: 0x8, addend: 0x0, symName: __ZSt7forwardISt5tupleIJRKNSt7__cxx1112basic_stringIcSt11char_traitsIcESaIcEEEEEEOT_RNSt16remove_referenceISA_E4typeE, symObjAddr: 0x1FC8, symBinAddr: 0x100002DAC, symSize: 0x14 }
  - { offsetInCU: 0x20A08, offset: 0x20A08, size: 0x8, addend: 0x0, symName: __ZSt7forwardIRKSt21piecewise_construct_tEOT_RNSt16remove_referenceIS3_E4typeE, symObjAddr: 0x1FB4, symBinAddr: 0x100002D98, symSize: 0x14 }
  - { offsetInCU: 0x20AB9, offset: 0x20AB9, size: 0x8, addend: 0x0, symName: __ZNSt11_Tuple_implILm0EJRKNSt7__cxx1112basic_stringIcSt11char_traitsIcESaIcEEEEEC2ES7_, symObjAddr: 0x1F8C, symBinAddr: 0x100002D70, symSize: 0x28 }
  - { offsetInCU: 0x20A91, offset: 0x20A91, size: 0x8, addend: 0x0, symName: __ZStltIcSt11char_traitsIcESaIcEEbRKNSt7__cxx1112basic_stringIT_T0_T1_EESA_, symObjAddr: 0x1F60, symBinAddr: 0x100002D44, symSize: 0x2C }
  - { offsetInCU: 0x20AEB, offset: 0x20AEB, size: 0x8, addend: 0x0, symName: __ZNSt13_Rb_tree_nodeISt4pairIKNSt7__cxx1112basic_stringIcSt11char_traitsIcESaIcEEEiEE9_M_valptrEv, symObjAddr: 0x1F40, symBinAddr: 0x100002D24, symSize: 0x20 }
  - { offsetInCU: 0x20B15, offset: 0x20B15, size: 0x8, addend: 0x0, symName: __ZNKSt8_Rb_treeINSt7__cxx1112basic_stringIcSt11char_traitsIcESaIcEEESt4pairIKS5_iESt10_Select1stIS8_ESt4lessIS5_ESaIS8_EE8key_compEv, symObjAddr: 0x1F28, symBinAddr: 0x100002D0C, symSize: 0x18 }
  - { offsetInCU: 0x20B3F, offset: 0x20B3F, size: 0x8, addend: 0x0, symName: __ZNSt8_Rb_treeINSt7__cxx1112basic_stringIcSt11char_traitsIcESaIcEEESt4pairIKS5_iESt10_Select1stIS8_ESt4lessIS5_ESaIS8_EE11lower_boundERS7_, symObjAddr: 0x1EE0, symBinAddr: 0x100002CC4, symSize: 0x48 }
  - { offsetInCU: 0x20C12, offset: 0x20C12, size: 0x8, addend: 0x0, symName: __ZNSt17_Rb_tree_iteratorISt4pairIKNSt7__cxx1112basic_stringIcSt11char_traitsIcESaIcEEEiEEC1EPSt18_Rb_tree_node_base, symObjAddr: 0x1EBC, symBinAddr: 0x100002CA0, symSize: 0x24 }
  - { offsetInCU: 0x20BCD, offset: 0x20BCD, size: 0x8, addend: 0x0, symName: __ZNSt8_Rb_treeINSt7__cxx1112basic_stringIcSt11char_traitsIcESaIcEEESt4pairIKS5_iESt10_Select1stIS8_ESt4lessIS5_ESaIS8_EE6_S_keyEPKSt18_Rb_tree_node_base, symObjAddr: 0x1EA0, symBinAddr: 0x100002C84, symSize: 0x1C }
  - { offsetInCU: 0x20BFB, offset: 0x20BFB, size: 0x8, addend: 0x0, symName: __ZNSt8_Rb_treeINSt7__cxx1112basic_stringIcSt11char_traitsIcESaIcEEESt4pairIKS5_iESt10_Select1stIS8_ESt4lessIS5_ESaIS8_EE14_M_lower_boundEPSt13_Rb_tree_nodeIS8_EPSt18_Rb_tree_node_baseRS7_, symObjAddr: 0x1E04, symBinAddr: 0x100002BE8, symSize: 0x9C }
  - { offsetInCU: 0x20C58, offset: 0x20C58, size: 0x8, addend: 0x0, symName: __ZNSt8_Rb_treeINSt7__cxx1112basic_stringIcSt11char_traitsIcESaIcEEESt4pairIKS5_iESt10_Select1stIS8_ESt4lessIS5_ESaIS8_EE6_M_endEv, symObjAddr: 0x1DEC, symBinAddr: 0x100002BD0, symSize: 0x18 }
  - { offsetInCU: 0x20D1B, offset: 0x20D1B, size: 0x8, addend: 0x0, symName: __ZN9__gnu_cxx17__normal_iteratorIPNSt7__cxx1112basic_stringIcSt11char_traitsIcESaIcEEESt6vectorIS6_SaIS6_EEEC1ERKS7_, symObjAddr: 0x1DC4, symBinAddr: 0x100002BA8, symSize: 0x28 }
  - { offsetInCU: 0x20CD9, offset: 0x20CD9, size: 0x8, addend: 0x0, symName: __ZNK9__gnu_cxx17__normal_iteratorIPKNSt7__cxx1112basic_stringIcSt11char_traitsIcESaIcEEESt6vectorIS6_SaIS6_EEE4baseEv, symObjAddr: 0x1DB0, symBinAddr: 0x100002B94, symSize: 0x14 }
  - { offsetInCU: 0x20D9D, offset: 0x20D9D, size: 0x8, addend: 0x0, symName: __ZN9__gnu_cxx17__normal_iteratorIPKNSt7__cxx1112basic_stringIcSt11char_traitsIcESaIcEEESt6vectorIS6_SaIS6_EEEC1ERKS8_, symObjAddr: 0x1D88, symBinAddr: 0x100002B6C, symSize: 0x28 }
  - { offsetInCU: 0x20D56, offset: 0x20D56, size: 0x8, addend: 0x0, symName: __ZNSt6vectorINSt7__cxx1112basic_stringIcSt11char_traitsIcESaIcEEESaIS5_EE11_S_relocateEPS5_S8_S8_RS6_, symObjAddr: 0x1D54, symBinAddr: 0x100002B38, symSize: 0x34 }
  - { offsetInCU: 0x20DB3, offset: 0x20DB3, size: 0x8, addend: 0x0, symName: __ZSt12__to_addressINSt7__cxx1112basic_stringIcSt11char_traitsIcESaIcEEEEPT_S7_, symObjAddr: 0x1D40, symBinAddr: 0x100002B24, symSize: 0x14 }
  - { offsetInCU: 0x20DE9, offset: 0x20DE9, size: 0x8, addend: 0x0, symName: __ZNSt12_Vector_baseINSt7__cxx1112basic_stringIcSt11char_traitsIcESaIcEEESaIS5_EE11_M_allocateEm, symObjAddr: 0x1CF0, symBinAddr: 0x100002AD4, symSize: 0x50 }
  - { offsetInCU: 0x20E54, offset: 0x20E54, size: 0x8, addend: 0x0, symName: __ZN9__gnu_cxxmiIPNSt7__cxx1112basic_stringIcSt11char_traitsIcESaIcEEESt6vectorIS6_SaIS6_EEEENS_17__normal_iteratorIT_T0_E15difference_typeERKSE_SH_, symObjAddr: 0x1CB0, symBinAddr: 0x100002A94, symSize: 0x40 }
  - { offsetInCU: 0x20EA5, offset: 0x20EA5, size: 0x8, addend: 0x0, symName: __ZNSt6vectorINSt7__cxx1112basic_stringIcSt11char_traitsIcESaIcEEESaIS5_EE5beginEv, symObjAddr: 0x1C8C, symBinAddr: 0x100002A70, symSize: 0x24 }
  - { offsetInCU: 0x20ECF, offset: 0x20ECF, size: 0x8, addend: 0x0, symName: __ZNKSt6vectorINSt7__cxx1112basic_stringIcSt11char_traitsIcESaIcEEESaIS5_EE12_M_check_lenEmPKc, symObjAddr: 0x1BBC, symBinAddr: 0x1000029A0, symSize: 0xD0 }
  - { offsetInCU: 0x20F71, offset: 0x20F71, size: 0x8, addend: 0x0, symName: __ZSt7forwardIRKNSt7__cxx1112basic_stringIcSt11char_traitsIcESaIcEEEEOT_RNSt16remove_referenceIS8_E4typeE, symObjAddr: 0x1BA8, symBinAddr: 0x10000298C, symSize: 0x14 }
  - { offsetInCU: 0x20FA3, offset: 0x20FA3, size: 0x8, addend: 0x0, symName: __ZSt8_DestroyIPNSt7__cxx1112basic_stringIcSt11char_traitsIcESaIcEEEEvT_S7_, symObjAddr: 0x1B80, symBinAddr: 0x100002964, symSize: 0x28 }
  - { offsetInCU: 0x21031, offset: 0x21031, size: 0x8, addend: 0x0, symName: __ZNSt8_Rb_treeINSt7__cxx1112basic_stringIcSt11char_traitsIcESaIcEEESt4pairIKS5_iESt10_Select1stIS8_ESt4lessIS5_ESaIS8_EE17_M_insert_unique_IRKS8_NSE_11_Alloc_nodeEEESt17_Rb_tree_iteratorIS8_ESt23_Rb_tree_const_iteratorIS8_EOT_RT0_, symObjAddr: 0x1AF0, symBinAddr: 0x1000028D4, symSize: 0x90 }
  - { offsetInCU: 0x21162, offset: 0x21162, size: 0x8, addend: 0x0, symName: __ZNSt8_Rb_treeINSt7__cxx1112basic_stringIcSt11char_traitsIcESaIcEEESt4pairIKS5_iESt10_Select1stIS8_ESt4lessIS5_ESaIS8_EE11_Alloc_nodeC1ERSE_, symObjAddr: 0x1ACC, symBinAddr: 0x1000028B0, symSize: 0x24 }
  - { offsetInCU: 0x21108, offset: 0x21108, size: 0x8, addend: 0x0, symName: __ZNKSt16initializer_listISt4pairIKNSt7__cxx1112basic_stringIcSt11char_traitsIcESaIcEEEiEE4sizeEv, symObjAddr: 0x1AB4, symBinAddr: 0x100002898, symSize: 0x18 }
  - { offsetInCU: 0x21132, offset: 0x21132, size: 0x8, addend: 0x0, symName: __ZNSt8_Rb_treeINSt7__cxx1112basic_stringIcSt11char_traitsIcESaIcEEESt4pairIKS5_iESt10_Select1stIS8_ESt4lessIS5_ESaIS8_EE8_M_beginEv, symObjAddr: 0x1A98, symBinAddr: 0x10000287C, symSize: 0x1C }
  - { offsetInCU: 0x2115C, offset: 0x2115C, size: 0x8, addend: 0x0, symName: __ZNSt8_Rb_treeINSt7__cxx1112basic_stringIcSt11char_traitsIcESaIcEEESt4pairIKS5_iESt10_Select1stIS8_ESt4lessIS5_ESaIS8_EE8_M_eraseEPSt13_Rb_tree_nodeIS8_E, symObjAddr: 0x1A34, symBinAddr: 0x100002818, symSize: 0x64 }
  - { offsetInCU: 0x212A1, offset: 0x212A1, size: 0x8, addend: 0x0, symName: __ZNSt8_Rb_treeINSt7__cxx1112basic_stringIcSt11char_traitsIcESaIcEEESt4pairIKS5_iESt10_Select1stIS8_ESt4lessIS5_ESaIS8_EE13_Rb_tree_implISC_Lb1EEC1ERKSC_OSaISt13_Rb_tree_nodeIS8_EE, symObjAddr: 0x19CC, symBinAddr: 0x1000027B0, symSize: 0x68 }
  - { offsetInCU: 0x21339, offset: 0x21339, size: 0x8, addend: 0x0, symName: __ZNSt8_Rb_treeINSt7__cxx1112basic_stringIcSt11char_traitsIcESaIcEEESt4pairIKS5_iESt10_Select1stIS8_ESt4lessIS5_ESaIS8_EE22_M_emplace_hint_uniqueIJRKSt21piecewise_construct_tSt5tupleIJRS7_EESJ_IJEEEEESt17_Rb_tree_iteratorIS8_ESt23_Rb_tree_const_iteratorIS8_EDpOT_, symObjAddr: 0x18F4, symBinAddr: 0x1000026D8, symSize: 0xD8 }
  - { offsetInCU: 0x21473, offset: 0x21473, size: 0x8, addend: 0x0, symName: __ZNSt23_Rb_tree_const_iteratorISt4pairIKNSt7__cxx1112basic_stringIcSt11char_traitsIcESaIcEEEiEEC1ERKSt17_Rb_tree_iteratorIS8_E, symObjAddr: 0x18CC, symBinAddr: 0x1000026B0, symSize: 0x28 }
  - { offsetInCU: 0x214AB, offset: 0x214AB, size: 0x8, addend: 0x0, symName: __ZNSt5tupleIJRKNSt7__cxx1112basic_stringIcSt11char_traitsIcESaIcEEEEEC1ILb1ELb1EEES7_, symObjAddr: 0x18A4, symBinAddr: 0x100002688, symSize: 0x28 }
  - { offsetInCU: 0x21492, offset: 0x21492, size: 0x8, addend: 0x0, symName: __ZNKSt4lessINSt7__cxx1112basic_stringIcSt11char_traitsIcESaIcEEEEclERKS5_S8_, symObjAddr: 0x187C, symBinAddr: 0x100002660, symSize: 0x28 }
  - { offsetInCU: 0x214DE, offset: 0x214DE, size: 0x8, addend: 0x0, symName: __ZNKSt17_Rb_tree_iteratorISt4pairIKNSt7__cxx1112basic_stringIcSt11char_traitsIcESaIcEEEiEEdeEv, symObjAddr: 0x185C, symBinAddr: 0x100002640, symSize: 0x20 }
  - { offsetInCU: 0x21508, offset: 0x21508, size: 0x8, addend: 0x0, symName: __ZNKSt3mapINSt7__cxx1112basic_stringIcSt11char_traitsIcESaIcEEEiSt4lessIS5_ESaISt4pairIKS5_iEEE8key_compEv, symObjAddr: 0x1830, symBinAddr: 0x100002614, symSize: 0x2C }
  - { offsetInCU: 0x21535, offset: 0x21535, size: 0x8, addend: 0x0, symName: __ZSteqRKSt17_Rb_tree_iteratorISt4pairIKNSt7__cxx1112basic_stringIcSt11char_traitsIcESaIcEEEiEESB_, symObjAddr: 0x1800, symBinAddr: 0x1000025E4, symSize: 0x30 }
  - { offsetInCU: 0x21574, offset: 0x21574, size: 0x8, addend: 0x0, symName: __ZNSt3mapINSt7__cxx1112basic_stringIcSt11char_traitsIcESaIcEEEiSt4lessIS5_ESaISt4pairIKS5_iEEE11lower_boundERS9_, symObjAddr: 0x17DC, symBinAddr: 0x1000025C0, symSize: 0x24 }
  - { offsetInCU: 0x215AF, offset: 0x215AF, size: 0x8, addend: 0x0, symName: __ZNSt8_Rb_treeINSt7__cxx1112basic_stringIcSt11char_traitsIcESaIcEEESt4pairIKS5_iESt10_Select1stIS8_ESt4lessIS5_ESaIS8_EE3endEv, symObjAddr: 0x17B4, symBinAddr: 0x100002598, symSize: 0x28 }
  - { offsetInCU: 0x215D9, offset: 0x215D9, size: 0x8, addend: 0x0, symName: __ZNSt8_Rb_treeINSt7__cxx1112basic_stringIcSt11char_traitsIcESaIcEEESt4pairIKS5_iESt10_Select1stIS8_ESt4lessIS5_ESaIS8_EE4findERS7_, symObjAddr: 0x170C, symBinAddr: 0x1000024F0, symSize: 0xA8 }
  - { offsetInCU: 0x21625, offset: 0x21625, size: 0x8, addend: 0x0, symName: __ZNK9__gnu_cxx17__normal_iteratorIPNSt7__cxx1112basic_stringIcSt11char_traitsIcESaIcEEESt6vectorIS6_SaIS6_EEEdeEv, symObjAddr: 0x16F4, symBinAddr: 0x1000024D8, symSize: 0x18 }
  - { offsetInCU: 0x2164F, offset: 0x2164F, size: 0x8, addend: 0x0, symName: __ZNK9__gnu_cxx17__normal_iteratorIPNSt7__cxx1112basic_stringIcSt11char_traitsIcESaIcEEESt6vectorIS6_SaIS6_EEEmiEl, symObjAddr: 0x16B0, symBinAddr: 0x100002494, symSize: 0x44 }
  - { offsetInCU: 0x2168A, offset: 0x2168A, size: 0x8, addend: 0x0, symName: __ZNSt6vectorINSt7__cxx1112basic_stringIcSt11char_traitsIcESaIcEEESaIS5_EE3endEv, symObjAddr: 0x1688, symBinAddr: 0x10000246C, symSize: 0x28 }
  - { offsetInCU: 0x216B7, offset: 0x216B7, size: 0x8, addend: 0x0, symName: __ZN9__gnu_cxxeqIPKNSt7__cxx1112basic_stringIcSt11char_traitsIcESaIcEEESt6vectorIS6_SaIS6_EEEEbRKNS_17__normal_iteratorIT_T0_EESH_, symObjAddr: 0x1644, symBinAddr: 0x100002428, symSize: 0x44 }
  - { offsetInCU: 0x21708, offset: 0x21708, size: 0x8, addend: 0x0, symName: __ZNKSt6vectorINSt7__cxx1112basic_stringIcSt11char_traitsIcESaIcEEESaIS5_EE3endEv, symObjAddr: 0x161C, symBinAddr: 0x100002400, symSize: 0x28 }
  - { offsetInCU: 0x21732, offset: 0x21732, size: 0x8, addend: 0x0, symName: __ZNKSt6vectorINSt7__cxx1112basic_stringIcSt11char_traitsIcESaIcEEESaIS5_EE5beginEv, symObjAddr: 0x15F8, symBinAddr: 0x1000023DC, symSize: 0x24 }
  - { offsetInCU: 0x2175C, offset: 0x2175C, size: 0x8, addend: 0x0, symName: __ZNSt6vectorINSt7__cxx1112basic_stringIcSt11char_traitsIcESaIcEEESaIS5_EE17_M_realloc_appendIJRKS5_EEEvDpOT_, symObjAddr: 0x13FC, symBinAddr: 0x1000021E0, symSize: 0x1FC }
  - { offsetInCU: 0x21960, offset: 0x21960, size: 0x8, addend: 0x0, symName: __ZZNSt6vectorINSt7__cxx1112basic_stringIcSt11char_traitsIcESaIcEEESaIS5_EE17_M_realloc_appendIJRKS5_EEEvDpOT_EN6_GuardC1EPS5_mRS6_, symObjAddr: 0x1358, symBinAddr: 0x10000213C, symSize: 0x44 }
  - { offsetInCU: 0x2199E, offset: 0x2199E, size: 0x8, addend: 0x0, symName: __ZZNSt6vectorINSt7__cxx1112basic_stringIcSt11char_traitsIcESaIcEEESaIS5_EE17_M_realloc_appendIJRKS5_EEEvDpOT_EN6_GuardD1Ev, symObjAddr: 0x139C, symBinAddr: 0x100002180, symSize: 0x60 }
  - { offsetInCU: 0x21A94, offset: 0x21A94, size: 0x8, addend: 0x0, symName: __ZNSt12_Vector_baseINSt7__cxx1112basic_stringIcSt11char_traitsIcESaIcEEESaIS5_EE19_M_get_Tp_allocatorEv, symObjAddr: 0x1344, symBinAddr: 0x100002128, symSize: 0x14 }
  - { offsetInCU: 0x21ABE, offset: 0x21ABE, size: 0x8, addend: 0x0, symName: __ZNSt12_Vector_baseINSt7__cxx1112basic_stringIcSt11char_traitsIcESaIcEEESaIS5_EE13_M_deallocateEPS5_m, symObjAddr: 0x12EC, symBinAddr: 0x1000020D0, symSize: 0x58 }
  - { offsetInCU: 0x21BB1, offset: 0x21BB1, size: 0x8, addend: 0x0, symName: __ZNSt15__new_allocatorINSt7__cxx1112basic_stringIcSt11char_traitsIcESaIcEEEED2Ev, symObjAddr: 0x12D8, symBinAddr: 0x1000020BC, symSize: 0x14 }
  - { offsetInCU: 0x21C08, offset: 0x21C08, size: 0x8, addend: 0x0, symName: __ZNSt12_Vector_baseINSt7__cxx1112basic_stringIcSt11char_traitsIcESaIcEEESaIS5_EE17_Vector_impl_dataC2Ev, symObjAddr: 0x12AC, symBinAddr: 0x100002090, symSize: 0x2C }
  - { offsetInCU: 0x21BE0, offset: 0x21BE0, size: 0x8, addend: 0x0, symName: __ZNSt8_Rb_treeINSt7__cxx1112basic_stringIcSt11char_traitsIcESaIcEEESt4pairIKS5_iESt10_Select1stIS8_ESt4lessIS5_ESaIS8_EE22_M_insert_range_uniqueIPKS8_EENSt9enable_ifIXsrSt7is_sameIS8_NSt15iterator_traitsIT_E10value_typeEE5valueEvE4typeESL_SL_, symObjAddr: 0x122C, symBinAddr: 0x100002010, symSize: 0x80 }
  - { offsetInCU: 0x21C46, offset: 0x21C46, size: 0x8, addend: 0x0, symName: __ZNKSt16initializer_listISt4pairIKNSt7__cxx1112basic_stringIcSt11char_traitsIcESaIcEEEiEE3endEv, symObjAddr: 0x11E4, symBinAddr: 0x100001FC8, symSize: 0x48 }
  - { offsetInCU: 0x21C70, offset: 0x21C70, size: 0x8, addend: 0x0, symName: __ZNKSt16initializer_listISt4pairIKNSt7__cxx1112basic_stringIcSt11char_traitsIcESaIcEEEiEE5beginEv, symObjAddr: 0x11CC, symBinAddr: 0x100001FB0, symSize: 0x18 }
  - { offsetInCU: 0x21D37, offset: 0x21D37, size: 0x8, addend: 0x0, symName: __ZNSt8_Rb_treeINSt7__cxx1112basic_stringIcSt11char_traitsIcESaIcEEESt4pairIKS5_iESt10_Select1stIS8_ESt4lessIS5_ESaIS8_EED1Ev, symObjAddr: 0x1198, symBinAddr: 0x100001F7C, symSize: 0x34 }
  - { offsetInCU: 0x21D9C, offset: 0x21D9C, size: 0x8, addend: 0x0, symName: __ZNSt8_Rb_treeINSt7__cxx1112basic_stringIcSt11char_traitsIcESaIcEEESt4pairIKS5_iESt10_Select1stIS8_ESt4lessIS5_ESaIS8_EEC1ERKSC_RKSD_, symObjAddr: 0x1120, symBinAddr: 0x100001F04, symSize: 0x78 }
  - { offsetInCU: 0x21E9A, offset: 0x21E9A, size: 0x8, addend: 0x0, symName: __ZNSt8_Rb_treeINSt7__cxx1112basic_stringIcSt11char_traitsIcESaIcEEESt4pairIKS5_iESt10_Select1stIS8_ESt4lessIS5_ESaIS8_EE13_Rb_tree_implISC_Lb1EED1Ev, symObjAddr: 0x10F4, symBinAddr: 0x100001ED8, symSize: 0x2C }
  - { offsetInCU: 0x21EF2, offset: 0x21EF2, size: 0x8, addend: 0x0, symName: __ZNSt15__new_allocatorISt4pairIKNSt7__cxx1112basic_stringIcSt11char_traitsIcESaIcEEEiEED2Ev, symObjAddr: 0x10E0, symBinAddr: 0x100001EC4, symSize: 0x14 }
  - { offsetInCU: 0x21EC0, offset: 0x21EC0, size: 0x8, addend: 0x0, symName: __ZNSt7__cxx1112basic_stringIcSt11char_traitsIcESaIcEE12_M_constructIPKcEEvT_S8_St20forward_iterator_tag, symObjAddr: 0xFE0, symBinAddr: 0x100001DC4, symSize: 0x100 }
  - { offsetInCU: 0x2203E, offset: 0x2203E, size: 0x8, addend: 0x0, symName: __ZZNSt7__cxx1112basic_stringIcSt11char_traitsIcESaIcEE12_M_constructIPKcEEvT_S8_St20forward_iterator_tagEN6_GuardC1EPS4_, symObjAddr: 0xF88, symBinAddr: 0x100001D6C, symSize: 0x24 }
  - { offsetInCU: 0x2206F, offset: 0x2206F, size: 0x8, addend: 0x0, symName: __ZZNSt7__cxx1112basic_stringIcSt11char_traitsIcESaIcEE12_M_constructIPKcEEvT_S8_St20forward_iterator_tagEN6_GuardD1Ev, symObjAddr: 0xFAC, symBinAddr: 0x100001D90, symSize: 0x34 }
  - { offsetInCU: 0x22116, offset: 0x22116, size: 0x8, addend: 0x0, symName: __ZNSt15__new_allocatorIcED2Ev, symObjAddr: 0xF74, symBinAddr: 0x100001D58, symSize: 0x14 }
  - { offsetInCU: 0x22160, offset: 0x22160, size: 0x8, addend: 0x0, symName: __ZN9__gnu_cxx11char_traitsIcE2eqERKcS3_, symObjAddr: 0xF44, symBinAddr: 0x100001D28, symSize: 0x30 }
  - { offsetInCU: 0x2219D, offset: 0x2219D, size: 0x8, addend: 0x0, symName: __ZNSt6vectorINSt7__cxx1112basic_stringIcSt11char_traitsIcESaIcEEESaIS5_EE8pop_backEv, symObjAddr: 0xEE4, symBinAddr: 0x100001CC8, symSize: 0x60 }
  - { offsetInCU: 0x22221, offset: 0x22221, size: 0x8, addend: 0x0, symName: __ZNSt3mapINSt7__cxx1112basic_stringIcSt11char_traitsIcESaIcEEEiSt4lessIS5_ESaISt4pairIKS5_iEEEixERS9_, symObjAddr: 0xDF8, symBinAddr: 0x100001BDC, symSize: 0xEC }
  - { offsetInCU: 0x22269, offset: 0x22269, size: 0x8, addend: 0x0, symName: __ZStneRKSt17_Rb_tree_iteratorISt4pairIKNSt7__cxx1112basic_stringIcSt11char_traitsIcESaIcEEEiEESB_, symObjAddr: 0xDC8, symBinAddr: 0x100001BAC, symSize: 0x30 }
  - { offsetInCU: 0x222A8, offset: 0x222A8, size: 0x8, addend: 0x0, symName: __ZNSt3mapINSt7__cxx1112basic_stringIcSt11char_traitsIcESaIcEEEiSt4lessIS5_ESaISt4pairIKS5_iEEE3endEv, symObjAddr: 0xDAC, symBinAddr: 0x100001B90, symSize: 0x1C }
  - { offsetInCU: 0x222D2, offset: 0x222D2, size: 0x8, addend: 0x0, symName: __ZNSt3mapINSt7__cxx1112basic_stringIcSt11char_traitsIcESaIcEEEiSt4lessIS5_ESaISt4pairIKS5_iEEE4findERS9_, symObjAddr: 0xD88, symBinAddr: 0x100001B6C, symSize: 0x24 }
  - { offsetInCU: 0x2230D, offset: 0x2230D, size: 0x8, addend: 0x0, symName: __ZNSt6vectorINSt7__cxx1112basic_stringIcSt11char_traitsIcESaIcEEESaIS5_EE4backEv, symObjAddr: 0xD50, symBinAddr: 0x100001B34, symSize: 0x38 }
  - { offsetInCU: 0x22337, offset: 0x22337, size: 0x8, addend: 0x0, symName: __ZNKSt6vectorINSt7__cxx1112basic_stringIcSt11char_traitsIcESaIcEEESaIS5_EE5emptyEv, symObjAddr: 0xD18, symBinAddr: 0x100001AFC, symSize: 0x38 }
  - { offsetInCU: 0x22361, offset: 0x22361, size: 0x8, addend: 0x0, symName: __ZNSt6vectorINSt7__cxx1112basic_stringIcSt11char_traitsIcESaIcEEESaIS5_EE9push_backERKS5_, symObjAddr: 0xC1C, symBinAddr: 0x100001A00, symSize: 0xFC }
  - { offsetInCU: 0x2247B, offset: 0x2247B, size: 0x8, addend: 0x0, symName: __ZNSt6vectorINSt7__cxx1112basic_stringIcSt11char_traitsIcESaIcEEESaIS5_EED1Ev, symObjAddr: 0xBC0, symBinAddr: 0x1000019A4, symSize: 0x5C }
  - { offsetInCU: 0x22502, offset: 0x22502, size: 0x8, addend: 0x0, symName: __ZNSt12_Vector_baseINSt7__cxx1112basic_stringIcSt11char_traitsIcESaIcEEESaIS5_EED2Ev, symObjAddr: 0xB70, symBinAddr: 0x100001954, symSize: 0x50 }
  - { offsetInCU: 0x22570, offset: 0x22570, size: 0x8, addend: 0x0, symName: __ZNSt12_Vector_baseINSt7__cxx1112basic_stringIcSt11char_traitsIcESaIcEEESaIS5_EE12_Vector_implC1Ev, symObjAddr: 0xB38, symBinAddr: 0x10000191C, symSize: 0x38 }
  - { offsetInCU: 0x22579, offset: 0x22579, size: 0x8, addend: 0x0, symName: __ZSteqIcSt11char_traitsIcESaIcEEbRKNSt7__cxx1112basic_stringIT_T0_T1_EEPKS5_, symObjAddr: 0xAC4, symBinAddr: 0x1000018A8, symSize: 0x74 }
  - { offsetInCU: 0x22695, offset: 0x22695, size: 0x8, addend: 0x0, symName: __ZNSt3mapINSt7__cxx1112basic_stringIcSt11char_traitsIcESaIcEEEiSt4lessIS5_ESaISt4pairIKS5_iEEEC1ESt16initializer_listISA_ERKS7_RKSB_, symObjAddr: 0xA04, symBinAddr: 0x1000017E8, symSize: 0xC0 }
  - { offsetInCU: 0x22715, offset: 0x22715, size: 0x8, addend: 0x0, symName: __ZSt7forwardIRA4_KcEOT_RNSt16remove_referenceIS3_E4typeE, symObjAddr: 0x9F0, symBinAddr: 0x1000017D4, symSize: 0x14 }
  - { offsetInCU: 0x22755, offset: 0x22755, size: 0x8, addend: 0x0, symName: __ZSt7forwardIRA3_KcEOT_RNSt16remove_referenceIS3_E4typeE, symObjAddr: 0x9DC, symBinAddr: 0x1000017C0, symSize: 0x14 }
  - { offsetInCU: 0x22795, offset: 0x22795, size: 0x8, addend: 0x0, symName: __ZSt7forwardIRA6_KcEOT_RNSt16remove_referenceIS3_E4typeE, symObjAddr: 0x9C8, symBinAddr: 0x1000017AC, symSize: 0x14 }
  - { offsetInCU: 0x227D5, offset: 0x227D5, size: 0x8, addend: 0x0, symName: __ZSt7forwardIRA5_KcEOT_RNSt16remove_referenceIS3_E4typeE, symObjAddr: 0x9B4, symBinAddr: 0x100001798, symSize: 0x14 }
  - { offsetInCU: 0x22807, offset: 0x22807, size: 0x8, addend: 0x0, symName: __ZSt11__addressofINSt7__cxx1112basic_stringIcSt11char_traitsIcESaIcEEEEPT_RS6_, symObjAddr: 0x9A0, symBinAddr: 0x100001784, symSize: 0x14 }
  - { offsetInCU: 0x22840, offset: 0x22840, size: 0x8, addend: 0x0, symName: __ZSt4moveIRNSt7__cxx1112basic_stringIcSt11char_traitsIcESaIcEEEEONSt16remove_referenceIT_E4typeEOS8_, symObjAddr: 0x98C, symBinAddr: 0x100001770, symSize: 0x14 }
  - { offsetInCU: 0x228FF, offset: 0x228FF, size: 0x8, addend: 0x0, symName: __ZNSt7__cxx1112basic_stringIcSt11char_traitsIcESaIcEEC1IS3_EEPKcRKS3_, symObjAddr: 0x8F0, symBinAddr: 0x1000016D4, symSize: 0x9C }
  - { offsetInCU: 0x2292C, offset: 0x2292C, size: 0x8, addend: 0x0, symName: __ZSt7forwardIiEOT_RNSt16remove_referenceIS0_E4typeE, symObjAddr: 0x8DC, symBinAddr: 0x1000016C0, symSize: 0x14 }
  - { offsetInCU: 0x2295E, offset: 0x2295E, size: 0x8, addend: 0x0, symName: __ZSt3maxImERKT_S2_S2_, symObjAddr: 0x8A4, symBinAddr: 0x100001688, symSize: 0x38 }
  - { offsetInCU: 0x22A47, offset: 0x22A47, size: 0x8, addend: 0x0, symName: __ZNSt7__cxx1112basic_stringIcSt11char_traitsIcESaIcEE12_Alloc_hiderD1Ev, symObjAddr: 0x878, symBinAddr: 0x10000165C, symSize: 0x2C }
  - { offsetInCU: 0x22A48, offset: 0x22A48, size: 0x8, addend: 0x0, symName: __ZN9__gnu_cxx11char_traitsIcE6lengthEPKc, symObjAddr: 0x820, symBinAddr: 0x100001604, symSize: 0x58 }
  - { offsetInCU: 0x22A8A, offset: 0x22A8A, size: 0x8, addend: 0x0, symName: _main, symObjAddr: 0x51C, symBinAddr: 0x100001300, symSize: 0x304 }
  - { offsetInCU: 0x22B74, offset: 0x22B74, size: 0x8, addend: 0x0, symName: __ZNSt6vectorINSt7__cxx1112basic_stringIcSt11char_traitsIcESaIcEEESaIS5_EEC1Ev, symObjAddr: 0x4FC, symBinAddr: 0x1000012E0, symSize: 0x20 }
  - { offsetInCU: 0x22BBB, offset: 0x22BBB, size: 0x8, addend: 0x0, symName: __ZNSt12_Vector_baseINSt7__cxx1112basic_stringIcSt11char_traitsIcESaIcEEESaIS5_EEC2Ev, symObjAddr: 0x4DC, symBinAddr: 0x1000012C0, symSize: 0x20 }
  - { offsetInCU: 0x22C16, offset: 0x22C16, size: 0x8, addend: 0x0, symName: __ZNSt12_Vector_baseINSt7__cxx1112basic_stringIcSt11char_traitsIcESaIcEEESaIS5_EE12_Vector_implD1Ev, symObjAddr: 0x4B0, symBinAddr: 0x100001294, symSize: 0x2C }
  - { offsetInCU: 0x22C9E, offset: 0x22C9E, size: 0x8, addend: 0x0, symName: __ZNSt4pairIKNSt7__cxx1112basic_stringIcSt11char_traitsIcESaIcEEEiEC1IRA4_KciLb1EEEOT_OT0_, symObjAddr: 0x420, symBinAddr: 0x100001204, symSize: 0x90 }
  - { offsetInCU: 0x22DB6, offset: 0x22DB6, size: 0x8, addend: 0x0, symName: __ZNSt4pairIKNSt7__cxx1112basic_stringIcSt11char_traitsIcESaIcEEEiEC1IRA3_KciLb1EEEOT_OT0_, symObjAddr: 0x390, symBinAddr: 0x100001174, symSize: 0x90 }
  - { offsetInCU: 0x22ECE, offset: 0x22ECE, size: 0x8, addend: 0x0, symName: __ZNSt4pairIKNSt7__cxx1112basic_stringIcSt11char_traitsIcESaIcEEEiEC1IRA6_KciLb1EEEOT_OT0_, symObjAddr: 0x300, symBinAddr: 0x1000010E4, symSize: 0x90 }
  - { offsetInCU: 0x22FE6, offset: 0x22FE6, size: 0x8, addend: 0x0, symName: __ZNSt4pairIKNSt7__cxx1112basic_stringIcSt11char_traitsIcESaIcEEEiEC1IRA5_KciLb1EEEOT_OT0_, symObjAddr: 0x270, symBinAddr: 0x100001054, symSize: 0x90 }
  - { offsetInCU: 0x230CB, offset: 0x230CB, size: 0x8, addend: 0x0, symName: __ZNSt4pairIKNSt7__cxx1112basic_stringIcSt11char_traitsIcESaIcEEEiED1Ev, symObjAddr: 0x250, symBinAddr: 0x100001034, symSize: 0x20 }
  - { offsetInCU: 0x230AE, offset: 0x230AE, size: 0x8, addend: 0x0, symName: __ZNSt15_Rb_tree_header8_M_resetEv, symObjAddr: 0x214, symBinAddr: 0x100000FF8, symSize: 0x3C }
  - { offsetInCU: 0x23109, offset: 0x23109, size: 0x8, addend: 0x0, symName: __ZNSt15_Rb_tree_headerC2Ev, symObjAddr: 0x1EC, symBinAddr: 0x100000FD0, symSize: 0x28 }
  - { offsetInCU: 0x23114, offset: 0x23114, size: 0x8, addend: 0x0, symName: __ZStorSt13_Ios_OpenmodeS_, symObjAddr: 0x1CC, symBinAddr: 0x100000FB0, symSize: 0x20 }
  - { offsetInCU: 0x2314D, offset: 0x2314D, size: 0x8, addend: 0x0, symName: __ZSt3minImERKT_S2_S2_, symObjAddr: 0x194, symBinAddr: 0x100000F78, symSize: 0x38 }
  - { offsetInCU: 0x2318F, offset: 0x2318F, size: 0x8, addend: 0x0, symName: __ZNSt11char_traitsIcE6lengthEPKc, symObjAddr: 0x158, symBinAddr: 0x100000F3C, symSize: 0x3C }
  - { offsetInCU: 0x231D3, offset: 0x231D3, size: 0x8, addend: 0x0, symName: __ZNSt11char_traitsIcE7compareEPKcS2_m, symObjAddr: 0x68, symBinAddr: 0x100000E4C, symSize: 0xF0 }
  - { offsetInCU: 0x2325D, offset: 0x2325D, size: 0x8, addend: 0x0, symName: __ZNSt11char_traitsIcE2ltERKcS2_, symObjAddr: 0x30, symBinAddr: 0x100000E14, symSize: 0x38 }
  - { offsetInCU: 0x232A5, offset: 0x232A5, size: 0x8, addend: 0x0, symName: __ZdlPvS_, symObjAddr: 0x18, symBinAddr: 0x100000DFC, symSize: 0x18 }
  - { offsetInCU: 0x232DA, offset: 0x232DA, size: 0x8, addend: 0x0, symName: __ZnwmPv, symObjAddr: 0x0, symBinAddr: 0x100000DE4, symSize: 0x18 }
...
